
build/pitrex.elf.img:     file format elf32-littlearm


Disassembly of section .init:

00008000 <_preStart>:
_preStart():
    8000:	e59f50e4 	ldr	r5, [pc, #228]	; 80ec <reset_callee+0x94>
    8004:	e5850000 	str	r0, [r5]
    8008:	e59f50e0 	ldr	r5, [pc, #224]	; 80f0 <reset_callee+0x98>
    800c:	e5851000 	str	r1, [r5]
    8010:	e59f50dc 	ldr	r5, [pc, #220]	; 80f4 <reset_callee+0x9c>
    8014:	e5852000 	str	r2, [r5]

00008018 <_start>:
_start():
    8018:	e59ff018 	ldr	pc, [pc, #24]	; 8038 <reset_handler>
    801c:	e59ff018 	ldr	pc, [pc, #24]	; 803c <undefined_handler>
    8020:	e59ff018 	ldr	pc, [pc, #24]	; 8040 <swi_handler>
    8024:	e59ff018 	ldr	pc, [pc, #24]	; 8044 <prefetch_handler>
    8028:	e59ff018 	ldr	pc, [pc, #24]	; 8048 <data_handler>
    802c:	e59ff018 	ldr	pc, [pc, #24]	; 804c <unused_handler>
    8030:	e59ff018 	ldr	pc, [pc, #24]	; 8050 <irq_handler>
    8034:	e59ff018 	ldr	pc, [pc, #24]	; 8054 <fiq_handler>

00008038 <reset_handler>:
reset_handler():
    8038:	00008058 	andeq	r8, r0, r8, asr r0

0000803c <undefined_handler>:
undefined_handler():
    803c:	00011f3c 	andeq	r1, r1, ip, lsr pc

00008040 <swi_handler>:
swi_handler():
    8040:	00011f7c 	andeq	r1, r1, ip, ror pc

00008044 <prefetch_handler>:
prefetch_handler():
    8044:	00011f4c 	andeq	r1, r1, ip, asr #30

00008048 <data_handler>:
data_handler():
    8048:	00011f60 	andeq	r1, r1, r0, ror #30

0000804c <unused_handler>:
unused_handler():
    804c:	00011f7c 	andeq	r1, r1, ip, ror pc

00008050 <irq_handler>:
irq_handler():
    8050:	00011f70 	andeq	r1, r1, r0, ror pc

00008054 <fiq_handler>:
fiq_handler():
    8054:	00011f74 	andeq	r1, r1, r4, ror pc

00008058 <reset_callee>:
reset_callee():
    8058:	e3a00000 	mov	r0, #0
    805c:	e59f1094 	ldr	r1, [pc, #148]	; 80f8 <reset_callee+0xa0>
    8060:	e8b103fc 	ldm	r1!, {r2, r3, r4, r5, r6, r7, r8, r9}
    8064:	e8a003fc 	stmia	r0!, {r2, r3, r4, r5, r6, r7, r8, r9}
    8068:	e8b103fc 	ldm	r1!, {r2, r3, r4, r5, r6, r7, r8, r9}
    806c:	e8a003fc 	stmia	r0!, {r2, r3, r4, r5, r6, r7, r8, r9}
    8070:	e321f0d7 	msr	CPSR_c, #215	; 0xd7
    8074:	e59f0080 	ldr	r0, [pc, #128]	; 80fc <reset_callee+0xa4>
    8078:	e1a0d000 	mov	sp, r0
    807c:	e321f0db 	msr	CPSR_c, #219	; 0xdb
    8080:	e59f0078 	ldr	r0, [pc, #120]	; 8100 <reset_callee+0xa8>
    8084:	e1a0d000 	mov	sp, r0
    8088:	e321f0d2 	msr	CPSR_c, #210	; 0xd2
    808c:	e59f0070 	ldr	r0, [pc, #112]	; 8104 <reset_callee+0xac>
    8090:	e1a0d000 	mov	sp, r0
    8094:	e321f0d1 	msr	CPSR_c, #209	; 0xd1
    8098:	e59f0068 	ldr	r0, [pc, #104]	; 8108 <reset_callee+0xb0>
    809c:	e1a0d000 	mov	sp, r0
    80a0:	e321f0d3 	msr	CPSR_c, #211	; 0xd3
    80a4:	e59f0060 	ldr	r0, [pc, #96]	; 810c <reset_callee+0xb4>
    80a8:	e1a0d000 	mov	sp, r0
    80ac:	e3a00000 	mov	r0, #0
    80b0:	e59f1058 	ldr	r1, [pc, #88]	; 8110 <reset_callee+0xb8>
    80b4:	e59f2058 	ldr	r2, [pc, #88]	; 8114 <reset_callee+0xbc>
    80b8:	e1510002 	cmp	r1, r2
    80bc:	34810004 	strcc	r0, [r1], #4
    80c0:	3afffffc 	bcc	80b8 <reset_callee+0x60>
    80c4:	eb003164 	bl	1465c <vfp_init>
    80c8:	eb0036b0 	bl	15b90 <firstInit>
    80cc:	eb003692 	bl	15b1c <mmu_enable>
    80d0:	ee110f10 	mrc	15, 0, r0, cr1, cr0, {0}
    80d4:	e3c00002 	bic	r0, r0, #2
    80d8:	e3800501 	orr	r0, r0, #4194304	; 0x400000
    80dc:	ee010f10 	mcr	15, 0, r0, cr1, cr0, {0}
    80e0:	e3a00001 	mov	r0, #1
    80e4:	ee0f0f19 	mcr	15, 0, r0, cr15, cr9, {0}
    80e8:	ea0027c9 	b	12014 <kernelMain>
    80ec:	03ffffa0 	mvnseq	pc, #160, 30	; 0x280
    80f0:	03ffffa4 	mvnseq	pc, #164, 30	; 0x290
    80f4:	03ffffa8 	mvnseq	pc, #168, 30	; 0x2a0
    80f8:	00008018 	andeq	r8, r0, r8, lsl r0
    80fc:	03f85000 	mvnseq	r5, #0
    8100:	03f81000 	mvnseq	r1, #0
    8104:	03d01000 	bicseq	r1, r0, #0
    8108:	03f89000 	mvnseq	r9, #0
    810c:	03f20000 	mvnseq	r0, #0
    8110:	0003a214 	andeq	sl, r3, r4, lsl r2
    8114:	0003a7b8 			; <UNDEFINED> instruction: 0x0003a7b8

Disassembly of section .text:

00008118 <main>:
main():
    8118:	e92d4010 	push	{r4, lr}
    811c:	e24dde23 	sub	sp, sp, #560	; 0x230
    8120:	e3a02001 	mov	r2, #1
    8124:	e59f1078 	ldr	r1, [pc, #120]	; 81a4 <main+0x8c>
    8128:	e28d0008 	add	r0, sp, #8
    812c:	eb005923 	bl	1e5c0 <f_open>
    8130:	e2504000 	subs	r4, r0, #0
    8134:	0a000006 	beq	8154 <main+0x3c>
    8138:	eb003186 	bl	14758 <getErrorText>
    813c:	e1a02004 	mov	r2, r4
    8140:	e1a03000 	mov	r3, r0
    8144:	e59f1058 	ldr	r1, [pc, #88]	; 81a4 <main+0x8c>
    8148:	e59f0058 	ldr	r0, [pc, #88]	; 81a8 <main+0x90>
    814c:	eb000024 	bl	81e4 <printf>
    8150:	eafffffe 	b	8150 <main+0x38>
    8154:	e3a02519 	mov	r2, #104857600	; 0x6400000
    8158:	e3a01301 	mov	r1, #67108864	; 0x4000000
    815c:	e28d0008 	add	r0, sp, #8
    8160:	e28d3004 	add	r3, sp, #4
    8164:	e58d2004 	str	r2, [sp, #4]
    8168:	eb004833 	bl	1a23c <f_read>
    816c:	e2501000 	subs	r1, r0, #0
    8170:	0a000004 	beq	8188 <main+0x70>
    8174:	e59f0030 	ldr	r0, [pc, #48]	; 81ac <main+0x94>
    8178:	eb000019 	bl	81e4 <printf>
    817c:	e28d0008 	add	r0, sp, #8
    8180:	eb004a42 	bl	1aa90 <f_close>
    8184:	eafffff1 	b	8150 <main+0x38>
    8188:	e28d0008 	add	r0, sp, #8
    818c:	eb004a3f 	bl	1aa90 <f_close>
    8190:	e59f0018 	ldr	r0, [pc, #24]	; 81b0 <main+0x98>
    8194:	eb000012 	bl	81e4 <printf>
    8198:	e3a03301 	mov	r3, #67108864	; 0x4000000
    819c:	e12fff33 	blx	r3
    81a0:	eafffff7 	b	8184 <main+0x6c>
    81a4:	00027ea0 	andeq	r7, r2, r0, lsr #29
    81a8:	00027e40 	andeq	r7, r2, r0, asr #28
    81ac:	00027e64 	andeq	r7, r2, r4, ror #28
    81b0:	00027e88 	andeq	r7, r2, r8, lsl #29

000081b4 <_printf_r>:
_printf_r():
    81b4:	e92d000e 	push	{r1, r2, r3}
    81b8:	e52de004 	push	{lr}		; (str lr, [sp, #-4]!)
    81bc:	e24dd008 	sub	sp, sp, #8
    81c0:	e28d3010 	add	r3, sp, #16
    81c4:	e59d200c 	ldr	r2, [sp, #12]
    81c8:	e5901008 	ldr	r1, [r0, #8]
    81cc:	e58d3004 	str	r3, [sp, #4]
    81d0:	eb000012 	bl	8220 <_vfprintf_r>
    81d4:	e28dd008 	add	sp, sp, #8
    81d8:	e49de004 	pop	{lr}		; (ldr lr, [sp], #4)
    81dc:	e28dd00c 	add	sp, sp, #12
    81e0:	e12fff1e 	bx	lr

000081e4 <printf>:
printf():
    81e4:	e92d000f 	push	{r0, r1, r2, r3}
    81e8:	e59f202c 	ldr	r2, [pc, #44]	; 821c <printf+0x38>
    81ec:	e52de004 	push	{lr}		; (str lr, [sp, #-4]!)
    81f0:	e5920000 	ldr	r0, [r2]
    81f4:	e24dd00c 	sub	sp, sp, #12
    81f8:	e28d3014 	add	r3, sp, #20
    81fc:	e59d2010 	ldr	r2, [sp, #16]
    8200:	e5901008 	ldr	r1, [r0, #8]
    8204:	e58d3004 	str	r3, [sp, #4]
    8208:	eb000004 	bl	8220 <_vfprintf_r>
    820c:	e28dd00c 	add	sp, sp, #12
    8210:	e49de004 	pop	{lr}		; (ldr lr, [sp], #4)
    8214:	e28dd010 	add	sp, sp, #16
    8218:	e12fff1e 	bx	lr
    821c:	000397e8 	andeq	r9, r3, r8, ror #15

00008220 <_vfprintf_r>:
_vfprintf_r():
    8220:	e92d4ff0 	push	{r4, r5, r6, r7, r8, r9, sl, fp, lr}
    8224:	ed2d8b0c 	vpush	{d8-d13}
    8228:	ee0d0a10 	vmov	s26, r0
    822c:	e1a04003 	mov	r4, r3
    8230:	e1a05000 	mov	r5, r0
    8234:	e24ddf4d 	sub	sp, sp, #308	; 0x134
    8238:	e1a0a001 	mov	sl, r1
    823c:	e1a08002 	mov	r8, r2
    8240:	eb001255 	bl	cb9c <_localeconv_r>
    8244:	e58d4020 	str	r4, [sp, #32]
    8248:	e5903000 	ldr	r3, [r0]
    824c:	e58d3048 	str	r3, [sp, #72]	; 0x48
    8250:	e1a00003 	mov	r0, r3
    8254:	eb0019ce 	bl	e994 <strlen>
    8258:	e3550000 	cmp	r5, #0
    825c:	e58d0044 	str	r0, [sp, #68]	; 0x44
    8260:	0a000002 	beq	8270 <_vfprintf_r+0x50>
    8264:	e5953038 	ldr	r3, [r5, #56]	; 0x38
    8268:	e3530000 	cmp	r3, #0
    826c:	0a0001a4 	beq	8904 <_vfprintf_r+0x6e4>
    8270:	e59a3064 	ldr	r3, [sl, #100]	; 0x64
    8274:	e1da20fc 	ldrsh	r2, [sl, #12]
    8278:	e3130001 	tst	r3, #1
    827c:	1a0000e2 	bne	860c <_vfprintf_r+0x3ec>
    8280:	e1a01802 	lsl	r1, r2, #16
    8284:	e3120c02 	tst	r2, #512	; 0x200
    8288:	e1a01821 	lsr	r1, r1, #16
    828c:	0a0000db 	beq	8600 <_vfprintf_r+0x3e0>
    8290:	e3110a02 	tst	r1, #8192	; 0x2000
    8294:	1a000006 	bne	82b4 <_vfprintf_r+0x94>
    8298:	e59a3064 	ldr	r3, [sl, #100]	; 0x64
    829c:	e3822a02 	orr	r2, r2, #8192	; 0x2000
    82a0:	e1a01802 	lsl	r1, r2, #16
    82a4:	e3c33a02 	bic	r3, r3, #8192	; 0x2000
    82a8:	e1a01821 	lsr	r1, r1, #16
    82ac:	e1ca20bc 	strh	r2, [sl, #12]
    82b0:	e58a3064 	str	r3, [sl, #100]	; 0x64
    82b4:	e3110008 	tst	r1, #8
    82b8:	0a0000b7 	beq	859c <_vfprintf_r+0x37c>
    82bc:	e59a3010 	ldr	r3, [sl, #16]
    82c0:	e3530000 	cmp	r3, #0
    82c4:	0a0000b4 	beq	859c <_vfprintf_r+0x37c>
    82c8:	e201301a 	and	r3, r1, #26
    82cc:	e353000a 	cmp	r3, #10
    82d0:	0a0000ba 	beq	85c0 <_vfprintf_r+0x3a0>
    82d4:	ed9f8bed 	vldr	d8, [pc, #948]	; 8690 <_vfprintf_r+0x470>
    82d8:	ed9f9bee 	vldr	d9, [pc, #952]	; 8698 <_vfprintf_r+0x478>
    82dc:	ed9fbbef 	vldr	d11, [pc, #956]	; 86a0 <_vfprintf_r+0x480>
    82e0:	ed9fabf0 	vldr	d10, [pc, #960]	; 86a8 <_vfprintf_r+0x488>
    82e4:	ee1dba10 	vmov	fp, s26
    82e8:	e28d208c 	add	r2, sp, #140	; 0x8c
    82ec:	e3a03000 	mov	r3, #0
    82f0:	e1a07002 	mov	r7, r2
    82f4:	e58d3088 	str	r3, [sp, #136]	; 0x88
    82f8:	e58d3084 	str	r3, [sp, #132]	; 0x84
    82fc:	e58d303c 	str	r3, [sp, #60]	; 0x3c
    8300:	e58d2080 	str	r2, [sp, #128]	; 0x80
    8304:	e58d304c 	str	r3, [sp, #76]	; 0x4c
    8308:	e58d3050 	str	r3, [sp, #80]	; 0x50
    830c:	e58d3058 	str	r3, [sp, #88]	; 0x58
    8310:	e58d305c 	str	r3, [sp, #92]	; 0x5c
    8314:	e58d3054 	str	r3, [sp, #84]	; 0x54
    8318:	e58d3014 	str	r3, [sp, #20]
    831c:	e5d83000 	ldrb	r3, [r8]
    8320:	e1a05008 	mov	r5, r8
    8324:	e3530025 	cmp	r3, #37	; 0x25
    8328:	13530000 	cmpne	r3, #0
    832c:	0a000015 	beq	8388 <_vfprintf_r+0x168>
    8330:	e1a04005 	mov	r4, r5
    8334:	e5f53001 	ldrb	r3, [r5, #1]!
    8338:	e3530000 	cmp	r3, #0
    833c:	13530025 	cmpne	r3, #37	; 0x25
    8340:	1afffffa 	bne	8330 <_vfprintf_r+0x110>
    8344:	e0556008 	subs	r6, r5, r8
    8348:	0a00000e 	beq	8388 <_vfprintf_r+0x168>
    834c:	e59d3084 	ldr	r3, [sp, #132]	; 0x84
    8350:	e5878000 	str	r8, [r7]
    8354:	e2833001 	add	r3, r3, #1
    8358:	e3530007 	cmp	r3, #7
    835c:	e58d3084 	str	r3, [sp, #132]	; 0x84
    8360:	e59d3088 	ldr	r3, [sp, #136]	; 0x88
    8364:	e5876004 	str	r6, [r7, #4]
    8368:	e0833006 	add	r3, r3, r6
    836c:	d2877008 	addle	r7, r7, #8
    8370:	e58d3088 	str	r3, [sp, #136]	; 0x88
    8374:	ca0000a7 	bgt	8618 <_vfprintf_r+0x3f8>
    8378:	e59d3014 	ldr	r3, [sp, #20]
    837c:	e0833006 	add	r3, r3, r6
    8380:	e58d3014 	str	r3, [sp, #20]
    8384:	e5d43001 	ldrb	r3, [r4, #1]
    8388:	e3530000 	cmp	r3, #0
    838c:	0a0005f0 	beq	9b54 <_vfprintf_r+0x1934>
    8390:	e3a03000 	mov	r3, #0
    8394:	e3e04000 	mvn	r4, #0
    8398:	e1a06003 	mov	r6, r3
    839c:	e2858001 	add	r8, r5, #1
    83a0:	e5cd3063 	strb	r3, [sp, #99]	; 0x63
    83a4:	e58d3010 	str	r3, [sp, #16]
    83a8:	e5d53001 	ldrb	r3, [r5, #1]
    83ac:	e1a05004 	mov	r5, r4
    83b0:	e2888001 	add	r8, r8, #1
    83b4:	e2432020 	sub	r2, r3, #32
    83b8:	e352005a 	cmp	r2, #90	; 0x5a
    83bc:	979ff102 	ldrls	pc, [pc, r2, lsl #2]
    83c0:	ea0000c0 	b	86c8 <_vfprintf_r+0x4a8>
    83c4:	00008b8c 	andeq	r8, r0, ip, lsl #23
    83c8:	000086c8 	andeq	r8, r0, r8, asr #13
    83cc:	000086c8 	andeq	r8, r0, r8, asr #13
    83d0:	00008b80 	andeq	r8, r0, r0, lsl #23
    83d4:	000086c8 	andeq	r8, r0, r8, asr #13
    83d8:	000086c8 	andeq	r8, r0, r8, asr #13
    83dc:	000086c8 	andeq	r8, r0, r8, asr #13
    83e0:	00008558 	andeq	r8, r0, r8, asr r5
    83e4:	000086c8 	andeq	r8, r0, r8, asr #13
    83e8:	000086c8 	andeq	r8, r0, r8, asr #13
    83ec:	00008a18 	andeq	r8, r0, r8, lsl sl
    83f0:	00008b24 	andeq	r8, r0, r4, lsr #22
    83f4:	000086c8 	andeq	r8, r0, r8, asr #13
    83f8:	00008a3c 	andeq	r8, r0, ip, lsr sl
    83fc:	00008b40 	andeq	r8, r0, r0, asr #22
    8400:	000086c8 	andeq	r8, r0, r8, asr #13
    8404:	00008b34 	andeq	r8, r0, r4, lsr fp
    8408:	00008530 	andeq	r8, r0, r0, lsr r5
    840c:	00008530 	andeq	r8, r0, r0, lsr r5
    8410:	00008530 	andeq	r8, r0, r0, lsr r5
    8414:	00008530 	andeq	r8, r0, r0, lsr r5
    8418:	00008530 	andeq	r8, r0, r0, lsr r5
    841c:	00008530 	andeq	r8, r0, r0, lsr r5
    8420:	00008530 	andeq	r8, r0, r0, lsr r5
    8424:	00008530 	andeq	r8, r0, r0, lsr r5
    8428:	00008530 	andeq	r8, r0, r0, lsr r5
    842c:	000086c8 	andeq	r8, r0, r8, asr #13
    8430:	000086c8 	andeq	r8, r0, r8, asr #13
    8434:	000086c8 	andeq	r8, r0, r8, asr #13
    8438:	000086c8 	andeq	r8, r0, r8, asr #13
    843c:	000086c8 	andeq	r8, r0, r8, asr #13
    8440:	000086c8 	andeq	r8, r0, r8, asr #13
    8444:	000086c8 	andeq	r8, r0, r8, asr #13
    8448:	0000886c 	andeq	r8, r0, ip, ror #16
    844c:	000086c8 	andeq	r8, r0, r8, asr #13
    8450:	0000891c 	andeq	r8, r0, ip, lsl r9
    8454:	00008bb4 			; <UNDEFINED> instruction: 0x00008bb4
    8458:	0000886c 	andeq	r8, r0, ip, ror #16
    845c:	0000886c 	andeq	r8, r0, ip, ror #16
    8460:	0000886c 	andeq	r8, r0, ip, ror #16
    8464:	000086c8 	andeq	r8, r0, r8, asr #13
    8468:	000086c8 	andeq	r8, r0, r8, asr #13
    846c:	000086c8 	andeq	r8, r0, r8, asr #13
    8470:	000086c8 	andeq	r8, r0, r8, asr #13
    8474:	00008ba8 	andeq	r8, r0, r8, lsr #23
    8478:	000086c8 	andeq	r8, r0, r8, asr #13
    847c:	000086c8 	andeq	r8, r0, r8, asr #13
    8480:	00008bf4 	strdeq	r8, [r0], -r4
    8484:	000086c8 	andeq	r8, r0, r8, asr #13
    8488:	000086c8 	andeq	r8, r0, r8, asr #13
    848c:	000086c8 	andeq	r8, r0, r8, asr #13
    8490:	00008934 	andeq	r8, r0, r4, lsr r9
    8494:	000086c8 	andeq	r8, r0, r8, asr #13
    8498:	00008a48 	andeq	r8, r0, r8, asr #20
    849c:	000086c8 	andeq	r8, r0, r8, asr #13
    84a0:	000086c8 	andeq	r8, r0, r8, asr #13
    84a4:	000098c0 	andeq	r9, r0, r0, asr #17
    84a8:	000086c8 	andeq	r8, r0, r8, asr #13
    84ac:	000086c8 	andeq	r8, r0, r8, asr #13
    84b0:	000086c8 	andeq	r8, r0, r8, asr #13
    84b4:	000086c8 	andeq	r8, r0, r8, asr #13
    84b8:	000086c8 	andeq	r8, r0, r8, asr #13
    84bc:	000086c8 	andeq	r8, r0, r8, asr #13
    84c0:	000086c8 	andeq	r8, r0, r8, asr #13
    84c4:	000086c8 	andeq	r8, r0, r8, asr #13
    84c8:	0000886c 	andeq	r8, r0, ip, ror #16
    84cc:	000086c8 	andeq	r8, r0, r8, asr #13
    84d0:	0000891c 	andeq	r8, r0, ip, lsl r9
    84d4:	000089b0 			; <UNDEFINED> instruction: 0x000089b0
    84d8:	0000886c 	andeq	r8, r0, ip, ror #16
    84dc:	0000886c 	andeq	r8, r0, ip, ror #16
    84e0:	0000886c 	andeq	r8, r0, ip, ror #16
    84e4:	00008c2c 	andeq	r8, r0, ip, lsr #24
    84e8:	000089b0 			; <UNDEFINED> instruction: 0x000089b0
    84ec:	00008910 	andeq	r8, r0, r0, lsl r9
    84f0:	000086c8 	andeq	r8, r0, r8, asr #13
    84f4:	00008cbc 			; <UNDEFINED> instruction: 0x00008cbc
    84f8:	000086c8 	andeq	r8, r0, r8, asr #13
    84fc:	00008c84 	andeq	r8, r0, r4, lsl #25
    8500:	000098ac 	andeq	r9, r0, ip, lsr #17
    8504:	00008c48 	andeq	r8, r0, r8, asr #24
    8508:	00008910 	andeq	r8, r0, r0, lsl r9
    850c:	000086c8 	andeq	r8, r0, r8, asr #13
    8510:	00008934 	andeq	r8, r0, r4, lsr r9
    8514:	00008594 	muleq	r0, r4, r5
    8518:	000098b4 			; <UNDEFINED> instruction: 0x000098b4
    851c:	000086c8 	andeq	r8, r0, r8, asr #13
    8520:	000086c8 	andeq	r8, r0, r8, asr #13
    8524:	0000984c 	andeq	r9, r0, ip, asr #16
    8528:	000086c8 	andeq	r8, r0, r8, asr #13
    852c:	00008594 	muleq	r0, r4, r5
    8530:	e2432030 	sub	r2, r3, #48	; 0x30
    8534:	e3a01000 	mov	r1, #0
    8538:	e4d83001 	ldrb	r3, [r8], #1
    853c:	e0811101 	add	r1, r1, r1, lsl #2
    8540:	e0821081 	add	r1, r2, r1, lsl #1
    8544:	e2432030 	sub	r2, r3, #48	; 0x30
    8548:	e3520009 	cmp	r2, #9
    854c:	9afffff9 	bls	8538 <_vfprintf_r+0x318>
    8550:	e58d1010 	str	r1, [sp, #16]
    8554:	eaffff96 	b	83b4 <_vfprintf_r+0x194>
    8558:	e1a0000b 	mov	r0, fp
    855c:	eb00118e 	bl	cb9c <_localeconv_r>
    8560:	e5903004 	ldr	r3, [r0, #4]
    8564:	e58d3054 	str	r3, [sp, #84]	; 0x54
    8568:	e1a00003 	mov	r0, r3
    856c:	eb001908 	bl	e994 <strlen>
    8570:	e1a09000 	mov	r9, r0
    8574:	e58d005c 	str	r0, [sp, #92]	; 0x5c
    8578:	e1a0000b 	mov	r0, fp
    857c:	eb001186 	bl	cb9c <_localeconv_r>
    8580:	e5903008 	ldr	r3, [r0, #8]
    8584:	e58d3058 	str	r3, [sp, #88]	; 0x58
    8588:	e3590000 	cmp	r9, #0
    858c:	13530000 	cmpne	r3, #0
    8590:	1a0004a6 	bne	9830 <_vfprintf_r+0x1610>
    8594:	e5d83000 	ldrb	r3, [r8]
    8598:	eaffff84 	b	83b0 <_vfprintf_r+0x190>
    859c:	ee1d0a10 	vmov	r0, s26
    85a0:	e1a0100a 	mov	r1, sl
    85a4:	eb0008f5 	bl	a980 <__swsetup_r>
    85a8:	e3500000 	cmp	r0, #0
    85ac:	1a0007fe 	bne	a5ac <_vfprintf_r+0x238c>
    85b0:	e1da10bc 	ldrh	r1, [sl, #12]
    85b4:	e201301a 	and	r3, r1, #26
    85b8:	e353000a 	cmp	r3, #10
    85bc:	1affff44 	bne	82d4 <_vfprintf_r+0xb4>
    85c0:	e1da30fe 	ldrsh	r3, [sl, #14]
    85c4:	e3530000 	cmp	r3, #0
    85c8:	baffff41 	blt	82d4 <_vfprintf_r+0xb4>
    85cc:	e59a3064 	ldr	r3, [sl, #100]	; 0x64
    85d0:	e3130001 	tst	r3, #1
    85d4:	1a000001 	bne	85e0 <_vfprintf_r+0x3c0>
    85d8:	e3110c02 	tst	r1, #512	; 0x200
    85dc:	0a000657 	beq	9f40 <_vfprintf_r+0x1d20>
    85e0:	ee1d0a10 	vmov	r0, s26
    85e4:	e1a03004 	mov	r3, r4
    85e8:	e1a02008 	mov	r2, r8
    85ec:	e1a0100a 	mov	r1, sl
    85f0:	e28ddf4d 	add	sp, sp, #308	; 0x134
    85f4:	ecbd8b0c 	vpop	{d8-d13}
    85f8:	e8bd4ff0 	pop	{r4, r5, r6, r7, r8, r9, sl, fp, lr}
    85fc:	ea0008ab 	b	a8b0 <__sbprintf>
    8600:	e59a0058 	ldr	r0, [sl, #88]	; 0x58
    8604:	eb00116f 	bl	cbc8 <__retarget_lock_acquire_recursive>
    8608:	e1da20fc 	ldrsh	r2, [sl, #12]
    860c:	e1a01802 	lsl	r1, r2, #16
    8610:	e1a01821 	lsr	r1, r1, #16
    8614:	eaffff1d 	b	8290 <_vfprintf_r+0x70>
    8618:	e28d2080 	add	r2, sp, #128	; 0x80
    861c:	e1a0100a 	mov	r1, sl
    8620:	e1a0000b 	mov	r0, fp
    8624:	eb00194b 	bl	eb58 <__sprint_r>
    8628:	e3500000 	cmp	r0, #0
    862c:	1a00000d 	bne	8668 <_vfprintf_r+0x448>
    8630:	e28d708c 	add	r7, sp, #140	; 0x8c
    8634:	eaffff4f 	b	8378 <_vfprintf_r+0x158>
    8638:	e28d2080 	add	r2, sp, #128	; 0x80
    863c:	e1a0100a 	mov	r1, sl
    8640:	e1a0000b 	mov	r0, fp
    8644:	eb001943 	bl	eb58 <__sprint_r>
    8648:	e3500000 	cmp	r0, #0
    864c:	0a00007c 	beq	8844 <_vfprintf_r+0x624>
    8650:	e59db01c 	ldr	fp, [sp, #28]
    8654:	e35b0000 	cmp	fp, #0
    8658:	0a000002 	beq	8668 <_vfprintf_r+0x448>
    865c:	ee1d0a10 	vmov	r0, s26
    8660:	e1a0100b 	mov	r1, fp
    8664:	eb001056 	bl	c7c4 <_free_r>
    8668:	e59a3064 	ldr	r3, [sl, #100]	; 0x64
    866c:	e3130001 	tst	r3, #1
    8670:	e1da30bc 	ldrh	r3, [sl, #12]
    8674:	0a00009c 	beq	88ec <_vfprintf_r+0x6cc>
    8678:	e3130040 	tst	r3, #64	; 0x40
    867c:	1a0007d2 	bne	a5cc <_vfprintf_r+0x23ac>
    8680:	e59d0014 	ldr	r0, [sp, #20]
    8684:	e28ddf4d 	add	sp, sp, #308	; 0x134
    8688:	ecbd8b0c 	vpop	{d8-d13}
    868c:	e8bd8ff0 	pop	{r4, r5, r6, r7, r8, r9, sl, fp, pc}
	...
    8698:	ffffffff 			; <UNDEFINED> instruction: 0xffffffff
    869c:	7fefffff 	svcvc	0x00efffff
    86a0:	00000000 	andeq	r0, r0, r0
    86a4:	3fc00000 	svccc	0x00c00000
    86a8:	00000000 	andeq	r0, r0, r0
    86ac:	40300000 	eorsmi	r0, r0, r0
    86b0:	00027eb4 			; <UNDEFINED> instruction: 0x00027eb4
    86b4:	00027eb8 			; <UNDEFINED> instruction: 0x00027eb8
    86b8:	00027ec4 	andeq	r7, r2, r4, asr #29
    86bc:	00027ef8 	strdeq	r7, [r2], -r8
    86c0:	00027f08 	andeq	r7, r2, r8, lsl #30
    86c4:	00027ef4 	strdeq	r7, [r2], -r4
    86c8:	e3530000 	cmp	r3, #0
    86cc:	e58d3030 	str	r3, [sp, #48]	; 0x30
    86d0:	0a00051f 	beq	9b54 <_vfprintf_r+0x1934>
    86d4:	e5cd30cc 	strb	r3, [sp, #204]	; 0xcc
    86d8:	e3a01000 	mov	r1, #0
    86dc:	e3a03001 	mov	r3, #1
    86e0:	e58d300c 	str	r3, [sp, #12]
    86e4:	e58d3018 	str	r3, [sp, #24]
    86e8:	e1a04001 	mov	r4, r1
    86ec:	e28d30cc 	add	r3, sp, #204	; 0xcc
    86f0:	e5cd1063 	strb	r1, [sp, #99]	; 0x63
    86f4:	e58d101c 	str	r1, [sp, #28]
    86f8:	e58d1040 	str	r1, [sp, #64]	; 0x40
    86fc:	e58d1038 	str	r1, [sp, #56]	; 0x38
    8700:	e58d1034 	str	r1, [sp, #52]	; 0x34
    8704:	e58d3024 	str	r3, [sp, #36]	; 0x24
    8708:	e2163002 	ands	r3, r6, #2
    870c:	e58d3028 	str	r3, [sp, #40]	; 0x28
    8710:	159d300c 	ldrne	r3, [sp, #12]
    8714:	12833002 	addne	r3, r3, #2
    8718:	158d300c 	strne	r3, [sp, #12]
    871c:	e2163084 	ands	r3, r6, #132	; 0x84
    8720:	e58d302c 	str	r3, [sp, #44]	; 0x2c
    8724:	1a000004 	bne	873c <_vfprintf_r+0x51c>
    8728:	e59d3010 	ldr	r3, [sp, #16]
    872c:	e59d200c 	ldr	r2, [sp, #12]
    8730:	e0435002 	sub	r5, r3, r2
    8734:	e3550000 	cmp	r5, #0
    8738:	ca000264 	bgt	90d0 <_vfprintf_r+0xeb0>
    873c:	e59d2088 	ldr	r2, [sp, #136]	; 0x88
    8740:	e3510000 	cmp	r1, #0
    8744:	0a00000b 	beq	8778 <_vfprintf_r+0x558>
    8748:	e59d1084 	ldr	r1, [sp, #132]	; 0x84
    874c:	e2822001 	add	r2, r2, #1
    8750:	e2811001 	add	r1, r1, #1
    8754:	e3510007 	cmp	r1, #7
    8758:	e58d1084 	str	r1, [sp, #132]	; 0x84
    875c:	e28d1063 	add	r1, sp, #99	; 0x63
    8760:	e5871000 	str	r1, [r7]
    8764:	e3a01001 	mov	r1, #1
    8768:	e5871004 	str	r1, [r7, #4]
    876c:	e58d2088 	str	r2, [sp, #136]	; 0x88
    8770:	d2877008 	addle	r7, r7, #8
    8774:	ca000282 	bgt	9184 <_vfprintf_r+0xf64>
    8778:	e59d3028 	ldr	r3, [sp, #40]	; 0x28
    877c:	e3530000 	cmp	r3, #0
    8780:	0a00000b 	beq	87b4 <_vfprintf_r+0x594>
    8784:	e59d3084 	ldr	r3, [sp, #132]	; 0x84
    8788:	e2822002 	add	r2, r2, #2
    878c:	e2833001 	add	r3, r3, #1
    8790:	e3530007 	cmp	r3, #7
    8794:	e58d3084 	str	r3, [sp, #132]	; 0x84
    8798:	e28d3064 	add	r3, sp, #100	; 0x64
    879c:	e5873000 	str	r3, [r7]
    87a0:	e3a03002 	mov	r3, #2
    87a4:	e5873004 	str	r3, [r7, #4]
    87a8:	e58d2088 	str	r2, [sp, #136]	; 0x88
    87ac:	d2877008 	addle	r7, r7, #8
    87b0:	ca00027c 	bgt	91a8 <_vfprintf_r+0xf88>
    87b4:	e59d302c 	ldr	r3, [sp, #44]	; 0x2c
    87b8:	e3530080 	cmp	r3, #128	; 0x80
    87bc:	0a000185 	beq	8dd8 <_vfprintf_r+0xbb8>
    87c0:	e59d3018 	ldr	r3, [sp, #24]
    87c4:	e0444003 	sub	r4, r4, r3
    87c8:	e3540000 	cmp	r4, #0
    87cc:	ca0001b6 	bgt	8eac <_vfprintf_r+0xc8c>
    87d0:	e3160c01 	tst	r6, #256	; 0x100
    87d4:	1a00013f 	bne	8cd8 <_vfprintf_r+0xab8>
    87d8:	e59d3024 	ldr	r3, [sp, #36]	; 0x24
    87dc:	e5873000 	str	r3, [r7]
    87e0:	e59d3018 	ldr	r3, [sp, #24]
    87e4:	e5873004 	str	r3, [r7, #4]
    87e8:	e0822003 	add	r2, r2, r3
    87ec:	e59d3084 	ldr	r3, [sp, #132]	; 0x84
    87f0:	e58d2088 	str	r2, [sp, #136]	; 0x88
    87f4:	e2833001 	add	r3, r3, #1
    87f8:	e3530007 	cmp	r3, #7
    87fc:	e58d3084 	str	r3, [sp, #132]	; 0x84
    8800:	ca000229 	bgt	90ac <_vfprintf_r+0xe8c>
    8804:	e2877008 	add	r7, r7, #8
    8808:	e3160004 	tst	r6, #4
    880c:	0a000004 	beq	8824 <_vfprintf_r+0x604>
    8810:	e59d3010 	ldr	r3, [sp, #16]
    8814:	e59d100c 	ldr	r1, [sp, #12]
    8818:	e0434001 	sub	r4, r3, r1
    881c:	e3540000 	cmp	r4, #0
    8820:	ca000278 	bgt	9208 <_vfprintf_r+0xfe8>
    8824:	e28d000c 	add	r0, sp, #12
    8828:	e890000b 	ldm	r0, {r0, r1, r3}
    882c:	e1510000 	cmp	r1, r0
    8830:	a0833001 	addge	r3, r3, r1
    8834:	b0833000 	addlt	r3, r3, r0
    8838:	e3520000 	cmp	r2, #0
    883c:	e58d3014 	str	r3, [sp, #20]
    8840:	1affff7c 	bne	8638 <_vfprintf_r+0x418>
    8844:	e59d301c 	ldr	r3, [sp, #28]
    8848:	e3530000 	cmp	r3, #0
    884c:	e3a03000 	mov	r3, #0
    8850:	e58d3084 	str	r3, [sp, #132]	; 0x84
    8854:	0a000002 	beq	8864 <_vfprintf_r+0x644>
    8858:	e59d101c 	ldr	r1, [sp, #28]
    885c:	e1a0000b 	mov	r0, fp
    8860:	eb000fd7 	bl	c7c4 <_free_r>
    8864:	e28d708c 	add	r7, sp, #140	; 0x8c
    8868:	eafffeab 	b	831c <_vfprintf_r+0xfc>
    886c:	e58d3030 	str	r3, [sp, #48]	; 0x30
    8870:	e59d3020 	ldr	r3, [sp, #32]
    8874:	e2833007 	add	r3, r3, #7
    8878:	e3c33007 	bic	r3, r3, #7
    887c:	ecb38b02 	vldmia	r3!, {d8}
    8880:	eeb07bc8 	vabs.f64	d7, d8
    8884:	e58d3020 	str	r3, [sp, #32]
    8888:	eeb47b49 	vcmp.f64	d7, d9
    888c:	eef1fa10 	vmrs	APSR_nzcv, fpscr
    8890:	da000385 	ble	96ac <_vfprintf_r+0x148c>
    8894:	eeb58bc0 	vcmpe.f64	d8, #0.0
    8898:	eef1fa10 	vmrs	APSR_nzcv, fpscr
    889c:	43a0102d 	movmi	r1, #45	; 0x2d
    88a0:	45cd1063 	strbmi	r1, [sp, #99]	; 0x63
    88a4:	55dd1063 	ldrbpl	r1, [sp, #99]	; 0x63
    88a8:	e51f2200 	ldr	r2, [pc, #-512]	; 86b0 <_vfprintf_r+0x490>
    88ac:	e51f3200 	ldr	r3, [pc, #-512]	; 86b4 <_vfprintf_r+0x494>
    88b0:	e3c66080 	bic	r6, r6, #128	; 0x80
    88b4:	e59d0030 	ldr	r0, [sp, #48]	; 0x30
    88b8:	e3500047 	cmp	r0, #71	; 0x47
    88bc:	c1a02003 	movgt	r2, r3
    88c0:	e58d2024 	str	r2, [sp, #36]	; 0x24
    88c4:	e3a03000 	mov	r3, #0
    88c8:	e3a02003 	mov	r2, #3
    88cc:	e1a04003 	mov	r4, r3
    88d0:	e58d301c 	str	r3, [sp, #28]
    88d4:	e58d200c 	str	r2, [sp, #12]
    88d8:	e58d2018 	str	r2, [sp, #24]
    88dc:	e58d3040 	str	r3, [sp, #64]	; 0x40
    88e0:	e58d3038 	str	r3, [sp, #56]	; 0x38
    88e4:	e58d3034 	str	r3, [sp, #52]	; 0x34
    88e8:	ea000087 	b	8b0c <_vfprintf_r+0x8ec>
    88ec:	e3130c02 	tst	r3, #512	; 0x200
    88f0:	1affff60 	bne	8678 <_vfprintf_r+0x458>
    88f4:	e59a0058 	ldr	r0, [sl, #88]	; 0x58
    88f8:	eb0010b8 	bl	cbe0 <__retarget_lock_release_recursive>
    88fc:	e1da30bc 	ldrh	r3, [sl, #12]
    8900:	eaffff5c 	b	8678 <_vfprintf_r+0x458>
    8904:	e1a00005 	mov	r0, r5
    8908:	eb000e9f 	bl	c38c <__sinit>
    890c:	eafffe57 	b	8270 <_vfprintf_r+0x50>
    8910:	e5d83000 	ldrb	r3, [r8]
    8914:	e3866020 	orr	r6, r6, #32
    8918:	eafffea4 	b	83b0 <_vfprintf_r+0x190>
    891c:	e58d3030 	str	r3, [sp, #48]	; 0x30
    8920:	e59d3020 	ldr	r3, [sp, #32]
    8924:	e4932004 	ldr	r2, [r3], #4
    8928:	e5cd20cc 	strb	r2, [sp, #204]	; 0xcc
    892c:	e58d3020 	str	r3, [sp, #32]
    8930:	eaffff68 	b	86d8 <_vfprintf_r+0x4b8>
    8934:	e59d5020 	ldr	r5, [sp, #32]
    8938:	e58d3030 	str	r3, [sp, #48]	; 0x30
    893c:	e4953004 	ldr	r3, [r5], #4
    8940:	e3a09000 	mov	r9, #0
    8944:	e3530000 	cmp	r3, #0
    8948:	e58d3024 	str	r3, [sp, #36]	; 0x24
    894c:	e5cd9063 	strb	r9, [sp, #99]	; 0x63
    8950:	0a0003e7 	beq	98f4 <_vfprintf_r+0x16d4>
    8954:	e3740001 	cmn	r4, #1
    8958:	0a0004b2 	beq	9c28 <_vfprintf_r+0x1a08>
    895c:	e59d0024 	ldr	r0, [sp, #36]	; 0x24
    8960:	e1a02004 	mov	r2, r4
    8964:	e1a01009 	mov	r1, r9
    8968:	eb001311 	bl	d5b4 <memchr>
    896c:	e2503000 	subs	r3, r0, #0
    8970:	e58d301c 	str	r3, [sp, #28]
    8974:	0a0006c4 	beq	a48c <_vfprintf_r+0x226c>
    8978:	e59d301c 	ldr	r3, [sp, #28]
    897c:	e59d2024 	ldr	r2, [sp, #36]	; 0x24
    8980:	e1a04009 	mov	r4, r9
    8984:	e0433002 	sub	r3, r3, r2
    8988:	e58d3018 	str	r3, [sp, #24]
    898c:	e58d5020 	str	r5, [sp, #32]
    8990:	e1c33fc3 	bic	r3, r3, r3, asr #31
    8994:	e5dd1063 	ldrb	r1, [sp, #99]	; 0x63
    8998:	e58d300c 	str	r3, [sp, #12]
    899c:	e58d401c 	str	r4, [sp, #28]
    89a0:	e58d4040 	str	r4, [sp, #64]	; 0x40
    89a4:	e58d4038 	str	r4, [sp, #56]	; 0x38
    89a8:	e58d4034 	str	r4, [sp, #52]	; 0x34
    89ac:	ea000056 	b	8b0c <_vfprintf_r+0x8ec>
    89b0:	e3160020 	tst	r6, #32
    89b4:	e58d3030 	str	r3, [sp, #48]	; 0x30
    89b8:	e59d3020 	ldr	r3, [sp, #32]
    89bc:	0a000081 	beq	8bc8 <_vfprintf_r+0x9a8>
    89c0:	e2832007 	add	r2, r3, #7
    89c4:	e3c22007 	bic	r2, r2, #7
    89c8:	e5923004 	ldr	r3, [r2, #4]
    89cc:	e4925008 	ldr	r5, [r2], #8
    89d0:	e1a09003 	mov	r9, r3
    89d4:	e58d2020 	str	r2, [sp, #32]
    89d8:	e3530000 	cmp	r3, #0
    89dc:	ba0002f8 	blt	95c4 <_vfprintf_r+0x13a4>
    89e0:	e3740001 	cmn	r4, #1
    89e4:	0a00023a 	beq	92d4 <_vfprintf_r+0x10b4>
    89e8:	e1853009 	orr	r3, r5, r9
    89ec:	e3530000 	cmp	r3, #0
    89f0:	03540000 	cmpeq	r4, #0
    89f4:	e3c66080 	bic	r6, r6, #128	; 0x80
    89f8:	13a03001 	movne	r3, #1
    89fc:	03a03000 	moveq	r3, #0
    8a00:	1a000233 	bne	92d4 <_vfprintf_r+0x10b4>
    8a04:	e1a04003 	mov	r4, r3
    8a08:	e58d3018 	str	r3, [sp, #24]
    8a0c:	e28d3e13 	add	r3, sp, #304	; 0x130
    8a10:	e58d3024 	str	r3, [sp, #36]	; 0x24
    8a14:	ea000032 	b	8ae4 <_vfprintf_r+0x8c4>
    8a18:	e59d3020 	ldr	r3, [sp, #32]
    8a1c:	e4932004 	ldr	r2, [r3], #4
    8a20:	e58d2010 	str	r2, [sp, #16]
    8a24:	e3520000 	cmp	r2, #0
    8a28:	aa0002ef 	bge	95ec <_vfprintf_r+0x13cc>
    8a2c:	e59d2010 	ldr	r2, [sp, #16]
    8a30:	e58d3020 	str	r3, [sp, #32]
    8a34:	e2622000 	rsb	r2, r2, #0
    8a38:	e58d2010 	str	r2, [sp, #16]
    8a3c:	e5d83000 	ldrb	r3, [r8]
    8a40:	e3866004 	orr	r6, r6, #4
    8a44:	eafffe59 	b	83b0 <_vfprintf_r+0x190>
    8a48:	e58d3030 	str	r3, [sp, #48]	; 0x30
    8a4c:	e3863010 	orr	r3, r6, #16
    8a50:	e58d300c 	str	r3, [sp, #12]
    8a54:	e59d300c 	ldr	r3, [sp, #12]
    8a58:	e2139020 	ands	r9, r3, #32
    8a5c:	0a0002ca 	beq	958c <_vfprintf_r+0x136c>
    8a60:	e59d3020 	ldr	r3, [sp, #32]
    8a64:	e2833007 	add	r3, r3, #7
    8a68:	e3c33007 	bic	r3, r3, #7
    8a6c:	e5939004 	ldr	r9, [r3, #4]
    8a70:	e4935008 	ldr	r5, [r3], #8
    8a74:	e58d3020 	str	r3, [sp, #32]
    8a78:	e3a03001 	mov	r3, #1
    8a7c:	e3a02000 	mov	r2, #0
    8a80:	e5cd2063 	strb	r2, [sp, #99]	; 0x63
    8a84:	e3740001 	cmn	r4, #1
    8a88:	0a000138 	beq	8f70 <_vfprintf_r+0xd50>
    8a8c:	e1852009 	orr	r2, r5, r9
    8a90:	e59d100c 	ldr	r1, [sp, #12]
    8a94:	e3520000 	cmp	r2, #0
    8a98:	03540000 	cmpeq	r4, #0
    8a9c:	13a02001 	movne	r2, #1
    8aa0:	03a02000 	moveq	r2, #0
    8aa4:	e3c16080 	bic	r6, r1, #128	; 0x80
    8aa8:	1a00012f 	bne	8f6c <_vfprintf_r+0xd4c>
    8aac:	e3530000 	cmp	r3, #0
    8ab0:	1a000202 	bne	92c0 <_vfprintf_r+0x10a0>
    8ab4:	e59d200c 	ldr	r2, [sp, #12]
    8ab8:	e1a04003 	mov	r4, r3
    8abc:	e2122001 	ands	r2, r2, #1
    8ac0:	028d3e13 	addeq	r3, sp, #304	; 0x130
    8ac4:	e58d2018 	str	r2, [sp, #24]
    8ac8:	058d3024 	streq	r3, [sp, #36]	; 0x24
    8acc:	0a000004 	beq	8ae4 <_vfprintf_r+0x8c4>
    8ad0:	e3a03030 	mov	r3, #48	; 0x30
    8ad4:	e5cd312f 	strb	r3, [sp, #303]	; 0x12f
    8ad8:	e28d3f4b 	add	r3, sp, #300	; 0x12c
    8adc:	e2833003 	add	r3, r3, #3
    8ae0:	e58d3024 	str	r3, [sp, #36]	; 0x24
    8ae4:	e59d2018 	ldr	r2, [sp, #24]
    8ae8:	e5dd1063 	ldrb	r1, [sp, #99]	; 0x63
    8aec:	e1540002 	cmp	r4, r2
    8af0:	e3a03000 	mov	r3, #0
    8af4:	a1a02004 	movge	r2, r4
    8af8:	e58d301c 	str	r3, [sp, #28]
    8afc:	e58d200c 	str	r2, [sp, #12]
    8b00:	e58d3040 	str	r3, [sp, #64]	; 0x40
    8b04:	e58d3038 	str	r3, [sp, #56]	; 0x38
    8b08:	e58d3034 	str	r3, [sp, #52]	; 0x34
    8b0c:	e3510000 	cmp	r1, #0
    8b10:	0afffefc 	beq	8708 <_vfprintf_r+0x4e8>
    8b14:	e59d300c 	ldr	r3, [sp, #12]
    8b18:	e2833001 	add	r3, r3, #1
    8b1c:	e58d300c 	str	r3, [sp, #12]
    8b20:	eafffef8 	b	8708 <_vfprintf_r+0x4e8>
    8b24:	e3a0302b 	mov	r3, #43	; 0x2b
    8b28:	e5cd3063 	strb	r3, [sp, #99]	; 0x63
    8b2c:	e5d83000 	ldrb	r3, [r8]
    8b30:	eafffe1e 	b	83b0 <_vfprintf_r+0x190>
    8b34:	e5d83000 	ldrb	r3, [r8]
    8b38:	e3866080 	orr	r6, r6, #128	; 0x80
    8b3c:	eafffe1b 	b	83b0 <_vfprintf_r+0x190>
    8b40:	e1a01008 	mov	r1, r8
    8b44:	e4d13001 	ldrb	r3, [r1], #1
    8b48:	e353002a 	cmp	r3, #42	; 0x2a
    8b4c:	0a00071f 	beq	a7d0 <_vfprintf_r+0x25b0>
    8b50:	e2432030 	sub	r2, r3, #48	; 0x30
    8b54:	e3520009 	cmp	r2, #9
    8b58:	e1a08001 	mov	r8, r1
    8b5c:	e3a04000 	mov	r4, #0
    8b60:	8afffe13 	bhi	83b4 <_vfprintf_r+0x194>
    8b64:	e4d83001 	ldrb	r3, [r8], #1
    8b68:	e0844104 	add	r4, r4, r4, lsl #2
    8b6c:	e0824084 	add	r4, r2, r4, lsl #1
    8b70:	e2432030 	sub	r2, r3, #48	; 0x30
    8b74:	e3520009 	cmp	r2, #9
    8b78:	9afffff9 	bls	8b64 <_vfprintf_r+0x944>
    8b7c:	eafffe0c 	b	83b4 <_vfprintf_r+0x194>
    8b80:	e5d83000 	ldrb	r3, [r8]
    8b84:	e3866001 	orr	r6, r6, #1
    8b88:	eafffe08 	b	83b0 <_vfprintf_r+0x190>
    8b8c:	e5dd3063 	ldrb	r3, [sp, #99]	; 0x63
    8b90:	e3530000 	cmp	r3, #0
    8b94:	1afffe7e 	bne	8594 <_vfprintf_r+0x374>
    8b98:	e3a03020 	mov	r3, #32
    8b9c:	e5cd3063 	strb	r3, [sp, #99]	; 0x63
    8ba0:	e5d83000 	ldrb	r3, [r8]
    8ba4:	eafffe01 	b	83b0 <_vfprintf_r+0x190>
    8ba8:	e5d83000 	ldrb	r3, [r8]
    8bac:	e3866008 	orr	r6, r6, #8
    8bb0:	eafffdfe 	b	83b0 <_vfprintf_r+0x190>
    8bb4:	e3866010 	orr	r6, r6, #16
    8bb8:	e3160020 	tst	r6, #32
    8bbc:	e58d3030 	str	r3, [sp, #48]	; 0x30
    8bc0:	e59d3020 	ldr	r3, [sp, #32]
    8bc4:	1affff7d 	bne	89c0 <_vfprintf_r+0x7a0>
    8bc8:	e3160010 	tst	r6, #16
    8bcc:	e4935004 	ldr	r5, [r3], #4
    8bd0:	1a0002b1 	bne	969c <_vfprintf_r+0x147c>
    8bd4:	e3160040 	tst	r6, #64	; 0x40
    8bd8:	0a0002ad 	beq	9694 <_vfprintf_r+0x1474>
    8bdc:	e1a05805 	lsl	r5, r5, #16
    8be0:	e1a09fc5 	asr	r9, r5, #31
    8be4:	e58d3020 	str	r3, [sp, #32]
    8be8:	e1a05845 	asr	r5, r5, #16
    8bec:	e1a03009 	mov	r3, r9
    8bf0:	eaffff78 	b	89d8 <_vfprintf_r+0x7b8>
    8bf4:	e3866010 	orr	r6, r6, #16
    8bf8:	e58d3030 	str	r3, [sp, #48]	; 0x30
    8bfc:	e2169020 	ands	r9, r6, #32
    8c00:	0a000256 	beq	9560 <_vfprintf_r+0x1340>
    8c04:	e59d3020 	ldr	r3, [sp, #32]
    8c08:	e2833007 	add	r3, r3, #7
    8c0c:	e3c33007 	bic	r3, r3, #7
    8c10:	e5939004 	ldr	r9, [r3, #4]
    8c14:	e4935008 	ldr	r5, [r3], #8
    8c18:	e58d3020 	str	r3, [sp, #32]
    8c1c:	e3c63b01 	bic	r3, r6, #1024	; 0x400
    8c20:	e58d300c 	str	r3, [sp, #12]
    8c24:	e3a03000 	mov	r3, #0
    8c28:	eaffff93 	b	8a7c <_vfprintf_r+0x85c>
    8c2c:	e5d83000 	ldrb	r3, [r8]
    8c30:	e3530068 	cmp	r3, #104	; 0x68
    8c34:	05d83001 	ldrbeq	r3, [r8, #1]
    8c38:	03866c02 	orreq	r6, r6, #512	; 0x200
    8c3c:	02888001 	addeq	r8, r8, #1
    8c40:	13866040 	orrne	r6, r6, #64	; 0x40
    8c44:	eafffdd9 	b	83b0 <_vfprintf_r+0x190>
    8c48:	e59d3020 	ldr	r3, [sp, #32]
    8c4c:	e3862002 	orr	r2, r6, #2
    8c50:	e4935004 	ldr	r5, [r3], #4
    8c54:	e58d3020 	str	r3, [sp, #32]
    8c58:	e3a03078 	mov	r3, #120	; 0x78
    8c5c:	e5cd3065 	strb	r3, [sp, #101]	; 0x65
    8c60:	e58d3030 	str	r3, [sp, #48]	; 0x30
    8c64:	e3a03030 	mov	r3, #48	; 0x30
    8c68:	e5cd3064 	strb	r3, [sp, #100]	; 0x64
    8c6c:	e51f35bc 	ldr	r3, [pc, #-1468]	; 86b8 <_vfprintf_r+0x498>
    8c70:	e58d304c 	str	r3, [sp, #76]	; 0x4c
    8c74:	e3a09000 	mov	r9, #0
    8c78:	e3a03002 	mov	r3, #2
    8c7c:	e58d200c 	str	r2, [sp, #12]
    8c80:	eaffff7d 	b	8a7c <_vfprintf_r+0x85c>
    8c84:	e3160020 	tst	r6, #32
    8c88:	1a0002d7 	bne	97ec <_vfprintf_r+0x15cc>
    8c8c:	e3160010 	tst	r6, #16
    8c90:	1a0003a9 	bne	9b3c <_vfprintf_r+0x191c>
    8c94:	e3160040 	tst	r6, #64	; 0x40
    8c98:	1a0004a2 	bne	9f28 <_vfprintf_r+0x1d08>
    8c9c:	e3160c02 	tst	r6, #512	; 0x200
    8ca0:	0a0003a5 	beq	9b3c <_vfprintf_r+0x191c>
    8ca4:	e59d3020 	ldr	r3, [sp, #32]
    8ca8:	e59d1014 	ldr	r1, [sp, #20]
    8cac:	e4932004 	ldr	r2, [r3], #4
    8cb0:	e58d3020 	str	r3, [sp, #32]
    8cb4:	e5c21000 	strb	r1, [r2]
    8cb8:	eafffd97 	b	831c <_vfprintf_r+0xfc>
    8cbc:	e5d83000 	ldrb	r3, [r8]
    8cc0:	e353006c 	cmp	r3, #108	; 0x6c
    8cc4:	05d83001 	ldrbeq	r3, [r8, #1]
    8cc8:	03866020 	orreq	r6, r6, #32
    8ccc:	02888001 	addeq	r8, r8, #1
    8cd0:	13866010 	orrne	r6, r6, #16
    8cd4:	eafffdb5 	b	83b0 <_vfprintf_r+0x190>
    8cd8:	e59d3030 	ldr	r3, [sp, #48]	; 0x30
    8cdc:	e3530065 	cmp	r3, #101	; 0x65
    8ce0:	da0000be 	ble	8fe0 <_vfprintf_r+0xdc0>
    8ce4:	eeb58b40 	vcmp.f64	d8, #0.0
    8ce8:	eef1fa10 	vmrs	APSR_nzcv, fpscr
    8cec:	1a000185 	bne	9308 <_vfprintf_r+0x10e8>
    8cf0:	e59d3084 	ldr	r3, [sp, #132]	; 0x84
    8cf4:	e2822001 	add	r2, r2, #1
    8cf8:	e2833001 	add	r3, r3, #1
    8cfc:	e3530007 	cmp	r3, #7
    8d00:	e58d3084 	str	r3, [sp, #132]	; 0x84
    8d04:	e51f3648 	ldr	r3, [pc, #-1608]	; 86c4 <_vfprintf_r+0x4a4>
    8d08:	e5873000 	str	r3, [r7]
    8d0c:	e3a03001 	mov	r3, #1
    8d10:	e5873004 	str	r3, [r7, #4]
    8d14:	e58d2088 	str	r2, [sp, #136]	; 0x88
    8d18:	d2877008 	addle	r7, r7, #8
    8d1c:	ca00033a 	bgt	9a0c <_vfprintf_r+0x17ec>
    8d20:	e59d3068 	ldr	r3, [sp, #104]	; 0x68
    8d24:	e59d103c 	ldr	r1, [sp, #60]	; 0x3c
    8d28:	e1530001 	cmp	r3, r1
    8d2c:	aa00022b 	bge	95e0 <_vfprintf_r+0x13c0>
    8d30:	e59d3044 	ldr	r3, [sp, #68]	; 0x44
    8d34:	e59d1048 	ldr	r1, [sp, #72]	; 0x48
    8d38:	e0822003 	add	r2, r2, r3
    8d3c:	e887000a 	stm	r7, {r1, r3}
    8d40:	e59d3084 	ldr	r3, [sp, #132]	; 0x84
    8d44:	e58d2088 	str	r2, [sp, #136]	; 0x88
    8d48:	e2833001 	add	r3, r3, #1
    8d4c:	e3530007 	cmp	r3, #7
    8d50:	d2877008 	addle	r7, r7, #8
    8d54:	e58d3084 	str	r3, [sp, #132]	; 0x84
    8d58:	ca0002dc 	bgt	98d0 <_vfprintf_r+0x16b0>
    8d5c:	e59d303c 	ldr	r3, [sp, #60]	; 0x3c
    8d60:	e2434001 	sub	r4, r3, #1
    8d64:	e3540000 	cmp	r4, #0
    8d68:	dafffea6 	ble	8808 <_vfprintf_r+0x5e8>
    8d6c:	e3540010 	cmp	r4, #16
    8d70:	e59d3084 	ldr	r3, [sp, #132]	; 0x84
    8d74:	da00032d 	ble	9a30 <_vfprintf_r+0x1810>
    8d78:	e3a05010 	mov	r5, #16
    8d7c:	ea000002 	b	8d8c <_vfprintf_r+0xb6c>
    8d80:	e2444010 	sub	r4, r4, #16
    8d84:	e3540010 	cmp	r4, #16
    8d88:	da000328 	ble	9a30 <_vfprintf_r+0x1810>
    8d8c:	e2833001 	add	r3, r3, #1
    8d90:	e51f16d8 	ldr	r1, [pc, #-1752]	; 86c0 <_vfprintf_r+0x4a0>
    8d94:	e2822010 	add	r2, r2, #16
    8d98:	e3530007 	cmp	r3, #7
    8d9c:	e8870022 	stm	r7, {r1, r5}
    8da0:	e58d2088 	str	r2, [sp, #136]	; 0x88
    8da4:	d2877008 	addle	r7, r7, #8
    8da8:	e58d3084 	str	r3, [sp, #132]	; 0x84
    8dac:	dafffff3 	ble	8d80 <_vfprintf_r+0xb60>
    8db0:	e28d2080 	add	r2, sp, #128	; 0x80
    8db4:	e1a0100a 	mov	r1, sl
    8db8:	e1a0000b 	mov	r0, fp
    8dbc:	eb001765 	bl	eb58 <__sprint_r>
    8dc0:	e3500000 	cmp	r0, #0
    8dc4:	1afffe21 	bne	8650 <_vfprintf_r+0x430>
    8dc8:	e59d2088 	ldr	r2, [sp, #136]	; 0x88
    8dcc:	e59d3084 	ldr	r3, [sp, #132]	; 0x84
    8dd0:	e28d708c 	add	r7, sp, #140	; 0x8c
    8dd4:	eaffffe9 	b	8d80 <_vfprintf_r+0xb60>
    8dd8:	e59d3010 	ldr	r3, [sp, #16]
    8ddc:	e59d100c 	ldr	r1, [sp, #12]
    8de0:	e0435001 	sub	r5, r3, r1
    8de4:	e3550000 	cmp	r5, #0
    8de8:	dafffe74 	ble	87c0 <_vfprintf_r+0x5a0>
    8dec:	e3550010 	cmp	r5, #16
    8df0:	e59d3084 	ldr	r3, [sp, #132]	; 0x84
    8df4:	da000019 	ble	8e60 <_vfprintf_r+0xc40>
    8df8:	e3a09010 	mov	r9, #16
    8dfc:	ea000002 	b	8e0c <_vfprintf_r+0xbec>
    8e00:	e2455010 	sub	r5, r5, #16
    8e04:	e3550010 	cmp	r5, #16
    8e08:	da000014 	ble	8e60 <_vfprintf_r+0xc40>
    8e0c:	e2833001 	add	r3, r3, #1
    8e10:	e51f1758 	ldr	r1, [pc, #-1880]	; 86c0 <_vfprintf_r+0x4a0>
    8e14:	e2822010 	add	r2, r2, #16
    8e18:	e3530007 	cmp	r3, #7
    8e1c:	e8870202 	stm	r7, {r1, r9}
    8e20:	e58d2088 	str	r2, [sp, #136]	; 0x88
    8e24:	d2877008 	addle	r7, r7, #8
    8e28:	e58d3084 	str	r3, [sp, #132]	; 0x84
    8e2c:	dafffff3 	ble	8e00 <_vfprintf_r+0xbe0>
    8e30:	e28d2080 	add	r2, sp, #128	; 0x80
    8e34:	e1a0100a 	mov	r1, sl
    8e38:	e1a0000b 	mov	r0, fp
    8e3c:	eb001745 	bl	eb58 <__sprint_r>
    8e40:	e28d708c 	add	r7, sp, #140	; 0x8c
    8e44:	e3500000 	cmp	r0, #0
    8e48:	1afffe00 	bne	8650 <_vfprintf_r+0x430>
    8e4c:	e2455010 	sub	r5, r5, #16
    8e50:	e3550010 	cmp	r5, #16
    8e54:	e59d2088 	ldr	r2, [sp, #136]	; 0x88
    8e58:	e59d3084 	ldr	r3, [sp, #132]	; 0x84
    8e5c:	caffffea 	bgt	8e0c <_vfprintf_r+0xbec>
    8e60:	e2833001 	add	r3, r3, #1
    8e64:	e3530007 	cmp	r3, #7
    8e68:	e0822005 	add	r2, r2, r5
    8e6c:	e58d3084 	str	r3, [sp, #132]	; 0x84
    8e70:	e51f37b8 	ldr	r3, [pc, #-1976]	; 86c0 <_vfprintf_r+0x4a0>
    8e74:	e5875004 	str	r5, [r7, #4]
    8e78:	e5873000 	str	r3, [r7]
    8e7c:	e58d2088 	str	r2, [sp, #136]	; 0x88
    8e80:	d2877008 	addle	r7, r7, #8
    8e84:	dafffe4d 	ble	87c0 <_vfprintf_r+0x5a0>
    8e88:	e28d2080 	add	r2, sp, #128	; 0x80
    8e8c:	e1a0100a 	mov	r1, sl
    8e90:	e1a0000b 	mov	r0, fp
    8e94:	eb00172f 	bl	eb58 <__sprint_r>
    8e98:	e3500000 	cmp	r0, #0
    8e9c:	1afffdeb 	bne	8650 <_vfprintf_r+0x430>
    8ea0:	e59d2088 	ldr	r2, [sp, #136]	; 0x88
    8ea4:	e28d708c 	add	r7, sp, #140	; 0x8c
    8ea8:	eafffe44 	b	87c0 <_vfprintf_r+0x5a0>
    8eac:	e3540010 	cmp	r4, #16
    8eb0:	e59d3084 	ldr	r3, [sp, #132]	; 0x84
    8eb4:	da000019 	ble	8f20 <_vfprintf_r+0xd00>
    8eb8:	e3a05010 	mov	r5, #16
    8ebc:	ea000002 	b	8ecc <_vfprintf_r+0xcac>
    8ec0:	e2444010 	sub	r4, r4, #16
    8ec4:	e3540010 	cmp	r4, #16
    8ec8:	da000014 	ble	8f20 <_vfprintf_r+0xd00>
    8ecc:	e2833001 	add	r3, r3, #1
    8ed0:	e51f1818 	ldr	r1, [pc, #-2072]	; 86c0 <_vfprintf_r+0x4a0>
    8ed4:	e2822010 	add	r2, r2, #16
    8ed8:	e3530007 	cmp	r3, #7
    8edc:	e8870022 	stm	r7, {r1, r5}
    8ee0:	e58d2088 	str	r2, [sp, #136]	; 0x88
    8ee4:	d2877008 	addle	r7, r7, #8
    8ee8:	e58d3084 	str	r3, [sp, #132]	; 0x84
    8eec:	dafffff3 	ble	8ec0 <_vfprintf_r+0xca0>
    8ef0:	e28d2080 	add	r2, sp, #128	; 0x80
    8ef4:	e1a0100a 	mov	r1, sl
    8ef8:	e1a0000b 	mov	r0, fp
    8efc:	eb001715 	bl	eb58 <__sprint_r>
    8f00:	e28d708c 	add	r7, sp, #140	; 0x8c
    8f04:	e3500000 	cmp	r0, #0
    8f08:	1afffdd0 	bne	8650 <_vfprintf_r+0x430>
    8f0c:	e2444010 	sub	r4, r4, #16
    8f10:	e3540010 	cmp	r4, #16
    8f14:	e59d2088 	ldr	r2, [sp, #136]	; 0x88
    8f18:	e59d3084 	ldr	r3, [sp, #132]	; 0x84
    8f1c:	caffffea 	bgt	8ecc <_vfprintf_r+0xcac>
    8f20:	e2833001 	add	r3, r3, #1
    8f24:	e3530007 	cmp	r3, #7
    8f28:	e0822004 	add	r2, r2, r4
    8f2c:	e58d3084 	str	r3, [sp, #132]	; 0x84
    8f30:	e51f3878 	ldr	r3, [pc, #-2168]	; 86c0 <_vfprintf_r+0x4a0>
    8f34:	e5874004 	str	r4, [r7, #4]
    8f38:	e5873000 	str	r3, [r7]
    8f3c:	e58d2088 	str	r2, [sp, #136]	; 0x88
    8f40:	d2877008 	addle	r7, r7, #8
    8f44:	dafffe21 	ble	87d0 <_vfprintf_r+0x5b0>
    8f48:	e28d2080 	add	r2, sp, #128	; 0x80
    8f4c:	e1a0100a 	mov	r1, sl
    8f50:	e1a0000b 	mov	r0, fp
    8f54:	eb0016ff 	bl	eb58 <__sprint_r>
    8f58:	e3500000 	cmp	r0, #0
    8f5c:	1afffdbb 	bne	8650 <_vfprintf_r+0x430>
    8f60:	e59d2088 	ldr	r2, [sp, #136]	; 0x88
    8f64:	e28d708c 	add	r7, sp, #140	; 0x8c
    8f68:	eafffe18 	b	87d0 <_vfprintf_r+0x5b0>
    8f6c:	e58d600c 	str	r6, [sp, #12]
    8f70:	e3530001 	cmp	r3, #1
    8f74:	0a0000d7 	beq	92d8 <_vfprintf_r+0x10b8>
    8f78:	e3530002 	cmp	r3, #2
    8f7c:	e28d3e13 	add	r3, sp, #304	; 0x130
    8f80:	0a000091 	beq	91cc <_vfprintf_r+0xfac>
    8f84:	e1a01003 	mov	r1, r3
    8f88:	e1a021a5 	lsr	r2, r5, #3
    8f8c:	e2053007 	and	r3, r5, #7
    8f90:	e1825e89 	orr	r5, r2, r9, lsl #29
    8f94:	e1a091a9 	lsr	r9, r9, #3
    8f98:	e2833030 	add	r3, r3, #48	; 0x30
    8f9c:	e1952009 	orrs	r2, r5, r9
    8fa0:	e1a02001 	mov	r2, r1
    8fa4:	e5613001 	strb	r3, [r1, #-1]!
    8fa8:	1afffff6 	bne	8f88 <_vfprintf_r+0xd68>
    8fac:	e59d600c 	ldr	r6, [sp, #12]
    8fb0:	e1a00001 	mov	r0, r1
    8fb4:	e58d1024 	str	r1, [sp, #36]	; 0x24
    8fb8:	e1a01006 	mov	r1, r6
    8fbc:	e3530030 	cmp	r3, #48	; 0x30
    8fc0:	03a01000 	moveq	r1, #0
    8fc4:	12011001 	andne	r1, r1, #1
    8fc8:	e3510000 	cmp	r1, #0
    8fcc:	1a00027b 	bne	99c0 <_vfprintf_r+0x17a0>
    8fd0:	e28d3e13 	add	r3, sp, #304	; 0x130
    8fd4:	e0433000 	sub	r3, r3, r0
    8fd8:	e58d3018 	str	r3, [sp, #24]
    8fdc:	eafffec0 	b	8ae4 <_vfprintf_r+0x8c4>
    8fe0:	e59d303c 	ldr	r3, [sp, #60]	; 0x3c
    8fe4:	e3530001 	cmp	r3, #1
    8fe8:	da000127 	ble	948c <_vfprintf_r+0x126c>
    8fec:	e59d3024 	ldr	r3, [sp, #36]	; 0x24
    8ff0:	e5873000 	str	r3, [r7]
    8ff4:	e59d3084 	ldr	r3, [sp, #132]	; 0x84
    8ff8:	e2822001 	add	r2, r2, #1
    8ffc:	e2833001 	add	r3, r3, #1
    9000:	e3530007 	cmp	r3, #7
    9004:	e3a01001 	mov	r1, #1
    9008:	e5871004 	str	r1, [r7, #4]
    900c:	e58d2088 	str	r2, [sp, #136]	; 0x88
    9010:	d2877008 	addle	r7, r7, #8
    9014:	e58d3084 	str	r3, [sp, #132]	; 0x84
    9018:	ca000254 	bgt	9970 <_vfprintf_r+0x1750>
    901c:	e59d1044 	ldr	r1, [sp, #68]	; 0x44
    9020:	e2833001 	add	r3, r3, #1
    9024:	e59d0048 	ldr	r0, [sp, #72]	; 0x48
    9028:	e0812002 	add	r2, r1, r2
    902c:	e3530007 	cmp	r3, #7
    9030:	e8870003 	stm	r7, {r0, r1}
    9034:	e58d2088 	str	r2, [sp, #136]	; 0x88
    9038:	d2877008 	addle	r7, r7, #8
    903c:	e58d3084 	str	r3, [sp, #132]	; 0x84
    9040:	ca000240 	bgt	9948 <_vfprintf_r+0x1728>
    9044:	eeb58b40 	vcmp.f64	d8, #0.0
    9048:	eef1fa10 	vmrs	APSR_nzcv, fpscr
    904c:	0a000125 	beq	94e8 <_vfprintf_r+0x12c8>
    9050:	e59d1024 	ldr	r1, [sp, #36]	; 0x24
    9054:	e2833001 	add	r3, r3, #1
    9058:	e2811001 	add	r1, r1, #1
    905c:	e5871000 	str	r1, [r7]
    9060:	e59d103c 	ldr	r1, [sp, #60]	; 0x3c
    9064:	e3530007 	cmp	r3, #7
    9068:	e2411001 	sub	r1, r1, #1
    906c:	e0822001 	add	r2, r2, r1
    9070:	e58d3084 	str	r3, [sp, #132]	; 0x84
    9074:	e5871004 	str	r1, [r7, #4]
    9078:	e58d2088 	str	r2, [sp, #136]	; 0x88
    907c:	ca00010f 	bgt	94c0 <_vfprintf_r+0x12a0>
    9080:	e2877008 	add	r7, r7, #8
    9084:	e59d1050 	ldr	r1, [sp, #80]	; 0x50
    9088:	e2833001 	add	r3, r3, #1
    908c:	e0812002 	add	r2, r1, r2
    9090:	e3530007 	cmp	r3, #7
    9094:	e58d3084 	str	r3, [sp, #132]	; 0x84
    9098:	e28d3070 	add	r3, sp, #112	; 0x70
    909c:	e5871004 	str	r1, [r7, #4]
    90a0:	e58d2088 	str	r2, [sp, #136]	; 0x88
    90a4:	e5873000 	str	r3, [r7]
    90a8:	dafffdd5 	ble	8804 <_vfprintf_r+0x5e4>
    90ac:	e28d2080 	add	r2, sp, #128	; 0x80
    90b0:	e1a0100a 	mov	r1, sl
    90b4:	e1a0000b 	mov	r0, fp
    90b8:	eb0016a6 	bl	eb58 <__sprint_r>
    90bc:	e3500000 	cmp	r0, #0
    90c0:	1afffd62 	bne	8650 <_vfprintf_r+0x430>
    90c4:	e59d2088 	ldr	r2, [sp, #136]	; 0x88
    90c8:	e28d708c 	add	r7, sp, #140	; 0x8c
    90cc:	eafffdcd 	b	8808 <_vfprintf_r+0x5e8>
    90d0:	e3550010 	cmp	r5, #16
    90d4:	e59d2088 	ldr	r2, [sp, #136]	; 0x88
    90d8:	e59d1084 	ldr	r1, [sp, #132]	; 0x84
    90dc:	e51f9a28 	ldr	r9, [pc, #-2600]	; 86bc <_vfprintf_r+0x49c>
    90e0:	da00001c 	ble	9158 <_vfprintf_r+0xf38>
    90e4:	e3a03010 	mov	r3, #16
    90e8:	e1a00001 	mov	r0, r1
    90ec:	ea000002 	b	90fc <_vfprintf_r+0xedc>
    90f0:	e2455010 	sub	r5, r5, #16
    90f4:	e3550010 	cmp	r5, #16
    90f8:	da000015 	ble	9154 <_vfprintf_r+0xf34>
    90fc:	e2800001 	add	r0, r0, #1
    9100:	e2822010 	add	r2, r2, #16
    9104:	e3500007 	cmp	r0, #7
    9108:	e5879000 	str	r9, [r7]
    910c:	e5873004 	str	r3, [r7, #4]
    9110:	e58d2088 	str	r2, [sp, #136]	; 0x88
    9114:	d2877008 	addle	r7, r7, #8
    9118:	e58d0084 	str	r0, [sp, #132]	; 0x84
    911c:	dafffff3 	ble	90f0 <_vfprintf_r+0xed0>
    9120:	e28d2080 	add	r2, sp, #128	; 0x80
    9124:	e1a0100a 	mov	r1, sl
    9128:	e1a0000b 	mov	r0, fp
    912c:	eb001689 	bl	eb58 <__sprint_r>
    9130:	e28d708c 	add	r7, sp, #140	; 0x8c
    9134:	e3500000 	cmp	r0, #0
    9138:	1afffd44 	bne	8650 <_vfprintf_r+0x430>
    913c:	e2455010 	sub	r5, r5, #16
    9140:	e3550010 	cmp	r5, #16
    9144:	e59d2088 	ldr	r2, [sp, #136]	; 0x88
    9148:	e59d0084 	ldr	r0, [sp, #132]	; 0x84
    914c:	e3a03010 	mov	r3, #16
    9150:	caffffe9 	bgt	90fc <_vfprintf_r+0xedc>
    9154:	e1a01000 	mov	r1, r0
    9158:	e2811001 	add	r1, r1, #1
    915c:	e0852002 	add	r2, r5, r2
    9160:	e3510007 	cmp	r1, #7
    9164:	e5879000 	str	r9, [r7]
    9168:	e5875004 	str	r5, [r7, #4]
    916c:	e58d1084 	str	r1, [sp, #132]	; 0x84
    9170:	e58d2088 	str	r2, [sp, #136]	; 0x88
    9174:	ca000207 	bgt	9998 <_vfprintf_r+0x1778>
    9178:	e5dd1063 	ldrb	r1, [sp, #99]	; 0x63
    917c:	e2877008 	add	r7, r7, #8
    9180:	eafffd6e 	b	8740 <_vfprintf_r+0x520>
    9184:	e28d2080 	add	r2, sp, #128	; 0x80
    9188:	e1a0100a 	mov	r1, sl
    918c:	e1a0000b 	mov	r0, fp
    9190:	eb001670 	bl	eb58 <__sprint_r>
    9194:	e3500000 	cmp	r0, #0
    9198:	1afffd2c 	bne	8650 <_vfprintf_r+0x430>
    919c:	e59d2088 	ldr	r2, [sp, #136]	; 0x88
    91a0:	e28d708c 	add	r7, sp, #140	; 0x8c
    91a4:	eafffd73 	b	8778 <_vfprintf_r+0x558>
    91a8:	e28d2080 	add	r2, sp, #128	; 0x80
    91ac:	e1a0100a 	mov	r1, sl
    91b0:	e1a0000b 	mov	r0, fp
    91b4:	eb001667 	bl	eb58 <__sprint_r>
    91b8:	e3500000 	cmp	r0, #0
    91bc:	1afffd23 	bne	8650 <_vfprintf_r+0x430>
    91c0:	e59d2088 	ldr	r2, [sp, #136]	; 0x88
    91c4:	e28d708c 	add	r7, sp, #140	; 0x8c
    91c8:	eafffd79 	b	87b4 <_vfprintf_r+0x594>
    91cc:	e59d004c 	ldr	r0, [sp, #76]	; 0x4c
    91d0:	e205200f 	and	r2, r5, #15
    91d4:	e1a01225 	lsr	r1, r5, #4
    91d8:	e7d02002 	ldrb	r2, [r0, r2]
    91dc:	e1815e09 	orr	r5, r1, r9, lsl #28
    91e0:	e1a09229 	lsr	r9, r9, #4
    91e4:	e5632001 	strb	r2, [r3, #-1]!
    91e8:	e1952009 	orrs	r2, r5, r9
    91ec:	1afffff7 	bne	91d0 <_vfprintf_r+0xfb0>
    91f0:	e28d2e13 	add	r2, sp, #304	; 0x130
    91f4:	e58d3024 	str	r3, [sp, #36]	; 0x24
    91f8:	e0423003 	sub	r3, r2, r3
    91fc:	e59d600c 	ldr	r6, [sp, #12]
    9200:	e58d3018 	str	r3, [sp, #24]
    9204:	eafffe36 	b	8ae4 <_vfprintf_r+0x8c4>
    9208:	e3540010 	cmp	r4, #16
    920c:	e59d3084 	ldr	r3, [sp, #132]	; 0x84
    9210:	e51f9b5c 	ldr	r9, [pc, #-2908]	; 86bc <_vfprintf_r+0x49c>
    9214:	da000019 	ble	9280 <_vfprintf_r+0x1060>
    9218:	e3a05010 	mov	r5, #16
    921c:	ea000002 	b	922c <_vfprintf_r+0x100c>
    9220:	e2444010 	sub	r4, r4, #16
    9224:	e3540010 	cmp	r4, #16
    9228:	da000014 	ble	9280 <_vfprintf_r+0x1060>
    922c:	e2833001 	add	r3, r3, #1
    9230:	e2822010 	add	r2, r2, #16
    9234:	e3530007 	cmp	r3, #7
    9238:	e5879000 	str	r9, [r7]
    923c:	e5875004 	str	r5, [r7, #4]
    9240:	e58d2088 	str	r2, [sp, #136]	; 0x88
    9244:	d2877008 	addle	r7, r7, #8
    9248:	e58d3084 	str	r3, [sp, #132]	; 0x84
    924c:	dafffff3 	ble	9220 <_vfprintf_r+0x1000>
    9250:	e28d2080 	add	r2, sp, #128	; 0x80
    9254:	e1a0100a 	mov	r1, sl
    9258:	e1a0000b 	mov	r0, fp
    925c:	eb00163d 	bl	eb58 <__sprint_r>
    9260:	e28d708c 	add	r7, sp, #140	; 0x8c
    9264:	e3500000 	cmp	r0, #0
    9268:	1afffcf8 	bne	8650 <_vfprintf_r+0x430>
    926c:	e2444010 	sub	r4, r4, #16
    9270:	e3540010 	cmp	r4, #16
    9274:	e59d2088 	ldr	r2, [sp, #136]	; 0x88
    9278:	e59d3084 	ldr	r3, [sp, #132]	; 0x84
    927c:	caffffea 	bgt	922c <_vfprintf_r+0x100c>
    9280:	e2833001 	add	r3, r3, #1
    9284:	e0822004 	add	r2, r2, r4
    9288:	e3530007 	cmp	r3, #7
    928c:	e5879000 	str	r9, [r7]
    9290:	e5874004 	str	r4, [r7, #4]
    9294:	e58d3084 	str	r3, [sp, #132]	; 0x84
    9298:	e58d2088 	str	r2, [sp, #136]	; 0x88
    929c:	dafffd60 	ble	8824 <_vfprintf_r+0x604>
    92a0:	e28d2080 	add	r2, sp, #128	; 0x80
    92a4:	e1a0100a 	mov	r1, sl
    92a8:	e1a0000b 	mov	r0, fp
    92ac:	eb001629 	bl	eb58 <__sprint_r>
    92b0:	e3500000 	cmp	r0, #0
    92b4:	1afffce5 	bne	8650 <_vfprintf_r+0x430>
    92b8:	e59d2088 	ldr	r2, [sp, #136]	; 0x88
    92bc:	eafffd58 	b	8824 <_vfprintf_r+0x604>
    92c0:	e28d3e13 	add	r3, sp, #304	; 0x130
    92c4:	e1a04002 	mov	r4, r2
    92c8:	e58d2018 	str	r2, [sp, #24]
    92cc:	e58d3024 	str	r3, [sp, #36]	; 0x24
    92d0:	eafffe03 	b	8ae4 <_vfprintf_r+0x8c4>
    92d4:	e58d600c 	str	r6, [sp, #12]
    92d8:	e355000a 	cmp	r5, #10
    92dc:	e2d93000 	sbcs	r3, r9, #0
    92e0:	2a0001dc 	bcs	9a58 <_vfprintf_r+0x1838>
    92e4:	e3a03001 	mov	r3, #1
    92e8:	e58d3018 	str	r3, [sp, #24]
    92ec:	e28d3f4b 	add	r3, sp, #300	; 0x12c
    92f0:	e2855030 	add	r5, r5, #48	; 0x30
    92f4:	e2833003 	add	r3, r3, #3
    92f8:	e59d600c 	ldr	r6, [sp, #12]
    92fc:	e5cd512f 	strb	r5, [sp, #303]	; 0x12f
    9300:	e58d3024 	str	r3, [sp, #36]	; 0x24
    9304:	eafffdf6 	b	8ae4 <_vfprintf_r+0x8c4>
    9308:	e59d4068 	ldr	r4, [sp, #104]	; 0x68
    930c:	e3540000 	cmp	r4, #0
    9310:	da0000b8 	ble	95f8 <_vfprintf_r+0x13d8>
    9314:	e59d3034 	ldr	r3, [sp, #52]	; 0x34
    9318:	e59d103c 	ldr	r1, [sp, #60]	; 0x3c
    931c:	e1530001 	cmp	r3, r1
    9320:	b1a05003 	movlt	r5, r3
    9324:	a1a05001 	movge	r5, r1
    9328:	e3550000 	cmp	r5, #0
    932c:	da000009 	ble	9358 <_vfprintf_r+0x1138>
    9330:	e59d3024 	ldr	r3, [sp, #36]	; 0x24
    9334:	e0822005 	add	r2, r2, r5
    9338:	e8870028 	stm	r7, {r3, r5}
    933c:	e59d3084 	ldr	r3, [sp, #132]	; 0x84
    9340:	e58d2088 	str	r2, [sp, #136]	; 0x88
    9344:	e2833001 	add	r3, r3, #1
    9348:	e3530007 	cmp	r3, #7
    934c:	d2877008 	addle	r7, r7, #8
    9350:	e58d3084 	str	r3, [sp, #132]	; 0x84
    9354:	ca0003f0 	bgt	a31c <_vfprintf_r+0x20fc>
    9358:	e59d4034 	ldr	r4, [sp, #52]	; 0x34
    935c:	e3550000 	cmp	r5, #0
    9360:	a0444005 	subge	r4, r4, r5
    9364:	e3540000 	cmp	r4, #0
    9368:	ca000209 	bgt	9b94 <_vfprintf_r+0x1974>
    936c:	e59d3024 	ldr	r3, [sp, #36]	; 0x24
    9370:	e59d1034 	ldr	r1, [sp, #52]	; 0x34
    9374:	e3160b01 	tst	r6, #1024	; 0x400
    9378:	e0839001 	add	r9, r3, r1
    937c:	1a00035e 	bne	a0fc <_vfprintf_r+0x1edc>
    9380:	e59d4068 	ldr	r4, [sp, #104]	; 0x68
    9384:	e59d303c 	ldr	r3, [sp, #60]	; 0x3c
    9388:	e1540003 	cmp	r4, r3
    938c:	ba000001 	blt	9398 <_vfprintf_r+0x1178>
    9390:	e3160001 	tst	r6, #1
    9394:	0a0002d5 	beq	9ef0 <_vfprintf_r+0x1cd0>
    9398:	e59d3044 	ldr	r3, [sp, #68]	; 0x44
    939c:	e59d1048 	ldr	r1, [sp, #72]	; 0x48
    93a0:	e0822003 	add	r2, r2, r3
    93a4:	e887000a 	stm	r7, {r1, r3}
    93a8:	e59d3084 	ldr	r3, [sp, #132]	; 0x84
    93ac:	e58d2088 	str	r2, [sp, #136]	; 0x88
    93b0:	e2833001 	add	r3, r3, #1
    93b4:	e3530007 	cmp	r3, #7
    93b8:	d2877008 	addle	r7, r7, #8
    93bc:	e58d3084 	str	r3, [sp, #132]	; 0x84
    93c0:	ca0003e9 	bgt	a36c <_vfprintf_r+0x214c>
    93c4:	e59d303c 	ldr	r3, [sp, #60]	; 0x3c
    93c8:	e59d1024 	ldr	r1, [sp, #36]	; 0x24
    93cc:	e0434004 	sub	r4, r3, r4
    93d0:	e0815003 	add	r5, r1, r3
    93d4:	e0455009 	sub	r5, r5, r9
    93d8:	e1540005 	cmp	r4, r5
    93dc:	b1a05004 	movlt	r5, r4
    93e0:	e3550000 	cmp	r5, #0
    93e4:	da000009 	ble	9410 <_vfprintf_r+0x11f0>
    93e8:	e59d3084 	ldr	r3, [sp, #132]	; 0x84
    93ec:	e0822005 	add	r2, r2, r5
    93f0:	e2833001 	add	r3, r3, #1
    93f4:	e3530007 	cmp	r3, #7
    93f8:	e5879000 	str	r9, [r7]
    93fc:	e5875004 	str	r5, [r7, #4]
    9400:	e58d2088 	str	r2, [sp, #136]	; 0x88
    9404:	d2877008 	addle	r7, r7, #8
    9408:	e58d3084 	str	r3, [sp, #132]	; 0x84
    940c:	ca000438 	bgt	a4f4 <_vfprintf_r+0x22d4>
    9410:	e3550000 	cmp	r5, #0
    9414:	a0444005 	subge	r4, r4, r5
    9418:	e3540000 	cmp	r4, #0
    941c:	dafffcf9 	ble	8808 <_vfprintf_r+0x5e8>
    9420:	e3540010 	cmp	r4, #16
    9424:	e59d3084 	ldr	r3, [sp, #132]	; 0x84
    9428:	da000180 	ble	9a30 <_vfprintf_r+0x1810>
    942c:	e3a05010 	mov	r5, #16
    9430:	ea000002 	b	9440 <_vfprintf_r+0x1220>
    9434:	e2444010 	sub	r4, r4, #16
    9438:	e3540010 	cmp	r4, #16
    943c:	da00017b 	ble	9a30 <_vfprintf_r+0x1810>
    9440:	e2833001 	add	r3, r3, #1
    9444:	e51f1d8c 	ldr	r1, [pc, #-3468]	; 86c0 <_vfprintf_r+0x4a0>
    9448:	e2822010 	add	r2, r2, #16
    944c:	e3530007 	cmp	r3, #7
    9450:	e8870022 	stm	r7, {r1, r5}
    9454:	e58d2088 	str	r2, [sp, #136]	; 0x88
    9458:	d2877008 	addle	r7, r7, #8
    945c:	e58d3084 	str	r3, [sp, #132]	; 0x84
    9460:	dafffff3 	ble	9434 <_vfprintf_r+0x1214>
    9464:	e28d2080 	add	r2, sp, #128	; 0x80
    9468:	e1a0100a 	mov	r1, sl
    946c:	e1a0000b 	mov	r0, fp
    9470:	eb0015b8 	bl	eb58 <__sprint_r>
    9474:	e3500000 	cmp	r0, #0
    9478:	1afffc74 	bne	8650 <_vfprintf_r+0x430>
    947c:	e59d2088 	ldr	r2, [sp, #136]	; 0x88
    9480:	e59d3084 	ldr	r3, [sp, #132]	; 0x84
    9484:	e28d708c 	add	r7, sp, #140	; 0x8c
    9488:	eaffffe9 	b	9434 <_vfprintf_r+0x1214>
    948c:	e3160001 	tst	r6, #1
    9490:	1afffed5 	bne	8fec <_vfprintf_r+0xdcc>
    9494:	e59d3024 	ldr	r3, [sp, #36]	; 0x24
    9498:	e5873000 	str	r3, [r7]
    949c:	e59d3084 	ldr	r3, [sp, #132]	; 0x84
    94a0:	e2822001 	add	r2, r2, #1
    94a4:	e2833001 	add	r3, r3, #1
    94a8:	e3a01001 	mov	r1, #1
    94ac:	e3530007 	cmp	r3, #7
    94b0:	e58d2088 	str	r2, [sp, #136]	; 0x88
    94b4:	e58d3084 	str	r3, [sp, #132]	; 0x84
    94b8:	e5871004 	str	r1, [r7, #4]
    94bc:	dafffeef 	ble	9080 <_vfprintf_r+0xe60>
    94c0:	e28d2080 	add	r2, sp, #128	; 0x80
    94c4:	e1a0100a 	mov	r1, sl
    94c8:	e1a0000b 	mov	r0, fp
    94cc:	eb0015a1 	bl	eb58 <__sprint_r>
    94d0:	e3500000 	cmp	r0, #0
    94d4:	1afffc5d 	bne	8650 <_vfprintf_r+0x430>
    94d8:	e59d2088 	ldr	r2, [sp, #136]	; 0x88
    94dc:	e59d3084 	ldr	r3, [sp, #132]	; 0x84
    94e0:	e28d708c 	add	r7, sp, #140	; 0x8c
    94e4:	eafffee6 	b	9084 <_vfprintf_r+0xe64>
    94e8:	e59d103c 	ldr	r1, [sp, #60]	; 0x3c
    94ec:	e2414001 	sub	r4, r1, #1
    94f0:	e3540000 	cmp	r4, #0
    94f4:	dafffee2 	ble	9084 <_vfprintf_r+0xe64>
    94f8:	e3540010 	cmp	r4, #16
    94fc:	da0001bf 	ble	9c00 <_vfprintf_r+0x19e0>
    9500:	e3a05010 	mov	r5, #16
    9504:	ea000002 	b	9514 <_vfprintf_r+0x12f4>
    9508:	e2444010 	sub	r4, r4, #16
    950c:	e3540010 	cmp	r4, #16
    9510:	da0001ba 	ble	9c00 <_vfprintf_r+0x19e0>
    9514:	e2833001 	add	r3, r3, #1
    9518:	e51f1e60 	ldr	r1, [pc, #-3680]	; 86c0 <_vfprintf_r+0x4a0>
    951c:	e2822010 	add	r2, r2, #16
    9520:	e3530007 	cmp	r3, #7
    9524:	e8870022 	stm	r7, {r1, r5}
    9528:	e58d2088 	str	r2, [sp, #136]	; 0x88
    952c:	d2877008 	addle	r7, r7, #8
    9530:	e58d3084 	str	r3, [sp, #132]	; 0x84
    9534:	dafffff3 	ble	9508 <_vfprintf_r+0x12e8>
    9538:	e28d2080 	add	r2, sp, #128	; 0x80
    953c:	e1a0100a 	mov	r1, sl
    9540:	e1a0000b 	mov	r0, fp
    9544:	eb001583 	bl	eb58 <__sprint_r>
    9548:	e3500000 	cmp	r0, #0
    954c:	1afffc3f 	bne	8650 <_vfprintf_r+0x430>
    9550:	e59d2088 	ldr	r2, [sp, #136]	; 0x88
    9554:	e59d3084 	ldr	r3, [sp, #132]	; 0x84
    9558:	e28d708c 	add	r7, sp, #140	; 0x8c
    955c:	eaffffe9 	b	9508 <_vfprintf_r+0x12e8>
    9560:	e2163010 	ands	r3, r6, #16
    9564:	1a0000ad 	bne	9820 <_vfprintf_r+0x1600>
    9568:	e2162040 	ands	r2, r6, #64	; 0x40
    956c:	0a0001b4 	beq	9c44 <_vfprintf_r+0x1a24>
    9570:	e59d2020 	ldr	r2, [sp, #32]
    9574:	e1a09003 	mov	r9, r3
    9578:	e4925004 	ldr	r5, [r2], #4
    957c:	e58d2020 	str	r2, [sp, #32]
    9580:	e1a05805 	lsl	r5, r5, #16
    9584:	e1a05825 	lsr	r5, r5, #16
    9588:	eafffda3 	b	8c1c <_vfprintf_r+0x9fc>
    958c:	e59d300c 	ldr	r3, [sp, #12]
    9590:	e2133010 	ands	r3, r3, #16
    9594:	1a00009c 	bne	980c <_vfprintf_r+0x15ec>
    9598:	e59d200c 	ldr	r2, [sp, #12]
    959c:	e2122040 	ands	r2, r2, #64	; 0x40
    95a0:	0a0001af 	beq	9c64 <_vfprintf_r+0x1a44>
    95a4:	e59d2020 	ldr	r2, [sp, #32]
    95a8:	e1a09003 	mov	r9, r3
    95ac:	e4925004 	ldr	r5, [r2], #4
    95b0:	e3a03001 	mov	r3, #1
    95b4:	e1a05805 	lsl	r5, r5, #16
    95b8:	e1a05825 	lsr	r5, r5, #16
    95bc:	e58d2020 	str	r2, [sp, #32]
    95c0:	eafffd2d 	b	8a7c <_vfprintf_r+0x85c>
    95c4:	e3a0302d 	mov	r3, #45	; 0x2d
    95c8:	e2755000 	rsbs	r5, r5, #0
    95cc:	e5cd3063 	strb	r3, [sp, #99]	; 0x63
    95d0:	e2e99000 	rsc	r9, r9, #0
    95d4:	e3a03001 	mov	r3, #1
    95d8:	e58d600c 	str	r6, [sp, #12]
    95dc:	eafffd28 	b	8a84 <_vfprintf_r+0x864>
    95e0:	e3160001 	tst	r6, #1
    95e4:	0afffc87 	beq	8808 <_vfprintf_r+0x5e8>
    95e8:	eafffdd0 	b	8d30 <_vfprintf_r+0xb10>
    95ec:	e58d3020 	str	r3, [sp, #32]
    95f0:	e5d83000 	ldrb	r3, [r8]
    95f4:	eafffb6d 	b	83b0 <_vfprintf_r+0x190>
    95f8:	e59d3084 	ldr	r3, [sp, #132]	; 0x84
    95fc:	e2822001 	add	r2, r2, #1
    9600:	e2833001 	add	r3, r3, #1
    9604:	e3530007 	cmp	r3, #7
    9608:	e58d3084 	str	r3, [sp, #132]	; 0x84
    960c:	e51f3f50 	ldr	r3, [pc, #-3920]	; 86c4 <_vfprintf_r+0x4a4>
    9610:	e5873000 	str	r3, [r7]
    9614:	e3a03001 	mov	r3, #1
    9618:	e5873004 	str	r3, [r7, #4]
    961c:	e58d2088 	str	r2, [sp, #136]	; 0x88
    9620:	d2877008 	addle	r7, r7, #8
    9624:	ca000332 	bgt	a2f4 <_vfprintf_r+0x20d4>
    9628:	e59d303c 	ldr	r3, [sp, #60]	; 0x3c
    962c:	e1933004 	orrs	r3, r3, r4
    9630:	0a000357 	beq	a394 <_vfprintf_r+0x2174>
    9634:	e59d3044 	ldr	r3, [sp, #68]	; 0x44
    9638:	e59d1048 	ldr	r1, [sp, #72]	; 0x48
    963c:	e0832002 	add	r2, r3, r2
    9640:	e887000a 	stm	r7, {r1, r3}
    9644:	e59d3084 	ldr	r3, [sp, #132]	; 0x84
    9648:	e58d2088 	str	r2, [sp, #136]	; 0x88
    964c:	e2833001 	add	r3, r3, #1
    9650:	e3530007 	cmp	r3, #7
    9654:	d2877008 	addle	r7, r7, #8
    9658:	e58d3084 	str	r3, [sp, #132]	; 0x84
    965c:	ca000337 	bgt	a340 <_vfprintf_r+0x2120>
    9660:	e3540000 	cmp	r4, #0
    9664:	ba0003b5 	blt	a540 <_vfprintf_r+0x2320>
    9668:	e59d1024 	ldr	r1, [sp, #36]	; 0x24
    966c:	e5871000 	str	r1, [r7]
    9670:	e59d103c 	ldr	r1, [sp, #60]	; 0x3c
    9674:	e2833001 	add	r3, r3, #1
    9678:	e0812002 	add	r2, r1, r2
    967c:	e3530007 	cmp	r3, #7
    9680:	e58d3084 	str	r3, [sp, #132]	; 0x84
    9684:	e5871004 	str	r1, [r7, #4]
    9688:	e58d2088 	str	r2, [sp, #136]	; 0x88
    968c:	dafffc5c 	ble	8804 <_vfprintf_r+0x5e4>
    9690:	eafffe85 	b	90ac <_vfprintf_r+0xe8c>
    9694:	e3160c02 	tst	r6, #512	; 0x200
    9698:	1a00021c 	bne	9f10 <_vfprintf_r+0x1cf0>
    969c:	e1a09fc5 	asr	r9, r5, #31
    96a0:	e58d3020 	str	r3, [sp, #32]
    96a4:	e1a03009 	mov	r3, r9
    96a8:	eafffcca 	b	89d8 <_vfprintf_r+0x7b8>
    96ac:	eeb48b48 	vcmp.f64	d8, d8
    96b0:	eef1fa10 	vmrs	APSR_nzcv, fpscr
    96b4:	6a00042d 	bvs	a770 <_vfprintf_r+0x2550>
    96b8:	e59d3030 	ldr	r3, [sp, #48]	; 0x30
    96bc:	e3c35020 	bic	r5, r3, #32
    96c0:	e3550041 	cmp	r5, #65	; 0x41
    96c4:	1a000178 	bne	9cac <_vfprintf_r+0x1a8c>
    96c8:	e3530061 	cmp	r3, #97	; 0x61
    96cc:	03a03078 	moveq	r3, #120	; 0x78
    96d0:	13a03058 	movne	r3, #88	; 0x58
    96d4:	e5cd3065 	strb	r3, [sp, #101]	; 0x65
    96d8:	e3540063 	cmp	r4, #99	; 0x63
    96dc:	e3a03030 	mov	r3, #48	; 0x30
    96e0:	e5cd3064 	strb	r3, [sp, #100]	; 0x64
    96e4:	ca00024b 	bgt	a018 <_vfprintf_r+0x1df8>
    96e8:	e3a03000 	mov	r3, #0
    96ec:	e58d301c 	str	r3, [sp, #28]
    96f0:	e28d30cc 	add	r3, sp, #204	; 0xcc
    96f4:	e58d3024 	str	r3, [sp, #36]	; 0x24
    96f8:	ee183a90 	vmov	r3, s17
    96fc:	e3530000 	cmp	r3, #0
    9700:	aeb00b48 	vmovge.f64	d0, d8
    9704:	a3a09000 	movge	r9, #0
    9708:	beb10b48 	vneglt.f64	d0, d8
    970c:	b3a0902d 	movlt	r9, #45	; 0x2d
    9710:	e28d0068 	add	r0, sp, #104	; 0x68
    9714:	eb001435 	bl	e7f0 <frexp>
    9718:	e59d2030 	ldr	r2, [sp, #48]	; 0x30
    971c:	e59f0454 	ldr	r0, [pc, #1108]	; 9b78 <_vfprintf_r+0x1958>
    9720:	e2444001 	sub	r4, r4, #1
    9724:	ee200b0b 	vmul.f64	d0, d0, d11
    9728:	eeb50b40 	vcmp.f64	d0, #0.0
    972c:	eef1fa10 	vmrs	APSR_nzcv, fpscr
    9730:	03a03001 	moveq	r3, #1
    9734:	058d3068 	streq	r3, [sp, #104]	; 0x68
    9738:	e59f343c 	ldr	r3, [pc, #1084]	; 9b7c <_vfprintf_r+0x195c>
    973c:	e3520061 	cmp	r2, #97	; 0x61
    9740:	11a00003 	movne	r0, r3
    9744:	e59d3024 	ldr	r3, [sp, #36]	; 0x24
    9748:	ea000002 	b	9758 <_vfprintf_r+0x1538>
    974c:	eeb50b40 	vcmp.f64	d0, #0.0
    9750:	eef1fa10 	vmrs	APSR_nzcv, fpscr
    9754:	0a00000b 	beq	9788 <_vfprintf_r+0x1568>
    9758:	ee200b0a 	vmul.f64	d0, d0, d10
    975c:	e3740001 	cmn	r4, #1
    9760:	e1a0c003 	mov	ip, r3
    9764:	e1a02004 	mov	r2, r4
    9768:	e2444001 	sub	r4, r4, #1
    976c:	eefd7bc0 	vcvt.s32.f64	s15, d0
    9770:	eeb86be7 	vcvt.f64.s32	d6, s15
    9774:	ee171a90 	vmov	r1, s15
    9778:	e7d01001 	ldrb	r1, [r0, r1]
    977c:	e4c31001 	strb	r1, [r3], #1
    9780:	ee300b46 	vsub.f64	d0, d0, d6
    9784:	1afffff0 	bne	974c <_vfprintf_r+0x152c>
    9788:	ed9f6bf8 	vldr	d6, [pc, #992]	; 9b70 <_vfprintf_r+0x1950>
    978c:	eeb40bc6 	vcmpe.f64	d0, d6
    9790:	eef1fa10 	vmrs	APSR_nzcv, fpscr
    9794:	ca0003e1 	bgt	a720 <_vfprintf_r+0x2500>
    9798:	eeb40b46 	vcmp.f64	d0, d6
    979c:	eef1fa10 	vmrs	APSR_nzcv, fpscr
    97a0:	1a000002 	bne	97b0 <_vfprintf_r+0x1590>
    97a4:	ee171a90 	vmov	r1, s15
    97a8:	e3110001 	tst	r1, #1
    97ac:	1a0003db 	bne	a720 <_vfprintf_r+0x2500>
    97b0:	e3520000 	cmp	r2, #0
    97b4:	a2822001 	addge	r2, r2, #1
    97b8:	a0832002 	addge	r2, r3, r2
    97bc:	a3a01030 	movge	r1, #48	; 0x30
    97c0:	ba000002 	blt	97d0 <_vfprintf_r+0x15b0>
    97c4:	e4c31001 	strb	r1, [r3], #1
    97c8:	e1520003 	cmp	r2, r3
    97cc:	1afffffc 	bne	97c4 <_vfprintf_r+0x15a4>
    97d0:	e59d2024 	ldr	r2, [sp, #36]	; 0x24
    97d4:	e3866002 	orr	r6, r6, #2
    97d8:	e0433002 	sub	r3, r3, r2
    97dc:	e58d303c 	str	r3, [sp, #60]	; 0x3c
    97e0:	e59d3068 	ldr	r3, [sp, #104]	; 0x68
    97e4:	e58d3034 	str	r3, [sp, #52]	; 0x34
    97e8:	ea000162 	b	9d78 <_vfprintf_r+0x1b58>
    97ec:	e59d3020 	ldr	r3, [sp, #32]
    97f0:	e4932004 	ldr	r2, [r3], #4
    97f4:	e58d3020 	str	r3, [sp, #32]
    97f8:	e59d3014 	ldr	r3, [sp, #20]
    97fc:	e5823000 	str	r3, [r2]
    9800:	e1a03fc3 	asr	r3, r3, #31
    9804:	e5823004 	str	r3, [r2, #4]
    9808:	eafffac3 	b	831c <_vfprintf_r+0xfc>
    980c:	e59d3020 	ldr	r3, [sp, #32]
    9810:	e4935004 	ldr	r5, [r3], #4
    9814:	e58d3020 	str	r3, [sp, #32]
    9818:	e3a03001 	mov	r3, #1
    981c:	eafffc96 	b	8a7c <_vfprintf_r+0x85c>
    9820:	e59d3020 	ldr	r3, [sp, #32]
    9824:	e4935004 	ldr	r5, [r3], #4
    9828:	e58d3020 	str	r3, [sp, #32]
    982c:	eafffcfa 	b	8c1c <_vfprintf_r+0x9fc>
    9830:	e59d3058 	ldr	r3, [sp, #88]	; 0x58
    9834:	e5d33000 	ldrb	r3, [r3]
    9838:	e3530000 	cmp	r3, #0
    983c:	0afffb54 	beq	8594 <_vfprintf_r+0x374>
    9840:	e5d83000 	ldrb	r3, [r8]
    9844:	e3866b01 	orr	r6, r6, #1024	; 0x400
    9848:	eafffad8 	b	83b0 <_vfprintf_r+0x190>
    984c:	e58d3030 	str	r3, [sp, #48]	; 0x30
    9850:	e59f3320 	ldr	r3, [pc, #800]	; 9b78 <_vfprintf_r+0x1958>
    9854:	e58d304c 	str	r3, [sp, #76]	; 0x4c
    9858:	e2169020 	ands	r9, r6, #32
    985c:	0a000033 	beq	9930 <_vfprintf_r+0x1710>
    9860:	e59d3020 	ldr	r3, [sp, #32]
    9864:	e2833007 	add	r3, r3, #7
    9868:	e3c33007 	bic	r3, r3, #7
    986c:	e5939004 	ldr	r9, [r3, #4]
    9870:	e4935008 	ldr	r5, [r3], #8
    9874:	e58d3020 	str	r3, [sp, #32]
    9878:	e1953009 	orrs	r3, r5, r9
    987c:	12063001 	andne	r3, r6, #1
    9880:	03a03000 	moveq	r3, #0
    9884:	e3530000 	cmp	r3, #0
    9888:	159d3030 	ldrne	r3, [sp, #48]	; 0x30
    988c:	15cd3065 	strbne	r3, [sp, #101]	; 0x65
    9890:	13866002 	orrne	r6, r6, #2
    9894:	13a03030 	movne	r3, #48	; 0x30
    9898:	15cd3064 	strbne	r3, [sp, #100]	; 0x64
    989c:	e3c63b01 	bic	r3, r6, #1024	; 0x400
    98a0:	e58d300c 	str	r3, [sp, #12]
    98a4:	e3a03002 	mov	r3, #2
    98a8:	eafffc73 	b	8a7c <_vfprintf_r+0x85c>
    98ac:	e58d3030 	str	r3, [sp, #48]	; 0x30
    98b0:	eafffcd1 	b	8bfc <_vfprintf_r+0x9dc>
    98b4:	e58d3030 	str	r3, [sp, #48]	; 0x30
    98b8:	e58d600c 	str	r6, [sp, #12]
    98bc:	eafffc64 	b	8a54 <_vfprintf_r+0x834>
    98c0:	e58d3030 	str	r3, [sp, #48]	; 0x30
    98c4:	e59f32b0 	ldr	r3, [pc, #688]	; 9b7c <_vfprintf_r+0x195c>
    98c8:	e58d304c 	str	r3, [sp, #76]	; 0x4c
    98cc:	eaffffe1 	b	9858 <_vfprintf_r+0x1638>
    98d0:	e28d2080 	add	r2, sp, #128	; 0x80
    98d4:	e1a0100a 	mov	r1, sl
    98d8:	e1a0000b 	mov	r0, fp
    98dc:	eb00149d 	bl	eb58 <__sprint_r>
    98e0:	e3500000 	cmp	r0, #0
    98e4:	1afffb59 	bne	8650 <_vfprintf_r+0x430>
    98e8:	e59d2088 	ldr	r2, [sp, #136]	; 0x88
    98ec:	e28d708c 	add	r7, sp, #140	; 0x8c
    98f0:	eafffd19 	b	8d5c <_vfprintf_r+0xb3c>
    98f4:	e3540006 	cmp	r4, #6
    98f8:	e59d1024 	ldr	r1, [sp, #36]	; 0x24
    98fc:	31a03004 	movcc	r3, r4
    9900:	23a03006 	movcs	r3, #6
    9904:	e58d300c 	str	r3, [sp, #12]
    9908:	e58d3018 	str	r3, [sp, #24]
    990c:	e59f326c 	ldr	r3, [pc, #620]	; 9b80 <_vfprintf_r+0x1960>
    9910:	e1a04001 	mov	r4, r1
    9914:	e58d5020 	str	r5, [sp, #32]
    9918:	e58d101c 	str	r1, [sp, #28]
    991c:	e58d3024 	str	r3, [sp, #36]	; 0x24
    9920:	e58d1040 	str	r1, [sp, #64]	; 0x40
    9924:	e58d1038 	str	r1, [sp, #56]	; 0x38
    9928:	e58d1034 	str	r1, [sp, #52]	; 0x34
    992c:	eafffc76 	b	8b0c <_vfprintf_r+0x8ec>
    9930:	e2163010 	ands	r3, r6, #16
    9934:	0a00002b 	beq	99e8 <_vfprintf_r+0x17c8>
    9938:	e59d3020 	ldr	r3, [sp, #32]
    993c:	e4935004 	ldr	r5, [r3], #4
    9940:	e58d3020 	str	r3, [sp, #32]
    9944:	eaffffcb 	b	9878 <_vfprintf_r+0x1658>
    9948:	e28d2080 	add	r2, sp, #128	; 0x80
    994c:	e1a0100a 	mov	r1, sl
    9950:	e1a0000b 	mov	r0, fp
    9954:	eb00147f 	bl	eb58 <__sprint_r>
    9958:	e3500000 	cmp	r0, #0
    995c:	1afffb3b 	bne	8650 <_vfprintf_r+0x430>
    9960:	e59d2088 	ldr	r2, [sp, #136]	; 0x88
    9964:	e59d3084 	ldr	r3, [sp, #132]	; 0x84
    9968:	e28d708c 	add	r7, sp, #140	; 0x8c
    996c:	eafffdb4 	b	9044 <_vfprintf_r+0xe24>
    9970:	e28d2080 	add	r2, sp, #128	; 0x80
    9974:	e1a0100a 	mov	r1, sl
    9978:	e1a0000b 	mov	r0, fp
    997c:	eb001475 	bl	eb58 <__sprint_r>
    9980:	e3500000 	cmp	r0, #0
    9984:	1afffb31 	bne	8650 <_vfprintf_r+0x430>
    9988:	e59d2088 	ldr	r2, [sp, #136]	; 0x88
    998c:	e59d3084 	ldr	r3, [sp, #132]	; 0x84
    9990:	e28d708c 	add	r7, sp, #140	; 0x8c
    9994:	eafffda0 	b	901c <_vfprintf_r+0xdfc>
    9998:	e28d2080 	add	r2, sp, #128	; 0x80
    999c:	e1a0100a 	mov	r1, sl
    99a0:	e1a0000b 	mov	r0, fp
    99a4:	eb00146b 	bl	eb58 <__sprint_r>
    99a8:	e3500000 	cmp	r0, #0
    99ac:	1afffb27 	bne	8650 <_vfprintf_r+0x430>
    99b0:	e5dd1063 	ldrb	r1, [sp, #99]	; 0x63
    99b4:	e59d2088 	ldr	r2, [sp, #136]	; 0x88
    99b8:	e28d708c 	add	r7, sp, #140	; 0x8c
    99bc:	eafffb5f 	b	8740 <_vfprintf_r+0x520>
    99c0:	e59d1024 	ldr	r1, [sp, #36]	; 0x24
    99c4:	e3a03030 	mov	r3, #48	; 0x30
    99c8:	e2422002 	sub	r2, r2, #2
    99cc:	e5413001 	strb	r3, [r1, #-1]
    99d0:	e28d3e13 	add	r3, sp, #304	; 0x130
    99d4:	e0433002 	sub	r3, r3, r2
    99d8:	e59d600c 	ldr	r6, [sp, #12]
    99dc:	e58d3018 	str	r3, [sp, #24]
    99e0:	e58d2024 	str	r2, [sp, #36]	; 0x24
    99e4:	eafffc3e 	b	8ae4 <_vfprintf_r+0x8c4>
    99e8:	e2162040 	ands	r2, r6, #64	; 0x40
    99ec:	0a0000a6 	beq	9c8c <_vfprintf_r+0x1a6c>
    99f0:	e59d2020 	ldr	r2, [sp, #32]
    99f4:	e1a09003 	mov	r9, r3
    99f8:	e4925004 	ldr	r5, [r2], #4
    99fc:	e58d2020 	str	r2, [sp, #32]
    9a00:	e1a05805 	lsl	r5, r5, #16
    9a04:	e1a05825 	lsr	r5, r5, #16
    9a08:	eaffff9a 	b	9878 <_vfprintf_r+0x1658>
    9a0c:	e28d2080 	add	r2, sp, #128	; 0x80
    9a10:	e1a0100a 	mov	r1, sl
    9a14:	e1a0000b 	mov	r0, fp
    9a18:	eb00144e 	bl	eb58 <__sprint_r>
    9a1c:	e3500000 	cmp	r0, #0
    9a20:	1afffb0a 	bne	8650 <_vfprintf_r+0x430>
    9a24:	e59d2088 	ldr	r2, [sp, #136]	; 0x88
    9a28:	e28d708c 	add	r7, sp, #140	; 0x8c
    9a2c:	eafffcbb 	b	8d20 <_vfprintf_r+0xb00>
    9a30:	e2833001 	add	r3, r3, #1
    9a34:	e5874004 	str	r4, [r7, #4]
    9a38:	e0822004 	add	r2, r2, r4
    9a3c:	e58d3084 	str	r3, [sp, #132]	; 0x84
    9a40:	e3530007 	cmp	r3, #7
    9a44:	e59f313c 	ldr	r3, [pc, #316]	; 9b88 <_vfprintf_r+0x1968>
    9a48:	e5873000 	str	r3, [r7]
    9a4c:	e58d2088 	str	r2, [sp, #136]	; 0x88
    9a50:	dafffb6b 	ble	8804 <_vfprintf_r+0x5e4>
    9a54:	eafffd94 	b	90ac <_vfprintf_r+0xe8c>
    9a58:	e59d300c 	ldr	r3, [sp, #12]
    9a5c:	e3a02000 	mov	r2, #0
    9a60:	e2033b01 	and	r3, r3, #1024	; 0x400
    9a64:	ee0caa10 	vmov	s24, sl
    9a68:	e58d4018 	str	r4, [sp, #24]
    9a6c:	e58d8028 	str	r8, [sp, #40]	; 0x28
    9a70:	e59da058 	ldr	sl, [sp, #88]	; 0x58
    9a74:	e28d6e13 	add	r6, sp, #304	; 0x130
    9a78:	e1a04002 	mov	r4, r2
    9a7c:	e1a08003 	mov	r8, r3
    9a80:	e58d701c 	str	r7, [sp, #28]
    9a84:	ea00000a 	b	9ab4 <_vfprintf_r+0x1894>
    9a88:	e3a03000 	mov	r3, #0
    9a8c:	e1a00005 	mov	r0, r5
    9a90:	e1a01009 	mov	r1, r9
    9a94:	e3a0200a 	mov	r2, #10
    9a98:	eb005772 	bl	1f868 <__aeabi_uldivmod>
    9a9c:	e355000a 	cmp	r5, #10
    9aa0:	e2d93000 	sbcs	r3, r9, #0
    9aa4:	3a000017 	bcc	9b08 <_vfprintf_r+0x18e8>
    9aa8:	e1a05000 	mov	r5, r0
    9aac:	e1a09001 	mov	r9, r1
    9ab0:	e1a06007 	mov	r6, r7
    9ab4:	e1a00005 	mov	r0, r5
    9ab8:	e1a01009 	mov	r1, r9
    9abc:	e3a0200a 	mov	r2, #10
    9ac0:	e3a03000 	mov	r3, #0
    9ac4:	eb005767 	bl	1f868 <__aeabi_uldivmod>
    9ac8:	e3580000 	cmp	r8, #0
    9acc:	e2467001 	sub	r7, r6, #1
    9ad0:	e2844001 	add	r4, r4, #1
    9ad4:	e2822030 	add	r2, r2, #48	; 0x30
    9ad8:	e5462001 	strb	r2, [r6, #-1]
    9adc:	0affffe9 	beq	9a88 <_vfprintf_r+0x1868>
    9ae0:	e5da3000 	ldrb	r3, [sl]
    9ae4:	e25320ff 	subs	r2, r3, #255	; 0xff
    9ae8:	13a02001 	movne	r2, #1
    9aec:	e1530004 	cmp	r3, r4
    9af0:	13a02000 	movne	r2, #0
    9af4:	e3520000 	cmp	r2, #0
    9af8:	0affffe2 	beq	9a88 <_vfprintf_r+0x1868>
    9afc:	e355000a 	cmp	r5, #10
    9b00:	e2d93000 	sbcs	r3, r9, #0
    9b04:	2a000250 	bcs	a44c <_vfprintf_r+0x222c>
    9b08:	e1a03007 	mov	r3, r7
    9b0c:	e28d2e13 	add	r2, sp, #304	; 0x130
    9b10:	e0423003 	sub	r3, r2, r3
    9b14:	e58d7024 	str	r7, [sp, #36]	; 0x24
    9b18:	e58da058 	str	sl, [sp, #88]	; 0x58
    9b1c:	e58d403c 	str	r4, [sp, #60]	; 0x3c
    9b20:	ee1caa10 	vmov	sl, s24
    9b24:	e59d4018 	ldr	r4, [sp, #24]
    9b28:	e59d701c 	ldr	r7, [sp, #28]
    9b2c:	e59d8028 	ldr	r8, [sp, #40]	; 0x28
    9b30:	e59d600c 	ldr	r6, [sp, #12]
    9b34:	e58d3018 	str	r3, [sp, #24]
    9b38:	eafffbe9 	b	8ae4 <_vfprintf_r+0x8c4>
    9b3c:	e59d3020 	ldr	r3, [sp, #32]
    9b40:	e59d1014 	ldr	r1, [sp, #20]
    9b44:	e4932004 	ldr	r2, [r3], #4
    9b48:	e5821000 	str	r1, [r2]
    9b4c:	e58d3020 	str	r3, [sp, #32]
    9b50:	eafff9f1 	b	831c <_vfprintf_r+0xfc>
    9b54:	e59d3088 	ldr	r3, [sp, #136]	; 0x88
    9b58:	e3530000 	cmp	r3, #0
    9b5c:	1a000270 	bne	a524 <_vfprintf_r+0x2304>
    9b60:	e3a03000 	mov	r3, #0
    9b64:	e58d3084 	str	r3, [sp, #132]	; 0x84
    9b68:	eafffabe 	b	8668 <_vfprintf_r+0x448>
    9b6c:	e1a00000 	nop			; (mov r0, r0)
    9b70:	00000000 	andeq	r0, r0, r0
    9b74:	3fe00000 	svccc	0x00e00000
    9b78:	00027ec4 	andeq	r7, r2, r4, asr #29
    9b7c:	00027ed8 	ldrdeq	r7, [r2], -r8
    9b80:	00027eec 	andeq	r7, r2, ip, ror #29
    9b84:	66666667 	strbtvs	r6, [r6], -r7, ror #12
    9b88:	00027f08 	andeq	r7, r2, r8, lsl #30
    9b8c:	00027ebc 			; <UNDEFINED> instruction: 0x00027ebc
    9b90:	00027ec0 	andeq	r7, r2, r0, asr #29
    9b94:	e3540010 	cmp	r4, #16
    9b98:	e59d3084 	ldr	r3, [sp, #132]	; 0x84
    9b9c:	da0000c0 	ble	9ea4 <_vfprintf_r+0x1c84>
    9ba0:	e3a05010 	mov	r5, #16
    9ba4:	ea000002 	b	9bb4 <_vfprintf_r+0x1994>
    9ba8:	e2444010 	sub	r4, r4, #16
    9bac:	e3540010 	cmp	r4, #16
    9bb0:	da0000bb 	ble	9ea4 <_vfprintf_r+0x1c84>
    9bb4:	e2833001 	add	r3, r3, #1
    9bb8:	e51f1038 	ldr	r1, [pc, #-56]	; 9b88 <_vfprintf_r+0x1968>
    9bbc:	e2822010 	add	r2, r2, #16
    9bc0:	e3530007 	cmp	r3, #7
    9bc4:	e8870022 	stm	r7, {r1, r5}
    9bc8:	e58d2088 	str	r2, [sp, #136]	; 0x88
    9bcc:	d2877008 	addle	r7, r7, #8
    9bd0:	e58d3084 	str	r3, [sp, #132]	; 0x84
    9bd4:	dafffff3 	ble	9ba8 <_vfprintf_r+0x1988>
    9bd8:	e28d2080 	add	r2, sp, #128	; 0x80
    9bdc:	e1a0100a 	mov	r1, sl
    9be0:	e1a0000b 	mov	r0, fp
    9be4:	eb0013db 	bl	eb58 <__sprint_r>
    9be8:	e3500000 	cmp	r0, #0
    9bec:	1afffa97 	bne	8650 <_vfprintf_r+0x430>
    9bf0:	e59d2088 	ldr	r2, [sp, #136]	; 0x88
    9bf4:	e59d3084 	ldr	r3, [sp, #132]	; 0x84
    9bf8:	e28d708c 	add	r7, sp, #140	; 0x8c
    9bfc:	eaffffe9 	b	9ba8 <_vfprintf_r+0x1988>
    9c00:	e2833001 	add	r3, r3, #1
    9c04:	e51f1084 	ldr	r1, [pc, #-132]	; 9b88 <_vfprintf_r+0x1968>
    9c08:	e0822004 	add	r2, r2, r4
    9c0c:	e3530007 	cmp	r3, #7
    9c10:	e5874004 	str	r4, [r7, #4]
    9c14:	e5871000 	str	r1, [r7]
    9c18:	e58d2088 	str	r2, [sp, #136]	; 0x88
    9c1c:	e58d3084 	str	r3, [sp, #132]	; 0x84
    9c20:	dafffd16 	ble	9080 <_vfprintf_r+0xe60>
    9c24:	eafffe25 	b	94c0 <_vfprintf_r+0x12a0>
    9c28:	e59d0024 	ldr	r0, [sp, #36]	; 0x24
    9c2c:	e58d5020 	str	r5, [sp, #32]
    9c30:	eb001357 	bl	e994 <strlen>
    9c34:	e1a04009 	mov	r4, r9
    9c38:	e1a03000 	mov	r3, r0
    9c3c:	e58d0018 	str	r0, [sp, #24]
    9c40:	eafffb52 	b	8990 <_vfprintf_r+0x770>
    9c44:	e59d3020 	ldr	r3, [sp, #32]
    9c48:	e2169c02 	ands	r9, r6, #512	; 0x200
    9c4c:	14935004 	ldrne	r5, [r3], #4
    9c50:	04935004 	ldreq	r5, [r3], #4
    9c54:	11a09002 	movne	r9, r2
    9c58:	120550ff 	andne	r5, r5, #255	; 0xff
    9c5c:	e58d3020 	str	r3, [sp, #32]
    9c60:	eafffbed 	b	8c1c <_vfprintf_r+0x9fc>
    9c64:	e59d300c 	ldr	r3, [sp, #12]
    9c68:	e2139c02 	ands	r9, r3, #512	; 0x200
    9c6c:	e59d3020 	ldr	r3, [sp, #32]
    9c70:	11a09002 	movne	r9, r2
    9c74:	14935004 	ldrne	r5, [r3], #4
    9c78:	04935004 	ldreq	r5, [r3], #4
    9c7c:	e58d3020 	str	r3, [sp, #32]
    9c80:	120550ff 	andne	r5, r5, #255	; 0xff
    9c84:	e3a03001 	mov	r3, #1
    9c88:	eafffb7b 	b	8a7c <_vfprintf_r+0x85c>
    9c8c:	e59d3020 	ldr	r3, [sp, #32]
    9c90:	e2169c02 	ands	r9, r6, #512	; 0x200
    9c94:	14935004 	ldrne	r5, [r3], #4
    9c98:	04935004 	ldreq	r5, [r3], #4
    9c9c:	11a09002 	movne	r9, r2
    9ca0:	120550ff 	andne	r5, r5, #255	; 0xff
    9ca4:	e58d3020 	str	r3, [sp, #32]
    9ca8:	eafffef2 	b	9878 <_vfprintf_r+0x1658>
    9cac:	e3740001 	cmn	r4, #1
    9cb0:	0a0000a5 	beq	9f4c <_vfprintf_r+0x1d2c>
    9cb4:	e3550047 	cmp	r5, #71	; 0x47
    9cb8:	03540000 	cmpeq	r4, #0
    9cbc:	1a0000a3 	bne	9f50 <_vfprintf_r+0x1d30>
    9cc0:	ee183a90 	vmov	r3, s17
    9cc4:	e3530000 	cmp	r3, #0
    9cc8:	e3863c01 	orr	r3, r6, #256	; 0x100
    9ccc:	e58d301c 	str	r3, [sp, #28]
    9cd0:	ba000279 	blt	a6bc <_vfprintf_r+0x249c>
    9cd4:	eeb0cb48 	vmov.f64	d12, d8
    9cd8:	e3a04001 	mov	r4, #1
    9cdc:	e3a09000 	mov	r9, #0
    9ce0:	e1a02004 	mov	r2, r4
    9ce4:	e28d3078 	add	r3, sp, #120	; 0x78
    9ce8:	e58d3004 	str	r3, [sp, #4]
    9cec:	e28d306c 	add	r3, sp, #108	; 0x6c
    9cf0:	e58d3000 	str	r3, [sp]
    9cf4:	eeb00b4c 	vmov.f64	d0, d12
    9cf8:	e28d3068 	add	r3, sp, #104	; 0x68
    9cfc:	e3a01002 	mov	r1, #2
    9d00:	e1a0000b 	mov	r0, fp
    9d04:	e58d200c 	str	r2, [sp, #12]
    9d08:	eb0003e4 	bl	aca0 <_dtoa_r>
    9d0c:	e3550047 	cmp	r5, #71	; 0x47
    9d10:	e59d200c 	ldr	r2, [sp, #12]
    9d14:	e58d0024 	str	r0, [sp, #36]	; 0x24
    9d18:	1a0001c8 	bne	a440 <_vfprintf_r+0x2220>
    9d1c:	e3160001 	tst	r6, #1
    9d20:	1a0001c6 	bne	a440 <_vfprintf_r+0x2220>
    9d24:	e59d3078 	ldr	r3, [sp, #120]	; 0x78
    9d28:	e59d2024 	ldr	r2, [sp, #36]	; 0x24
    9d2c:	e3550047 	cmp	r5, #71	; 0x47
    9d30:	e0433002 	sub	r3, r3, r2
    9d34:	e58d303c 	str	r3, [sp, #60]	; 0x3c
    9d38:	1a0000dc 	bne	a0b0 <_vfprintf_r+0x1e90>
    9d3c:	e59d2068 	ldr	r2, [sp, #104]	; 0x68
    9d40:	e58d2034 	str	r2, [sp, #52]	; 0x34
    9d44:	e3720003 	cmn	r2, #3
    9d48:	a3a03000 	movge	r3, #0
    9d4c:	b3a03001 	movlt	r3, #1
    9d50:	e1520004 	cmp	r2, r4
    9d54:	c3833001 	orrgt	r3, r3, #1
    9d58:	e3530000 	cmp	r3, #0
    9d5c:	0a0000b6 	beq	a03c <_vfprintf_r+0x1e1c>
    9d60:	e59d3030 	ldr	r3, [sp, #48]	; 0x30
    9d64:	e3a02000 	mov	r2, #0
    9d68:	e2433002 	sub	r3, r3, #2
    9d6c:	e3c35020 	bic	r5, r3, #32
    9d70:	e58d3030 	str	r3, [sp, #48]	; 0x30
    9d74:	e58d201c 	str	r2, [sp, #28]
    9d78:	e59d3034 	ldr	r3, [sp, #52]	; 0x34
    9d7c:	e59d2030 	ldr	r2, [sp, #48]	; 0x30
    9d80:	e2433001 	sub	r3, r3, #1
    9d84:	e3550041 	cmp	r5, #65	; 0x41
    9d88:	0282200f 	addeq	r2, r2, #15
    9d8c:	e3530000 	cmp	r3, #0
    9d90:	e58d3068 	str	r3, [sp, #104]	; 0x68
    9d94:	b59d3034 	ldrlt	r3, [sp, #52]	; 0x34
    9d98:	e20220ff 	and	r2, r2, #255	; 0xff
    9d9c:	b2633001 	rsblt	r3, r3, #1
    9da0:	e5cd2070 	strb	r2, [sp, #112]	; 0x70
    9da4:	b3a0202d 	movlt	r2, #45	; 0x2d
    9da8:	a3a0202b 	movge	r2, #43	; 0x2b
    9dac:	e3530009 	cmp	r3, #9
    9db0:	e5cd2071 	strb	r2, [sp, #113]	; 0x71
    9db4:	da00024e 	ble	a6f4 <_vfprintf_r+0x24d4>
    9db8:	e28dc07f 	add	ip, sp, #127	; 0x7f
    9dbc:	e1a0200c 	mov	r2, ip
    9dc0:	e51f1244 	ldr	r1, [pc, #-580]	; 9b84 <_vfprintf_r+0x1964>
    9dc4:	e1a00002 	mov	r0, r2
    9dc8:	e0c12193 	smull	r2, r1, r3, r1
    9dcc:	e1a02fc3 	asr	r2, r3, #31
    9dd0:	e0622141 	rsb	r2, r2, r1, asr #2
    9dd4:	e0821102 	add	r1, r2, r2, lsl #2
    9dd8:	e0431081 	sub	r1, r3, r1, lsl #1
    9ddc:	e3530063 	cmp	r3, #99	; 0x63
    9de0:	e2813030 	add	r3, r1, #48	; 0x30
    9de4:	e5403001 	strb	r3, [r0, #-1]
    9de8:	e1a03002 	mov	r3, r2
    9dec:	e2402001 	sub	r2, r0, #1
    9df0:	cafffff2 	bgt	9dc0 <_vfprintf_r+0x1ba0>
    9df4:	e2833030 	add	r3, r3, #48	; 0x30
    9df8:	e20310ff 	and	r1, r3, #255	; 0xff
    9dfc:	e2403002 	sub	r3, r0, #2
    9e00:	e15c0003 	cmp	ip, r3
    9e04:	e5421001 	strb	r1, [r2, #-1]
    9e08:	9a000297 	bls	a86c <_vfprintf_r+0x264c>
    9e0c:	e1a03002 	mov	r3, r2
    9e10:	e28d2072 	add	r2, sp, #114	; 0x72
    9e14:	ea000000 	b	9e1c <_vfprintf_r+0x1bfc>
    9e18:	e4d31001 	ldrb	r1, [r3], #1
    9e1c:	e15c0003 	cmp	ip, r3
    9e20:	e4c21001 	strb	r1, [r2], #1
    9e24:	1afffffb 	bne	9e18 <_vfprintf_r+0x1bf8>
    9e28:	e28d3081 	add	r3, sp, #129	; 0x81
    9e2c:	e28d2072 	add	r2, sp, #114	; 0x72
    9e30:	e0433000 	sub	r3, r3, r0
    9e34:	e0823003 	add	r3, r2, r3
    9e38:	e28d2070 	add	r2, sp, #112	; 0x70
    9e3c:	e0433002 	sub	r3, r3, r2
    9e40:	e58d3050 	str	r3, [sp, #80]	; 0x50
    9e44:	e59d303c 	ldr	r3, [sp, #60]	; 0x3c
    9e48:	e59d2050 	ldr	r2, [sp, #80]	; 0x50
    9e4c:	e3530001 	cmp	r3, #1
    9e50:	e0823003 	add	r3, r2, r3
    9e54:	e58d3018 	str	r3, [sp, #24]
    9e58:	da000256 	ble	a7b8 <_vfprintf_r+0x2598>
    9e5c:	e59d3018 	ldr	r3, [sp, #24]
    9e60:	e59d2044 	ldr	r2, [sp, #68]	; 0x44
    9e64:	e0833002 	add	r3, r3, r2
    9e68:	e58d3018 	str	r3, [sp, #24]
    9e6c:	e59d2018 	ldr	r2, [sp, #24]
    9e70:	e3c63b01 	bic	r3, r6, #1024	; 0x400
    9e74:	e1c22fc2 	bic	r2, r2, r2, asr #31
    9e78:	e3836c01 	orr	r6, r3, #256	; 0x100
    9e7c:	e3a03000 	mov	r3, #0
    9e80:	e58d3040 	str	r3, [sp, #64]	; 0x40
    9e84:	e58d200c 	str	r2, [sp, #12]
    9e88:	e58d3038 	str	r3, [sp, #56]	; 0x38
    9e8c:	e58d3034 	str	r3, [sp, #52]	; 0x34
    9e90:	e3590000 	cmp	r9, #0
    9e94:	1a000081 	bne	a0a0 <_vfprintf_r+0x1e80>
    9e98:	e5dd1063 	ldrb	r1, [sp, #99]	; 0x63
    9e9c:	e1a04009 	mov	r4, r9
    9ea0:	eafffb19 	b	8b0c <_vfprintf_r+0x8ec>
    9ea4:	e2833001 	add	r3, r3, #1
    9ea8:	e3530007 	cmp	r3, #7
    9eac:	e0822004 	add	r2, r2, r4
    9eb0:	e58d3084 	str	r3, [sp, #132]	; 0x84
    9eb4:	e51f3334 	ldr	r3, [pc, #-820]	; 9b88 <_vfprintf_r+0x1968>
    9eb8:	e5874004 	str	r4, [r7, #4]
    9ebc:	e5873000 	str	r3, [r7]
    9ec0:	e58d2088 	str	r2, [sp, #136]	; 0x88
    9ec4:	d2877008 	addle	r7, r7, #8
    9ec8:	dafffd27 	ble	936c <_vfprintf_r+0x114c>
    9ecc:	e28d2080 	add	r2, sp, #128	; 0x80
    9ed0:	e1a0100a 	mov	r1, sl
    9ed4:	e1a0000b 	mov	r0, fp
    9ed8:	eb00131e 	bl	eb58 <__sprint_r>
    9edc:	e3500000 	cmp	r0, #0
    9ee0:	1afff9da 	bne	8650 <_vfprintf_r+0x430>
    9ee4:	e59d2088 	ldr	r2, [sp, #136]	; 0x88
    9ee8:	e28d708c 	add	r7, sp, #140	; 0x8c
    9eec:	eafffd1e 	b	936c <_vfprintf_r+0x114c>
    9ef0:	e59d303c 	ldr	r3, [sp, #60]	; 0x3c
    9ef4:	e59d1024 	ldr	r1, [sp, #36]	; 0x24
    9ef8:	e0434004 	sub	r4, r3, r4
    9efc:	e0815003 	add	r5, r1, r3
    9f00:	e0455009 	sub	r5, r5, r9
    9f04:	e1540005 	cmp	r4, r5
    9f08:	b1a05004 	movlt	r5, r4
    9f0c:	eafffd3f 	b	9410 <_vfprintf_r+0x11f0>
    9f10:	e1a05c05 	lsl	r5, r5, #24
    9f14:	e1a09fc5 	asr	r9, r5, #31
    9f18:	e58d3020 	str	r3, [sp, #32]
    9f1c:	e1a05c45 	asr	r5, r5, #24
    9f20:	e1a03009 	mov	r3, r9
    9f24:	eafffaab 	b	89d8 <_vfprintf_r+0x7b8>
    9f28:	e59d3020 	ldr	r3, [sp, #32]
    9f2c:	e59d1014 	ldr	r1, [sp, #20]
    9f30:	e4932004 	ldr	r2, [r3], #4
    9f34:	e58d3020 	str	r3, [sp, #32]
    9f38:	e1c210b0 	strh	r1, [r2]
    9f3c:	eafff8f6 	b	831c <_vfprintf_r+0xfc>
    9f40:	e59a0058 	ldr	r0, [sl, #88]	; 0x58
    9f44:	eb000b25 	bl	cbe0 <__retarget_lock_release_recursive>
    9f48:	eafff9a4 	b	85e0 <_vfprintf_r+0x3c0>
    9f4c:	e3a04006 	mov	r4, #6
    9f50:	ee183a90 	vmov	r3, s17
    9f54:	e3530000 	cmp	r3, #0
    9f58:	e3863c01 	orr	r3, r6, #256	; 0x100
    9f5c:	e58d301c 	str	r3, [sp, #28]
    9f60:	ba0001d6 	blt	a6c0 <_vfprintf_r+0x24a0>
    9f64:	eeb0cb48 	vmov.f64	d12, d8
    9f68:	e3a09000 	mov	r9, #0
    9f6c:	e3550046 	cmp	r5, #70	; 0x46
    9f70:	1a000123 	bne	a404 <_vfprintf_r+0x21e4>
    9f74:	e28d3078 	add	r3, sp, #120	; 0x78
    9f78:	e58d3004 	str	r3, [sp, #4]
    9f7c:	e28d306c 	add	r3, sp, #108	; 0x6c
    9f80:	e1a02004 	mov	r2, r4
    9f84:	e58d3000 	str	r3, [sp]
    9f88:	eeb00b4c 	vmov.f64	d0, d12
    9f8c:	e28d3068 	add	r3, sp, #104	; 0x68
    9f90:	e3a01003 	mov	r1, #3
    9f94:	e1a0000b 	mov	r0, fp
    9f98:	eb000340 	bl	aca0 <_dtoa_r>
    9f9c:	eeb5cb40 	vcmp.f64	d12, #0.0
    9fa0:	eef1fa10 	vmrs	APSR_nzcv, fpscr
    9fa4:	e5d02000 	ldrb	r2, [r0]
    9fa8:	e1a03000 	mov	r3, r0
    9fac:	13a03001 	movne	r3, #1
    9fb0:	03a03000 	moveq	r3, #0
    9fb4:	e3520030 	cmp	r2, #48	; 0x30
    9fb8:	13a03000 	movne	r3, #0
    9fbc:	02033001 	andeq	r3, r3, #1
    9fc0:	e3530000 	cmp	r3, #0
    9fc4:	059d3068 	ldreq	r3, [sp, #104]	; 0x68
    9fc8:	e58d0024 	str	r0, [sp, #36]	; 0x24
    9fcc:	1a0001fc 	bne	a7c4 <_vfprintf_r+0x25a4>
    9fd0:	e59d2024 	ldr	r2, [sp, #36]	; 0x24
    9fd4:	e0833004 	add	r3, r3, r4
    9fd8:	e0821003 	add	r1, r2, r3
    9fdc:	eeb5cb40 	vcmp.f64	d12, #0.0
    9fe0:	eef1fa10 	vmrs	APSR_nzcv, fpscr
    9fe4:	01a03001 	moveq	r3, r1
    9fe8:	0affff4e 	beq	9d28 <_vfprintf_r+0x1b08>
    9fec:	e59d3078 	ldr	r3, [sp, #120]	; 0x78
    9ff0:	e1530001 	cmp	r3, r1
    9ff4:	2affff4b 	bcs	9d28 <_vfprintf_r+0x1b08>
    9ff8:	e3a00030 	mov	r0, #48	; 0x30
    9ffc:	e2832001 	add	r2, r3, #1
    a000:	e58d2078 	str	r2, [sp, #120]	; 0x78
    a004:	e5c30000 	strb	r0, [r3]
    a008:	e59d3078 	ldr	r3, [sp, #120]	; 0x78
    a00c:	e1510003 	cmp	r1, r3
    a010:	8afffff9 	bhi	9ffc <_vfprintf_r+0x1ddc>
    a014:	eaffff43 	b	9d28 <_vfprintf_r+0x1b08>
    a018:	e2841001 	add	r1, r4, #1
    a01c:	e1a0000b 	mov	r0, fp
    a020:	eb000b63 	bl	cdb4 <_malloc_r>
    a024:	e2503000 	subs	r3, r0, #0
    a028:	e58d3024 	str	r3, [sp, #36]	; 0x24
    a02c:	0a00020a 	beq	a85c <_vfprintf_r+0x263c>
    a030:	e59d3024 	ldr	r3, [sp, #36]	; 0x24
    a034:	e58d301c 	str	r3, [sp, #28]
    a038:	eafffdae 	b	96f8 <_vfprintf_r+0x14d8>
    a03c:	e59d3034 	ldr	r3, [sp, #52]	; 0x34
    a040:	e59d203c 	ldr	r2, [sp, #60]	; 0x3c
    a044:	e1530002 	cmp	r3, r2
    a048:	ba000118 	blt	a4b0 <_vfprintf_r+0x2290>
    a04c:	e3160001 	tst	r6, #1
    a050:	0a0001a4 	beq	a6e8 <_vfprintf_r+0x24c8>
    a054:	e59d2044 	ldr	r2, [sp, #68]	; 0x44
    a058:	e0833002 	add	r3, r3, r2
    a05c:	e58d3018 	str	r3, [sp, #24]
    a060:	e3160b01 	tst	r6, #1024	; 0x400
    a064:	0a000002 	beq	a074 <_vfprintf_r+0x1e54>
    a068:	e59d3034 	ldr	r3, [sp, #52]	; 0x34
    a06c:	e3530000 	cmp	r3, #0
    a070:	ca00016b 	bgt	a624 <_vfprintf_r+0x2404>
    a074:	e59d3018 	ldr	r3, [sp, #24]
    a078:	e1c33fc3 	bic	r3, r3, r3, asr #31
    a07c:	e58d300c 	str	r3, [sp, #12]
    a080:	e3a03067 	mov	r3, #103	; 0x67
    a084:	e58d3030 	str	r3, [sp, #48]	; 0x30
    a088:	e3a03000 	mov	r3, #0
    a08c:	e59d601c 	ldr	r6, [sp, #28]
    a090:	e58d3040 	str	r3, [sp, #64]	; 0x40
    a094:	e58d301c 	str	r3, [sp, #28]
    a098:	e58d3038 	str	r3, [sp, #56]	; 0x38
    a09c:	eaffff7b 	b	9e90 <_vfprintf_r+0x1c70>
    a0a0:	e3a0102d 	mov	r1, #45	; 0x2d
    a0a4:	e3a04000 	mov	r4, #0
    a0a8:	e5cd1063 	strb	r1, [sp, #99]	; 0x63
    a0ac:	eafffa98 	b	8b14 <_vfprintf_r+0x8f4>
    a0b0:	e3550046 	cmp	r5, #70	; 0x46
    a0b4:	1a0001e1 	bne	a840 <_vfprintf_r+0x2620>
    a0b8:	e59d2068 	ldr	r2, [sp, #104]	; 0x68
    a0bc:	e2063001 	and	r3, r6, #1
    a0c0:	e3520000 	cmp	r2, #0
    a0c4:	e58d2034 	str	r2, [sp, #52]	; 0x34
    a0c8:	da0001cb 	ble	a7fc <_vfprintf_r+0x25dc>
    a0cc:	e1933004 	orrs	r3, r3, r4
    a0d0:	1a00017d 	bne	a6cc <_vfprintf_r+0x24ac>
    a0d4:	e59d3034 	ldr	r3, [sp, #52]	; 0x34
    a0d8:	e58d3018 	str	r3, [sp, #24]
    a0dc:	e3a03066 	mov	r3, #102	; 0x66
    a0e0:	e58d3030 	str	r3, [sp, #48]	; 0x30
    a0e4:	e3160b01 	tst	r6, #1024	; 0x400
    a0e8:	1a00014f 	bne	a62c <_vfprintf_r+0x240c>
    a0ec:	e59d3018 	ldr	r3, [sp, #24]
    a0f0:	e1c33fc3 	bic	r3, r3, r3, asr #31
    a0f4:	e58d300c 	str	r3, [sp, #12]
    a0f8:	eaffffe2 	b	a088 <_vfprintf_r+0x1e68>
    a0fc:	e59d3038 	ldr	r3, [sp, #56]	; 0x38
    a100:	e59d5040 	ldr	r5, [sp, #64]	; 0x40
    a104:	e59d103c 	ldr	r1, [sp, #60]	; 0x3c
    a108:	e3530000 	cmp	r3, #0
    a10c:	d3550000 	cmple	r5, #0
    a110:	e59d3024 	ldr	r3, [sp, #36]	; 0x24
    a114:	e0833001 	add	r3, r3, r1
    a118:	da0001d8 	ble	a880 <_vfprintf_r+0x2660>
    a11c:	e1a00007 	mov	r0, r7
    a120:	e58d602c 	str	r6, [sp, #44]	; 0x2c
    a124:	e58d8030 	str	r8, [sp, #48]	; 0x30
    a128:	e59d6058 	ldr	r6, [sp, #88]	; 0x58
    a12c:	e59d805c 	ldr	r8, [sp, #92]	; 0x5c
    a130:	e1a0100a 	mov	r1, sl
    a134:	e1a07003 	mov	r7, r3
    a138:	ea000004 	b	a150 <_vfprintf_r+0x1f30>
    a13c:	e59d3038 	ldr	r3, [sp, #56]	; 0x38
    a140:	e089900c 	add	r9, r9, ip
    a144:	e3550000 	cmp	r5, #0
    a148:	d3530000 	cmple	r3, #0
    a14c:	da000190 	ble	a794 <_vfprintf_r+0x2574>
    a150:	e3550000 	cmp	r5, #0
    a154:	059d3038 	ldreq	r3, [sp, #56]	; 0x38
    a158:	12455001 	subne	r5, r5, #1
    a15c:	02433001 	subeq	r3, r3, #1
    a160:	058d3038 	streq	r3, [sp, #56]	; 0x38
    a164:	e59d3054 	ldr	r3, [sp, #84]	; 0x54
    a168:	02466001 	subeq	r6, r6, #1
    a16c:	e8800108 	stm	r0, {r3, r8}
    a170:	e59d3084 	ldr	r3, [sp, #132]	; 0x84
    a174:	e0822008 	add	r2, r2, r8
    a178:	e2833001 	add	r3, r3, #1
    a17c:	e3530007 	cmp	r3, #7
    a180:	d2800008 	addle	r0, r0, #8
    a184:	e58d2088 	str	r2, [sp, #136]	; 0x88
    a188:	e58d3084 	str	r3, [sp, #132]	; 0x84
    a18c:	ca000043 	bgt	a2a0 <_vfprintf_r+0x2080>
    a190:	e5d6c000 	ldrb	ip, [r6]
    a194:	e0473009 	sub	r3, r7, r9
    a198:	e15c0003 	cmp	ip, r3
    a19c:	b1a0a00c 	movlt	sl, ip
    a1a0:	a1a0a003 	movge	sl, r3
    a1a4:	e35a0000 	cmp	sl, #0
    a1a8:	e58d7018 	str	r7, [sp, #24]
    a1ac:	da000009 	ble	a1d8 <_vfprintf_r+0x1fb8>
    a1b0:	e59dc084 	ldr	ip, [sp, #132]	; 0x84
    a1b4:	e082200a 	add	r2, r2, sl
    a1b8:	e28cc001 	add	ip, ip, #1
    a1bc:	e35c0007 	cmp	ip, #7
    a1c0:	e8800600 	stm	r0, {r9, sl}
    a1c4:	e58d2088 	str	r2, [sp, #136]	; 0x88
    a1c8:	e58dc084 	str	ip, [sp, #132]	; 0x84
    a1cc:	ca00003d 	bgt	a2c8 <_vfprintf_r+0x20a8>
    a1d0:	e5d6c000 	ldrb	ip, [r6]
    a1d4:	e2800008 	add	r0, r0, #8
    a1d8:	e35a0000 	cmp	sl, #0
    a1dc:	a04c400a 	subge	r4, ip, sl
    a1e0:	b1a0400c 	movlt	r4, ip
    a1e4:	e3540000 	cmp	r4, #0
    a1e8:	daffffd3 	ble	a13c <_vfprintf_r+0x1f1c>
    a1ec:	e3540010 	cmp	r4, #16
    a1f0:	e59dc084 	ldr	ip, [sp, #132]	; 0x84
    a1f4:	da00001d 	ble	a270 <_vfprintf_r+0x2050>
    a1f8:	e58d5028 	str	r5, [sp, #40]	; 0x28
    a1fc:	e3a0a010 	mov	sl, #16
    a200:	e1a05001 	mov	r5, r1
    a204:	ea000002 	b	a214 <_vfprintf_r+0x1ff4>
    a208:	e2444010 	sub	r4, r4, #16
    a20c:	e3540010 	cmp	r4, #16
    a210:	da000014 	ble	a268 <_vfprintf_r+0x2048>
    a214:	e28cc001 	add	ip, ip, #1
    a218:	e51f3698 	ldr	r3, [pc, #-1688]	; 9b88 <_vfprintf_r+0x1968>
    a21c:	e2822010 	add	r2, r2, #16
    a220:	e35c0007 	cmp	ip, #7
    a224:	e8800408 	stm	r0, {r3, sl}
    a228:	e58d2088 	str	r2, [sp, #136]	; 0x88
    a22c:	d2800008 	addle	r0, r0, #8
    a230:	e58dc084 	str	ip, [sp, #132]	; 0x84
    a234:	dafffff3 	ble	a208 <_vfprintf_r+0x1fe8>
    a238:	e28d2080 	add	r2, sp, #128	; 0x80
    a23c:	e1a01005 	mov	r1, r5
    a240:	e1a0000b 	mov	r0, fp
    a244:	eb001243 	bl	eb58 <__sprint_r>
    a248:	e3500000 	cmp	r0, #0
    a24c:	1a00005e 	bne	a3cc <_vfprintf_r+0x21ac>
    a250:	e2444010 	sub	r4, r4, #16
    a254:	e3540010 	cmp	r4, #16
    a258:	e59d2088 	ldr	r2, [sp, #136]	; 0x88
    a25c:	e59dc084 	ldr	ip, [sp, #132]	; 0x84
    a260:	e28d008c 	add	r0, sp, #140	; 0x8c
    a264:	caffffea 	bgt	a214 <_vfprintf_r+0x1ff4>
    a268:	e1a01005 	mov	r1, r5
    a26c:	e59d5028 	ldr	r5, [sp, #40]	; 0x28
    a270:	e28cc001 	add	ip, ip, #1
    a274:	e51f36f4 	ldr	r3, [pc, #-1780]	; 9b88 <_vfprintf_r+0x1968>
    a278:	e0822004 	add	r2, r2, r4
    a27c:	e35c0007 	cmp	ip, #7
    a280:	e5804004 	str	r4, [r0, #4]
    a284:	e58dc084 	str	ip, [sp, #132]	; 0x84
    a288:	e5803000 	str	r3, [r0]
    a28c:	e58d2088 	str	r2, [sp, #136]	; 0x88
    a290:	ca000050 	bgt	a3d8 <_vfprintf_r+0x21b8>
    a294:	e5d6c000 	ldrb	ip, [r6]
    a298:	e2800008 	add	r0, r0, #8
    a29c:	eaffffa6 	b	a13c <_vfprintf_r+0x1f1c>
    a2a0:	e28d2080 	add	r2, sp, #128	; 0x80
    a2a4:	e1a0000b 	mov	r0, fp
    a2a8:	e58d1018 	str	r1, [sp, #24]
    a2ac:	eb001229 	bl	eb58 <__sprint_r>
    a2b0:	e59d1018 	ldr	r1, [sp, #24]
    a2b4:	e3500000 	cmp	r0, #0
    a2b8:	1a00014c 	bne	a7f0 <_vfprintf_r+0x25d0>
    a2bc:	e59d2088 	ldr	r2, [sp, #136]	; 0x88
    a2c0:	e28d008c 	add	r0, sp, #140	; 0x8c
    a2c4:	eaffffb1 	b	a190 <_vfprintf_r+0x1f70>
    a2c8:	e28d2080 	add	r2, sp, #128	; 0x80
    a2cc:	e1a0000b 	mov	r0, fp
    a2d0:	e58d1028 	str	r1, [sp, #40]	; 0x28
    a2d4:	eb00121f 	bl	eb58 <__sprint_r>
    a2d8:	e59d1028 	ldr	r1, [sp, #40]	; 0x28
    a2dc:	e3500000 	cmp	r0, #0
    a2e0:	1a000142 	bne	a7f0 <_vfprintf_r+0x25d0>
    a2e4:	e5d6c000 	ldrb	ip, [r6]
    a2e8:	e59d2088 	ldr	r2, [sp, #136]	; 0x88
    a2ec:	e28d008c 	add	r0, sp, #140	; 0x8c
    a2f0:	eaffffb8 	b	a1d8 <_vfprintf_r+0x1fb8>
    a2f4:	e28d2080 	add	r2, sp, #128	; 0x80
    a2f8:	e1a0100a 	mov	r1, sl
    a2fc:	e1a0000b 	mov	r0, fp
    a300:	eb001214 	bl	eb58 <__sprint_r>
    a304:	e3500000 	cmp	r0, #0
    a308:	1afff8d0 	bne	8650 <_vfprintf_r+0x430>
    a30c:	e59d4068 	ldr	r4, [sp, #104]	; 0x68
    a310:	e59d2088 	ldr	r2, [sp, #136]	; 0x88
    a314:	e28d708c 	add	r7, sp, #140	; 0x8c
    a318:	eafffcc2 	b	9628 <_vfprintf_r+0x1408>
    a31c:	e28d2080 	add	r2, sp, #128	; 0x80
    a320:	e1a0100a 	mov	r1, sl
    a324:	e1a0000b 	mov	r0, fp
    a328:	eb00120a 	bl	eb58 <__sprint_r>
    a32c:	e3500000 	cmp	r0, #0
    a330:	1afff8c6 	bne	8650 <_vfprintf_r+0x430>
    a334:	e59d2088 	ldr	r2, [sp, #136]	; 0x88
    a338:	e28d708c 	add	r7, sp, #140	; 0x8c
    a33c:	eafffc05 	b	9358 <_vfprintf_r+0x1138>
    a340:	e28d2080 	add	r2, sp, #128	; 0x80
    a344:	e1a0100a 	mov	r1, sl
    a348:	e1a0000b 	mov	r0, fp
    a34c:	eb001201 	bl	eb58 <__sprint_r>
    a350:	e3500000 	cmp	r0, #0
    a354:	1afff8bd 	bne	8650 <_vfprintf_r+0x430>
    a358:	e59d4068 	ldr	r4, [sp, #104]	; 0x68
    a35c:	e59d2088 	ldr	r2, [sp, #136]	; 0x88
    a360:	e59d3084 	ldr	r3, [sp, #132]	; 0x84
    a364:	e28d708c 	add	r7, sp, #140	; 0x8c
    a368:	eafffcbc 	b	9660 <_vfprintf_r+0x1440>
    a36c:	e28d2080 	add	r2, sp, #128	; 0x80
    a370:	e1a0100a 	mov	r1, sl
    a374:	e1a0000b 	mov	r0, fp
    a378:	eb0011f6 	bl	eb58 <__sprint_r>
    a37c:	e3500000 	cmp	r0, #0
    a380:	1afff8b2 	bne	8650 <_vfprintf_r+0x430>
    a384:	e59d4068 	ldr	r4, [sp, #104]	; 0x68
    a388:	e59d2088 	ldr	r2, [sp, #136]	; 0x88
    a38c:	e28d708c 	add	r7, sp, #140	; 0x8c
    a390:	eafffc0b 	b	93c4 <_vfprintf_r+0x11a4>
    a394:	e3160001 	tst	r6, #1
    a398:	0afff91a 	beq	8808 <_vfprintf_r+0x5e8>
    a39c:	e59d3044 	ldr	r3, [sp, #68]	; 0x44
    a3a0:	e59d1048 	ldr	r1, [sp, #72]	; 0x48
    a3a4:	e0832002 	add	r2, r3, r2
    a3a8:	e887000a 	stm	r7, {r1, r3}
    a3ac:	e59d3084 	ldr	r3, [sp, #132]	; 0x84
    a3b0:	e58d2088 	str	r2, [sp, #136]	; 0x88
    a3b4:	e2833001 	add	r3, r3, #1
    a3b8:	e3530007 	cmp	r3, #7
    a3bc:	e58d3084 	str	r3, [sp, #132]	; 0x84
    a3c0:	caffffde 	bgt	a340 <_vfprintf_r+0x2120>
    a3c4:	e2877008 	add	r7, r7, #8
    a3c8:	eafffca6 	b	9668 <_vfprintf_r+0x1448>
    a3cc:	e59db01c 	ldr	fp, [sp, #28]
    a3d0:	e1a0a005 	mov	sl, r5
    a3d4:	eafff89e 	b	8654 <_vfprintf_r+0x434>
    a3d8:	e28d2080 	add	r2, sp, #128	; 0x80
    a3dc:	e1a0000b 	mov	r0, fp
    a3e0:	e58d1028 	str	r1, [sp, #40]	; 0x28
    a3e4:	eb0011db 	bl	eb58 <__sprint_r>
    a3e8:	e59d1028 	ldr	r1, [sp, #40]	; 0x28
    a3ec:	e3500000 	cmp	r0, #0
    a3f0:	1a0000fe 	bne	a7f0 <_vfprintf_r+0x25d0>
    a3f4:	e5d6c000 	ldrb	ip, [r6]
    a3f8:	e59d2088 	ldr	r2, [sp, #136]	; 0x88
    a3fc:	e28d008c 	add	r0, sp, #140	; 0x8c
    a400:	eaffff4d 	b	a13c <_vfprintf_r+0x1f1c>
    a404:	e3550045 	cmp	r5, #69	; 0x45
    a408:	1a00011a 	bne	a878 <_vfprintf_r+0x2658>
    a40c:	e28d3078 	add	r3, sp, #120	; 0x78
    a410:	e58d3004 	str	r3, [sp, #4]
    a414:	e28d306c 	add	r3, sp, #108	; 0x6c
    a418:	e2842001 	add	r2, r4, #1
    a41c:	e58d3000 	str	r3, [sp]
    a420:	eeb00b4c 	vmov.f64	d0, d12
    a424:	e28d3068 	add	r3, sp, #104	; 0x68
    a428:	e3a01002 	mov	r1, #2
    a42c:	e1a0000b 	mov	r0, fp
    a430:	e58d200c 	str	r2, [sp, #12]
    a434:	eb000219 	bl	aca0 <_dtoa_r>
    a438:	e59d200c 	ldr	r2, [sp, #12]
    a43c:	e58d0024 	str	r0, [sp, #36]	; 0x24
    a440:	e59d3024 	ldr	r3, [sp, #36]	; 0x24
    a444:	e0831002 	add	r1, r3, r2
    a448:	eafffee3 	b	9fdc <_vfprintf_r+0x1dbc>
    a44c:	e59d305c 	ldr	r3, [sp, #92]	; 0x5c
    a450:	e59d1054 	ldr	r1, [sp, #84]	; 0x54
    a454:	e0477003 	sub	r7, r7, r3
    a458:	e1a02003 	mov	r2, r3
    a45c:	e1a00007 	mov	r0, r7
    a460:	eb001162 	bl	e9f0 <strncpy>
    a464:	e5da3001 	ldrb	r3, [sl, #1]
    a468:	e1a00005 	mov	r0, r5
    a46c:	e3530000 	cmp	r3, #0
    a470:	e1a01009 	mov	r1, r9
    a474:	e3a0200a 	mov	r2, #10
    a478:	e3a03000 	mov	r3, #0
    a47c:	128aa001 	addne	sl, sl, #1
    a480:	e3a04000 	mov	r4, #0
    a484:	eb0054f7 	bl	1f868 <__aeabi_uldivmod>
    a488:	eafffd86 	b	9aa8 <_vfprintf_r+0x1888>
    a48c:	e58d400c 	str	r4, [sp, #12]
    a490:	e58d4018 	str	r4, [sp, #24]
    a494:	e5dd1063 	ldrb	r1, [sp, #99]	; 0x63
    a498:	e1a04000 	mov	r4, r0
    a49c:	e58d5020 	str	r5, [sp, #32]
    a4a0:	e58d0040 	str	r0, [sp, #64]	; 0x40
    a4a4:	e58d0038 	str	r0, [sp, #56]	; 0x38
    a4a8:	e58d0034 	str	r0, [sp, #52]	; 0x34
    a4ac:	eafff996 	b	8b0c <_vfprintf_r+0x8ec>
    a4b0:	e59d3034 	ldr	r3, [sp, #52]	; 0x34
    a4b4:	e59d203c 	ldr	r2, [sp, #60]	; 0x3c
    a4b8:	e59d1044 	ldr	r1, [sp, #68]	; 0x44
    a4bc:	e3530000 	cmp	r3, #0
    a4c0:	e0822001 	add	r2, r2, r1
    a4c4:	c3a03067 	movgt	r3, #103	; 0x67
    a4c8:	e58d2018 	str	r2, [sp, #24]
    a4cc:	c58d3030 	strgt	r3, [sp, #48]	; 0x30
    a4d0:	caffff03 	bgt	a0e4 <_vfprintf_r+0x1ec4>
    a4d4:	e2633001 	rsb	r3, r3, #1
    a4d8:	e0823003 	add	r3, r2, r3
    a4dc:	e58d3018 	str	r3, [sp, #24]
    a4e0:	e1c33fc3 	bic	r3, r3, r3, asr #31
    a4e4:	e58d300c 	str	r3, [sp, #12]
    a4e8:	e3a03067 	mov	r3, #103	; 0x67
    a4ec:	e58d3030 	str	r3, [sp, #48]	; 0x30
    a4f0:	eafffee4 	b	a088 <_vfprintf_r+0x1e68>
    a4f4:	e28d2080 	add	r2, sp, #128	; 0x80
    a4f8:	e1a0100a 	mov	r1, sl
    a4fc:	e1a0000b 	mov	r0, fp
    a500:	eb001194 	bl	eb58 <__sprint_r>
    a504:	e3500000 	cmp	r0, #0
    a508:	1afff850 	bne	8650 <_vfprintf_r+0x430>
    a50c:	e59d4068 	ldr	r4, [sp, #104]	; 0x68
    a510:	e59d303c 	ldr	r3, [sp, #60]	; 0x3c
    a514:	e59d2088 	ldr	r2, [sp, #136]	; 0x88
    a518:	e0434004 	sub	r4, r3, r4
    a51c:	e28d708c 	add	r7, sp, #140	; 0x8c
    a520:	eafffbba 	b	9410 <_vfprintf_r+0x11f0>
    a524:	ee1d0a10 	vmov	r0, s26
    a528:	e28d2080 	add	r2, sp, #128	; 0x80
    a52c:	e1a0100a 	mov	r1, sl
    a530:	eb001188 	bl	eb58 <__sprint_r>
    a534:	e3500000 	cmp	r0, #0
    a538:	0afffd88 	beq	9b60 <_vfprintf_r+0x1940>
    a53c:	eafff849 	b	8668 <_vfprintf_r+0x448>
    a540:	e3740010 	cmn	r4, #16
    a544:	e2644000 	rsb	r4, r4, #0
    a548:	aa000022 	bge	a5d8 <_vfprintf_r+0x23b8>
    a54c:	e3a05010 	mov	r5, #16
    a550:	ea000002 	b	a560 <_vfprintf_r+0x2340>
    a554:	e2444010 	sub	r4, r4, #16
    a558:	e3540010 	cmp	r4, #16
    a55c:	da00001d 	ble	a5d8 <_vfprintf_r+0x23b8>
    a560:	e2833001 	add	r3, r3, #1
    a564:	e51f19e4 	ldr	r1, [pc, #-2532]	; 9b88 <_vfprintf_r+0x1968>
    a568:	e2822010 	add	r2, r2, #16
    a56c:	e3530007 	cmp	r3, #7
    a570:	e8870022 	stm	r7, {r1, r5}
    a574:	e58d2088 	str	r2, [sp, #136]	; 0x88
    a578:	d2877008 	addle	r7, r7, #8
    a57c:	e58d3084 	str	r3, [sp, #132]	; 0x84
    a580:	dafffff3 	ble	a554 <_vfprintf_r+0x2334>
    a584:	e28d2080 	add	r2, sp, #128	; 0x80
    a588:	e1a0100a 	mov	r1, sl
    a58c:	e1a0000b 	mov	r0, fp
    a590:	eb001170 	bl	eb58 <__sprint_r>
    a594:	e3500000 	cmp	r0, #0
    a598:	1afff82c 	bne	8650 <_vfprintf_r+0x430>
    a59c:	e59d2088 	ldr	r2, [sp, #136]	; 0x88
    a5a0:	e59d3084 	ldr	r3, [sp, #132]	; 0x84
    a5a4:	e28d708c 	add	r7, sp, #140	; 0x8c
    a5a8:	eaffffe9 	b	a554 <_vfprintf_r+0x2334>
    a5ac:	e59a3064 	ldr	r3, [sl, #100]	; 0x64
    a5b0:	e3130001 	tst	r3, #1
    a5b4:	1a000004 	bne	a5cc <_vfprintf_r+0x23ac>
    a5b8:	e1da30bc 	ldrh	r3, [sl, #12]
    a5bc:	e3130c02 	tst	r3, #512	; 0x200
    a5c0:	1a000001 	bne	a5cc <_vfprintf_r+0x23ac>
    a5c4:	e59a0058 	ldr	r0, [sl, #88]	; 0x58
    a5c8:	eb000984 	bl	cbe0 <__retarget_lock_release_recursive>
    a5cc:	e3e03000 	mvn	r3, #0
    a5d0:	e58d3014 	str	r3, [sp, #20]
    a5d4:	eafff829 	b	8680 <_vfprintf_r+0x460>
    a5d8:	e2833001 	add	r3, r3, #1
    a5dc:	e51f1a5c 	ldr	r1, [pc, #-2652]	; 9b88 <_vfprintf_r+0x1968>
    a5e0:	e0822004 	add	r2, r2, r4
    a5e4:	e3530007 	cmp	r3, #7
    a5e8:	e5874004 	str	r4, [r7, #4]
    a5ec:	e5871000 	str	r1, [r7]
    a5f0:	e58d2088 	str	r2, [sp, #136]	; 0x88
    a5f4:	e58d3084 	str	r3, [sp, #132]	; 0x84
    a5f8:	daffff71 	ble	a3c4 <_vfprintf_r+0x21a4>
    a5fc:	e28d2080 	add	r2, sp, #128	; 0x80
    a600:	e1a0100a 	mov	r1, sl
    a604:	e1a0000b 	mov	r0, fp
    a608:	eb001152 	bl	eb58 <__sprint_r>
    a60c:	e3500000 	cmp	r0, #0
    a610:	1afff80e 	bne	8650 <_vfprintf_r+0x430>
    a614:	e59d2088 	ldr	r2, [sp, #136]	; 0x88
    a618:	e59d3084 	ldr	r3, [sp, #132]	; 0x84
    a61c:	e28d708c 	add	r7, sp, #140	; 0x8c
    a620:	eafffc10 	b	9668 <_vfprintf_r+0x1448>
    a624:	e3a03067 	mov	r3, #103	; 0x67
    a628:	e58d3030 	str	r3, [sp, #48]	; 0x30
    a62c:	e59d1058 	ldr	r1, [sp, #88]	; 0x58
    a630:	e5d13000 	ldrb	r3, [r1]
    a634:	e35300ff 	cmp	r3, #255	; 0xff
    a638:	0a000083 	beq	a84c <_vfprintf_r+0x262c>
    a63c:	e3a0c000 	mov	ip, #0
    a640:	e59d2034 	ldr	r2, [sp, #52]	; 0x34
    a644:	e1a0000c 	mov	r0, ip
    a648:	ea000008 	b	a670 <_vfprintf_r+0x2450>
    a64c:	e0422003 	sub	r2, r2, r3
    a650:	e5d13001 	ldrb	r3, [r1, #1]
    a654:	e3530000 	cmp	r3, #0
    a658:	05d13000 	ldrbeq	r3, [r1]
    a65c:	12800001 	addne	r0, r0, #1
    a660:	12811001 	addne	r1, r1, #1
    a664:	028cc001 	addeq	ip, ip, #1
    a668:	e35300ff 	cmp	r3, #255	; 0xff
    a66c:	0a000001 	beq	a678 <_vfprintf_r+0x2458>
    a670:	e1530002 	cmp	r3, r2
    a674:	bafffff4 	blt	a64c <_vfprintf_r+0x242c>
    a678:	e58d2034 	str	r2, [sp, #52]	; 0x34
    a67c:	e58d1058 	str	r1, [sp, #88]	; 0x58
    a680:	e58d0038 	str	r0, [sp, #56]	; 0x38
    a684:	e58dc040 	str	ip, [sp, #64]	; 0x40
    a688:	e59d2040 	ldr	r2, [sp, #64]	; 0x40
    a68c:	e59d3038 	ldr	r3, [sp, #56]	; 0x38
    a690:	e59d1018 	ldr	r1, [sp, #24]
    a694:	e0833002 	add	r3, r3, r2
    a698:	e59d205c 	ldr	r2, [sp, #92]	; 0x5c
    a69c:	e59d601c 	ldr	r6, [sp, #28]
    a6a0:	e0221293 	mla	r2, r3, r2, r1
    a6a4:	e3a03000 	mov	r3, #0
    a6a8:	e58d301c 	str	r3, [sp, #28]
    a6ac:	e1c23fc2 	bic	r3, r2, r2, asr #31
    a6b0:	e58d2018 	str	r2, [sp, #24]
    a6b4:	e58d300c 	str	r3, [sp, #12]
    a6b8:	eafffdf4 	b	9e90 <_vfprintf_r+0x1c70>
    a6bc:	e3a04001 	mov	r4, #1
    a6c0:	eeb1cb48 	vneg.f64	d12, d8
    a6c4:	e3a0902d 	mov	r9, #45	; 0x2d
    a6c8:	eafffe27 	b	9f6c <_vfprintf_r+0x1d4c>
    a6cc:	e59d3044 	ldr	r3, [sp, #68]	; 0x44
    a6d0:	e0823003 	add	r3, r2, r3
    a6d4:	e0833004 	add	r3, r3, r4
    a6d8:	e58d3018 	str	r3, [sp, #24]
    a6dc:	e3a03066 	mov	r3, #102	; 0x66
    a6e0:	e58d3030 	str	r3, [sp, #48]	; 0x30
    a6e4:	eafffe7e 	b	a0e4 <_vfprintf_r+0x1ec4>
    a6e8:	e59d3034 	ldr	r3, [sp, #52]	; 0x34
    a6ec:	e58d3018 	str	r3, [sp, #24]
    a6f0:	eafffe5a 	b	a060 <_vfprintf_r+0x1e40>
    a6f4:	e3550041 	cmp	r5, #65	; 0x41
    a6f8:	13a02030 	movne	r2, #48	; 0x30
    a6fc:	028d2072 	addeq	r2, sp, #114	; 0x72
    a700:	e2833030 	add	r3, r3, #48	; 0x30
    a704:	15cd2072 	strbne	r2, [sp, #114]	; 0x72
    a708:	128d2073 	addne	r2, sp, #115	; 0x73
    a70c:	e4c23001 	strb	r3, [r2], #1
    a710:	e28d3070 	add	r3, sp, #112	; 0x70
    a714:	e0423003 	sub	r3, r2, r3
    a718:	e58d3050 	str	r3, [sp, #80]	; 0x50
    a71c:	eafffdc8 	b	9e44 <_vfprintf_r+0x1c24>
    a720:	e58dc078 	str	ip, [sp, #120]	; 0x78
    a724:	e5d0c00f 	ldrb	ip, [r0, #15]
    a728:	e5531001 	ldrb	r1, [r3, #-1]
    a72c:	e1a02003 	mov	r2, r3
    a730:	e151000c 	cmp	r1, ip
    a734:	1a000007 	bne	a758 <_vfprintf_r+0x2538>
    a738:	e3a0e030 	mov	lr, #48	; 0x30
    a73c:	e542e001 	strb	lr, [r2, #-1]
    a740:	e59d2078 	ldr	r2, [sp, #120]	; 0x78
    a744:	e2421001 	sub	r1, r2, #1
    a748:	e58d1078 	str	r1, [sp, #120]	; 0x78
    a74c:	e5521001 	ldrb	r1, [r2, #-1]
    a750:	e15c0001 	cmp	ip, r1
    a754:	0afffff8 	beq	a73c <_vfprintf_r+0x251c>
    a758:	e3510039 	cmp	r1, #57	; 0x39
    a75c:	12811001 	addne	r1, r1, #1
    a760:	05d0100a 	ldrbeq	r1, [r0, #10]
    a764:	120110ff 	andne	r1, r1, #255	; 0xff
    a768:	e5421001 	strb	r1, [r2, #-1]
    a76c:	eafffc17 	b	97d0 <_vfprintf_r+0x15b0>
    a770:	ee183a90 	vmov	r3, s17
    a774:	e51f2bf0 	ldr	r2, [pc, #-3056]	; 9b8c <_vfprintf_r+0x196c>
    a778:	e3c66080 	bic	r6, r6, #128	; 0x80
    a77c:	e3530000 	cmp	r3, #0
    a780:	b3a0102d 	movlt	r1, #45	; 0x2d
    a784:	a5dd1063 	ldrbge	r1, [sp, #99]	; 0x63
    a788:	e51f3c00 	ldr	r3, [pc, #-3072]	; 9b90 <_vfprintf_r+0x1970>
    a78c:	b5cd1063 	strblt	r1, [sp, #99]	; 0x63
    a790:	eafff847 	b	88b4 <_vfprintf_r+0x694>
    a794:	e58d6058 	str	r6, [sp, #88]	; 0x58
    a798:	e59d8030 	ldr	r8, [sp, #48]	; 0x30
    a79c:	e59d602c 	ldr	r6, [sp, #44]	; 0x2c
    a7a0:	e1a07000 	mov	r7, r0
    a7a4:	e1a0a001 	mov	sl, r1
    a7a8:	e59d3018 	ldr	r3, [sp, #24]
    a7ac:	e1590003 	cmp	r9, r3
    a7b0:	21a09003 	movcs	r9, r3
    a7b4:	eafffaf1 	b	9380 <_vfprintf_r+0x1160>
    a7b8:	e3160001 	tst	r6, #1
    a7bc:	0afffdaa 	beq	9e6c <_vfprintf_r+0x1c4c>
    a7c0:	eafffda5 	b	9e5c <_vfprintf_r+0x1c3c>
    a7c4:	e2643001 	rsb	r3, r4, #1
    a7c8:	e58d3068 	str	r3, [sp, #104]	; 0x68
    a7cc:	eafffdff 	b	9fd0 <_vfprintf_r+0x1db0>
    a7d0:	e59d2020 	ldr	r2, [sp, #32]
    a7d4:	e5d83001 	ldrb	r3, [r8, #1]
    a7d8:	e4924004 	ldr	r4, [r2], #4
    a7dc:	e1a08001 	mov	r8, r1
    a7e0:	e1540005 	cmp	r4, r5
    a7e4:	b1a04005 	movlt	r4, r5
    a7e8:	e58d2020 	str	r2, [sp, #32]
    a7ec:	eafff6ef 	b	83b0 <_vfprintf_r+0x190>
    a7f0:	e59db01c 	ldr	fp, [sp, #28]
    a7f4:	e1a0a001 	mov	sl, r1
    a7f8:	eafff795 	b	8654 <_vfprintf_r+0x434>
    a7fc:	e1933004 	orrs	r3, r3, r4
    a800:	1a000005 	bne	a81c <_vfprintf_r+0x25fc>
    a804:	e3a03001 	mov	r3, #1
    a808:	e3a02066 	mov	r2, #102	; 0x66
    a80c:	e58d300c 	str	r3, [sp, #12]
    a810:	e58d2030 	str	r2, [sp, #48]	; 0x30
    a814:	e58d3018 	str	r3, [sp, #24]
    a818:	eafffe1a 	b	a088 <_vfprintf_r+0x1e68>
    a81c:	e59d3044 	ldr	r3, [sp, #68]	; 0x44
    a820:	e2833001 	add	r3, r3, #1
    a824:	e0833004 	add	r3, r3, r4
    a828:	e58d3018 	str	r3, [sp, #24]
    a82c:	e1c33fc3 	bic	r3, r3, r3, asr #31
    a830:	e58d300c 	str	r3, [sp, #12]
    a834:	e3a03066 	mov	r3, #102	; 0x66
    a838:	e58d3030 	str	r3, [sp, #48]	; 0x30
    a83c:	eafffe11 	b	a088 <_vfprintf_r+0x1e68>
    a840:	e3a03000 	mov	r3, #0
    a844:	e58d301c 	str	r3, [sp, #28]
    a848:	eafffbe4 	b	97e0 <_vfprintf_r+0x15c0>
    a84c:	e3a03000 	mov	r3, #0
    a850:	e58d3040 	str	r3, [sp, #64]	; 0x40
    a854:	e58d3038 	str	r3, [sp, #56]	; 0x38
    a858:	eaffff8a 	b	a688 <_vfprintf_r+0x2468>
    a85c:	e1da30bc 	ldrh	r3, [sl, #12]
    a860:	e3833040 	orr	r3, r3, #64	; 0x40
    a864:	e1ca30bc 	strh	r3, [sl, #12]
    a868:	eafff77e 	b	8668 <_vfprintf_r+0x448>
    a86c:	e3a03002 	mov	r3, #2
    a870:	e58d3050 	str	r3, [sp, #80]	; 0x50
    a874:	eafffd72 	b	9e44 <_vfprintf_r+0x1c24>
    a878:	e1a02004 	mov	r2, r4
    a87c:	eafffd18 	b	9ce4 <_vfprintf_r+0x1ac4>
    a880:	e58d3018 	str	r3, [sp, #24]
    a884:	eaffffc7 	b	a7a8 <_vfprintf_r+0x2588>

0000a888 <vfprintf>:
vfprintf():
    a888:	e52de004 	push	{lr}		; (str lr, [sp, #-4]!)
    a88c:	e59fe018 	ldr	lr, [pc, #24]	; a8ac <vfprintf+0x24>
    a890:	e1a0c000 	mov	ip, r0
    a894:	e1a03002 	mov	r3, r2
    a898:	e59e0000 	ldr	r0, [lr]
    a89c:	e1a02001 	mov	r2, r1
    a8a0:	e49de004 	pop	{lr}		; (ldr lr, [sp], #4)
    a8a4:	e1a0100c 	mov	r1, ip
    a8a8:	eafff65c 	b	8220 <_vfprintf_r>
    a8ac:	000397e8 	andeq	r9, r3, r8, ror #15

0000a8b0 <__sbprintf>:
__sbprintf():
    a8b0:	e92d40f0 	push	{r4, r5, r6, r7, lr}
    a8b4:	e1a04001 	mov	r4, r1
    a8b8:	e1d110bc 	ldrh	r1, [r1, #12]
    a8bc:	e24dde47 	sub	sp, sp, #1136	; 0x470
    a8c0:	e24dd004 	sub	sp, sp, #4
    a8c4:	e3c11002 	bic	r1, r1, #2
    a8c8:	e1cd11b4 	strh	r1, [sp, #20]
    a8cc:	e5941064 	ldr	r1, [r4, #100]	; 0x64
    a8d0:	e58d106c 	str	r1, [sp, #108]	; 0x6c
    a8d4:	e1d410be 	ldrh	r1, [r4, #14]
    a8d8:	e1cd11b6 	strh	r1, [sp, #22]
    a8dc:	e594101c 	ldr	r1, [r4, #28]
    a8e0:	e58d1024 	str	r1, [sp, #36]	; 0x24
    a8e4:	e5941024 	ldr	r1, [r4, #36]	; 0x24
    a8e8:	e58d102c 	str	r1, [sp, #44]	; 0x2c
    a8ec:	e28d1070 	add	r1, sp, #112	; 0x70
    a8f0:	e58d1008 	str	r1, [sp, #8]
    a8f4:	e58d1018 	str	r1, [sp, #24]
    a8f8:	e3a01b01 	mov	r1, #1024	; 0x400
    a8fc:	e1a06000 	mov	r6, r0
    a900:	e58d1010 	str	r1, [sp, #16]
    a904:	e28d0060 	add	r0, sp, #96	; 0x60
    a908:	e58d101c 	str	r1, [sp, #28]
    a90c:	e28d7008 	add	r7, sp, #8
    a910:	e3a01000 	mov	r1, #0
    a914:	e58d2004 	str	r2, [sp, #4]
    a918:	e58d3000 	str	r3, [sp]
    a91c:	e58d1020 	str	r1, [sp, #32]
    a920:	eb0008a4 	bl	cbb8 <__retarget_lock_init_recursive>
    a924:	e59d3000 	ldr	r3, [sp]
    a928:	e59d2004 	ldr	r2, [sp, #4]
    a92c:	e1a01007 	mov	r1, r7
    a930:	e1a00006 	mov	r0, r6
    a934:	ebfff639 	bl	8220 <_vfprintf_r>
    a938:	e2505000 	subs	r5, r0, #0
    a93c:	ba000004 	blt	a954 <__sbprintf+0xa4>
    a940:	e1a01007 	mov	r1, r7
    a944:	e1a00006 	mov	r0, r6
    a948:	eb000605 	bl	c164 <_fflush_r>
    a94c:	e3500000 	cmp	r0, #0
    a950:	13e05000 	mvnne	r5, #0
    a954:	e1dd31b4 	ldrh	r3, [sp, #20]
    a958:	e59d0060 	ldr	r0, [sp, #96]	; 0x60
    a95c:	e3130040 	tst	r3, #64	; 0x40
    a960:	11d430bc 	ldrhne	r3, [r4, #12]
    a964:	13833040 	orrne	r3, r3, #64	; 0x40
    a968:	11c430bc 	strhne	r3, [r4, #12]
    a96c:	eb000893 	bl	cbc0 <__retarget_lock_close_recursive>
    a970:	e1a00005 	mov	r0, r5
    a974:	e28dde47 	add	sp, sp, #1136	; 0x470
    a978:	e28dd004 	add	sp, sp, #4
    a97c:	e8bd80f0 	pop	{r4, r5, r6, r7, pc}

0000a980 <__swsetup_r>:
__swsetup_r():
    a980:	e59f3154 	ldr	r3, [pc, #340]	; aadc <__swsetup_r+0x15c>
    a984:	e92d4070 	push	{r4, r5, r6, lr}
    a988:	e5933000 	ldr	r3, [r3]
    a98c:	e1a05000 	mov	r5, r0
    a990:	e3530000 	cmp	r3, #0
    a994:	e1a04001 	mov	r4, r1
    a998:	0a000002 	beq	a9a8 <__swsetup_r+0x28>
    a99c:	e5932038 	ldr	r2, [r3, #56]	; 0x38
    a9a0:	e3520000 	cmp	r2, #0
    a9a4:	0a00001d 	beq	aa20 <__swsetup_r+0xa0>
    a9a8:	e1d420fc 	ldrsh	r2, [r4, #12]
    a9ac:	e1a03802 	lsl	r3, r2, #16
    a9b0:	e3120008 	tst	r2, #8
    a9b4:	e1a03823 	lsr	r3, r3, #16
    a9b8:	0a00001b 	beq	aa2c <__swsetup_r+0xac>
    a9bc:	e5941010 	ldr	r1, [r4, #16]
    a9c0:	e3510000 	cmp	r1, #0
    a9c4:	0a000023 	beq	aa58 <__swsetup_r+0xd8>
    a9c8:	e2130001 	ands	r0, r3, #1
    a9cc:	1a000006 	bne	a9ec <__swsetup_r+0x6c>
    a9d0:	e3130002 	tst	r3, #2
    a9d4:	05940014 	ldreq	r0, [r4, #20]
    a9d8:	e3510000 	cmp	r1, #0
    a9dc:	e5840008 	str	r0, [r4, #8]
    a9e0:	0a000008 	beq	aa08 <__swsetup_r+0x88>
    a9e4:	e3a00000 	mov	r0, #0
    a9e8:	e8bd8070 	pop	{r4, r5, r6, pc}
    a9ec:	e3a00000 	mov	r0, #0
    a9f0:	e5840008 	str	r0, [r4, #8]
    a9f4:	e5940014 	ldr	r0, [r4, #20]
    a9f8:	e3510000 	cmp	r1, #0
    a9fc:	e2600000 	rsb	r0, r0, #0
    aa00:	e5840018 	str	r0, [r4, #24]
    aa04:	1afffff6 	bne	a9e4 <__swsetup_r+0x64>
    aa08:	e3130080 	tst	r3, #128	; 0x80
    aa0c:	0afffff4 	beq	a9e4 <__swsetup_r+0x64>
    aa10:	e3822040 	orr	r2, r2, #64	; 0x40
    aa14:	e3e00000 	mvn	r0, #0
    aa18:	e1c420bc 	strh	r2, [r4, #12]
    aa1c:	e8bd8070 	pop	{r4, r5, r6, pc}
    aa20:	e1a00003 	mov	r0, r3
    aa24:	eb000658 	bl	c38c <__sinit>
    aa28:	eaffffde 	b	a9a8 <__swsetup_r+0x28>
    aa2c:	e3130010 	tst	r3, #16
    aa30:	0a000023 	beq	aac4 <__swsetup_r+0x144>
    aa34:	e3130004 	tst	r3, #4
    aa38:	1a000011 	bne	aa84 <__swsetup_r+0x104>
    aa3c:	e5941010 	ldr	r1, [r4, #16]
    aa40:	e3822008 	orr	r2, r2, #8
    aa44:	e1a03802 	lsl	r3, r2, #16
    aa48:	e3510000 	cmp	r1, #0
    aa4c:	e1a03823 	lsr	r3, r3, #16
    aa50:	e1c420bc 	strh	r2, [r4, #12]
    aa54:	1affffdb 	bne	a9c8 <__swsetup_r+0x48>
    aa58:	e2030d0a 	and	r0, r3, #640	; 0x280
    aa5c:	e3500c02 	cmp	r0, #512	; 0x200
    aa60:	0affffd8 	beq	a9c8 <__swsetup_r+0x48>
    aa64:	e1a01004 	mov	r1, r4
    aa68:	e1a00005 	mov	r0, r5
    aa6c:	eb00085c 	bl	cbe4 <__smakebuf_r>
    aa70:	e1d420fc 	ldrsh	r2, [r4, #12]
    aa74:	e5941010 	ldr	r1, [r4, #16]
    aa78:	e1a03802 	lsl	r3, r2, #16
    aa7c:	e1a03823 	lsr	r3, r3, #16
    aa80:	eaffffd0 	b	a9c8 <__swsetup_r+0x48>
    aa84:	e5941030 	ldr	r1, [r4, #48]	; 0x30
    aa88:	e3510000 	cmp	r1, #0
    aa8c:	0a000007 	beq	aab0 <__swsetup_r+0x130>
    aa90:	e2843040 	add	r3, r4, #64	; 0x40
    aa94:	e1510003 	cmp	r1, r3
    aa98:	0a000002 	beq	aaa8 <__swsetup_r+0x128>
    aa9c:	e1a00005 	mov	r0, r5
    aaa0:	eb000747 	bl	c7c4 <_free_r>
    aaa4:	e1d420fc 	ldrsh	r2, [r4, #12]
    aaa8:	e3a03000 	mov	r3, #0
    aaac:	e5843030 	str	r3, [r4, #48]	; 0x30
    aab0:	e5941010 	ldr	r1, [r4, #16]
    aab4:	e3a03000 	mov	r3, #0
    aab8:	e3c22024 	bic	r2, r2, #36	; 0x24
    aabc:	e884000a 	stm	r4, {r1, r3}
    aac0:	eaffffde 	b	aa40 <__swsetup_r+0xc0>
    aac4:	e3a03009 	mov	r3, #9
    aac8:	e3822040 	orr	r2, r2, #64	; 0x40
    aacc:	e5853000 	str	r3, [r5]
    aad0:	e3e00000 	mvn	r0, #0
    aad4:	e1c420bc 	strh	r2, [r4, #12]
    aad8:	e8bd8070 	pop	{r4, r5, r6, pc}
    aadc:	000397e8 	andeq	r9, r3, r8, ror #15

0000aae0 <quorem>:
quorem():
    aae0:	e92d4ff0 	push	{r4, r5, r6, r7, r8, r9, sl, fp, lr}
    aae4:	e5903010 	ldr	r3, [r0, #16]
    aae8:	e5914010 	ldr	r4, [r1, #16]
    aaec:	e24dd014 	sub	sp, sp, #20
    aaf0:	e1530004 	cmp	r3, r4
    aaf4:	b3a00000 	movlt	r0, #0
    aaf8:	e58d1004 	str	r1, [sp, #4]
    aafc:	ba000063 	blt	ac90 <quorem+0x1b0>
    ab00:	e2444001 	sub	r4, r4, #1
    ab04:	e2815014 	add	r5, r1, #20
    ab08:	e2808014 	add	r8, r0, #20
    ab0c:	e7957104 	ldr	r7, [r5, r4, lsl #2]
    ab10:	e798a104 	ldr	sl, [r8, r4, lsl #2]
    ab14:	e2877001 	add	r7, r7, #1
    ab18:	e1a03104 	lsl	r3, r4, #2
    ab1c:	e1a01007 	mov	r1, r7
    ab20:	e1a09000 	mov	r9, r0
    ab24:	e1a0000a 	mov	r0, sl
    ab28:	e58d3008 	str	r3, [sp, #8]
    ab2c:	eb005204 	bl	1f344 <__udivsi3>
    ab30:	e15a0007 	cmp	sl, r7
    ab34:	e0883104 	add	r3, r8, r4, lsl #2
    ab38:	e0857104 	add	r7, r5, r4, lsl #2
    ab3c:	e58d300c 	str	r3, [sp, #12]
    ab40:	e1a06000 	mov	r6, r0
    ab44:	3a000029 	bcc	abf0 <quorem+0x110>
    ab48:	e3a01000 	mov	r1, #0
    ab4c:	e59fc144 	ldr	ip, [pc, #324]	; ac98 <quorem+0x1b8>
    ab50:	e1a0a005 	mov	sl, r5
    ab54:	e1a0e008 	mov	lr, r8
    ab58:	e1a02001 	mov	r2, r1
    ab5c:	e49a0004 	ldr	r0, [sl], #4
    ab60:	e59eb000 	ldr	fp, [lr]
    ab64:	e000300c 	and	r3, r0, ip
    ab68:	e0211396 	mla	r1, r6, r3, r1
    ab6c:	e1a00820 	lsr	r0, r0, #16
    ab70:	e1a03821 	lsr	r3, r1, #16
    ab74:	e0203096 	mla	r0, r6, r0, r3
    ab78:	e001300c 	and	r3, r1, ip
    ab7c:	e0423003 	sub	r3, r2, r3
    ab80:	e00b200c 	and	r2, fp, ip
    ab84:	e0833002 	add	r3, r3, r2
    ab88:	e000200c 	and	r2, r0, ip
    ab8c:	e062282b 	rsb	r2, r2, fp, lsr #16
    ab90:	e0822843 	add	r2, r2, r3, asr #16
    ab94:	e003300c 	and	r3, r3, ip
    ab98:	e1831802 	orr	r1, r3, r2, lsl #16
    ab9c:	e157000a 	cmp	r7, sl
    aba0:	e48e1004 	str	r1, [lr], #4
    aba4:	e1a02842 	asr	r2, r2, #16
    aba8:	e1a01820 	lsr	r1, r0, #16
    abac:	2affffea 	bcs	ab5c <quorem+0x7c>
    abb0:	e59d3008 	ldr	r3, [sp, #8]
    abb4:	e7983003 	ldr	r3, [r8, r3]
    abb8:	e3530000 	cmp	r3, #0
    abbc:	1a00000b 	bne	abf0 <quorem+0x110>
    abc0:	e59d300c 	ldr	r3, [sp, #12]
    abc4:	e2433004 	sub	r3, r3, #4
    abc8:	e1580003 	cmp	r8, r3
    abcc:	3a000003 	bcc	abe0 <quorem+0x100>
    abd0:	ea000005 	b	abec <quorem+0x10c>
    abd4:	e1580003 	cmp	r8, r3
    abd8:	e2444001 	sub	r4, r4, #1
    abdc:	2a000002 	bcs	abec <quorem+0x10c>
    abe0:	e4132004 	ldr	r2, [r3], #-4
    abe4:	e3520000 	cmp	r2, #0
    abe8:	0afffff9 	beq	abd4 <quorem+0xf4>
    abec:	e5894010 	str	r4, [r9, #16]
    abf0:	e59d1004 	ldr	r1, [sp, #4]
    abf4:	e1a00009 	mov	r0, r9
    abf8:	eb000d68 	bl	e1a0 <__mcmp>
    abfc:	e3500000 	cmp	r0, #0
    ac00:	ba000021 	blt	ac8c <quorem+0x1ac>
    ac04:	e59f008c 	ldr	r0, [pc, #140]	; ac98 <quorem+0x1b8>
    ac08:	e2866001 	add	r6, r6, #1
    ac0c:	e1a01008 	mov	r1, r8
    ac10:	e3a02000 	mov	r2, #0
    ac14:	e495c004 	ldr	ip, [r5], #4
    ac18:	e591e000 	ldr	lr, [r1]
    ac1c:	e00c3000 	and	r3, ip, r0
    ac20:	e0422003 	sub	r2, r2, r3
    ac24:	e1a0c82c 	lsr	ip, ip, #16
    ac28:	e00e3000 	and	r3, lr, r0
    ac2c:	e0823003 	add	r3, r2, r3
    ac30:	e06cc82e 	rsb	ip, ip, lr, lsr #16
    ac34:	e08c2843 	add	r2, ip, r3, asr #16
    ac38:	e0033000 	and	r3, r3, r0
    ac3c:	e1833802 	orr	r3, r3, r2, lsl #16
    ac40:	e1570005 	cmp	r7, r5
    ac44:	e1a02842 	asr	r2, r2, #16
    ac48:	e4813004 	str	r3, [r1], #4
    ac4c:	2afffff0 	bcs	ac14 <quorem+0x134>
    ac50:	e7982104 	ldr	r2, [r8, r4, lsl #2]
    ac54:	e0883104 	add	r3, r8, r4, lsl #2
    ac58:	e3520000 	cmp	r2, #0
    ac5c:	1a00000a 	bne	ac8c <quorem+0x1ac>
    ac60:	e2433004 	sub	r3, r3, #4
    ac64:	e1580003 	cmp	r8, r3
    ac68:	3a000003 	bcc	ac7c <quorem+0x19c>
    ac6c:	ea000005 	b	ac88 <quorem+0x1a8>
    ac70:	e1580003 	cmp	r8, r3
    ac74:	e2444001 	sub	r4, r4, #1
    ac78:	2a000002 	bcs	ac88 <quorem+0x1a8>
    ac7c:	e4132004 	ldr	r2, [r3], #-4
    ac80:	e3520000 	cmp	r2, #0
    ac84:	0afffff9 	beq	ac70 <quorem+0x190>
    ac88:	e5894010 	str	r4, [r9, #16]
    ac8c:	e1a00006 	mov	r0, r6
    ac90:	e28dd014 	add	sp, sp, #20
    ac94:	e8bd8ff0 	pop	{r4, r5, r6, r7, r8, r9, sl, fp, pc}
    ac98:	0000ffff 	strdeq	pc, [r0], -pc	; <UNPREDICTABLE>
    ac9c:	00000000 	andeq	r0, r0, r0

0000aca0 <_dtoa_r>:
_dtoa_r():
    aca0:	e92d4ff0 	push	{r4, r5, r6, r7, r8, r9, sl, fp, lr}
    aca4:	ed2d8b02 	vpush	{d8}
    aca8:	ec576b10 	vmov	r6, r7, d0
    acac:	e1a04000 	mov	r4, r0
    acb0:	e24dd03c 	sub	sp, sp, #60	; 0x3c
    acb4:	e58d1008 	str	r1, [sp, #8]
    acb8:	e5901040 	ldr	r1, [r0, #64]	; 0x40
    acbc:	ed8d0b00 	vstr	d0, [sp]
    acc0:	e3510000 	cmp	r1, #0
    acc4:	e59d5068 	ldr	r5, [sp, #104]	; 0x68
    acc8:	e58d2018 	str	r2, [sp, #24]
    accc:	e58d3014 	str	r3, [sp, #20]
    acd0:	0a000007 	beq	acf4 <_dtoa_r+0x54>
    acd4:	e5902044 	ldr	r2, [r0, #68]	; 0x44
    acd8:	e3a03001 	mov	r3, #1
    acdc:	e1a03213 	lsl	r3, r3, r2
    ace0:	e5812004 	str	r2, [r1, #4]
    ace4:	e5813008 	str	r3, [r1, #8]
    ace8:	eb000b1e 	bl	d968 <_Bfree>
    acec:	e3a03000 	mov	r3, #0
    acf0:	e5843040 	str	r3, [r4, #64]	; 0x40
    acf4:	e2578000 	subs	r8, r7, #0
    acf8:	b3a03001 	movlt	r3, #1
    acfc:	a3a03000 	movge	r3, #0
    ad00:	e5853000 	str	r3, [r5]
    ad04:	e59f34a4 	ldr	r3, [pc, #1188]	; b1b0 <_dtoa_r+0x510>
    ad08:	b3c88102 	biclt	r8, r8, #-2147483648	; 0x80000000
    ad0c:	b58d8004 	strlt	r8, [sp, #4]
    ad10:	e1d33008 	bics	r3, r3, r8
    ad14:	0a000067 	beq	aeb8 <_dtoa_r+0x218>
    ad18:	ed9d8b00 	vldr	d8, [sp]
    ad1c:	eeb58b40 	vcmp.f64	d8, #0.0
    ad20:	eef1fa10 	vmrs	APSR_nzcv, fpscr
    ad24:	1a00000d 	bne	ad60 <_dtoa_r+0xc0>
    ad28:	e59d206c 	ldr	r2, [sp, #108]	; 0x6c
    ad2c:	e3a03001 	mov	r3, #1
    ad30:	e3520000 	cmp	r2, #0
    ad34:	e59d2014 	ldr	r2, [sp, #20]
    ad38:	e5823000 	str	r3, [r2]
    ad3c:	0a0001c5 	beq	b458 <_dtoa_r+0x7b8>
    ad40:	e59f846c 	ldr	r8, [pc, #1132]	; b1b4 <_dtoa_r+0x514>
    ad44:	e59d306c 	ldr	r3, [sp, #108]	; 0x6c
    ad48:	e5838000 	str	r8, [r3]
    ad4c:	e2488001 	sub	r8, r8, #1
    ad50:	e1a00008 	mov	r0, r8
    ad54:	e28dd03c 	add	sp, sp, #60	; 0x3c
    ad58:	ecbd8b02 	vpop	{d8}
    ad5c:	e8bd8ff0 	pop	{r4, r5, r6, r7, r8, r9, sl, fp, pc}
    ad60:	e28d1034 	add	r1, sp, #52	; 0x34
    ad64:	eeb00b48 	vmov.f64	d0, d8
    ad68:	e28d2030 	add	r2, sp, #48	; 0x30
    ad6c:	e1a00004 	mov	r0, r4
    ad70:	eb000df0 	bl	e538 <__d2b>
    ad74:	e1b01a28 	lsrs	r1, r8, #20
    ad78:	e1a05000 	mov	r5, r0
    ad7c:	1a00005f 	bne	af00 <_dtoa_r+0x260>
    ad80:	e59d1030 	ldr	r1, [sp, #48]	; 0x30
    ad84:	e59d0034 	ldr	r0, [sp, #52]	; 0x34
    ad88:	e0810000 	add	r0, r1, r0
    ad8c:	e2803e43 	add	r3, r0, #1072	; 0x430
    ad90:	e2833002 	add	r3, r3, #2
    ad94:	e3530020 	cmp	r3, #32
    ad98:	c2802e41 	addgt	r2, r0, #1040	; 0x410
    ad9c:	c2822002 	addgt	r2, r2, #2
    ada0:	c1a06236 	lsrgt	r6, r6, r2
    ada4:	c2633040 	rsbgt	r3, r3, #64	; 0x40
    ada8:	d2633020 	rsble	r3, r3, #32
    adac:	c1863318 	orrgt	r3, r6, r8, lsl r3
    adb0:	d1a03316 	lslle	r3, r6, r3
    adb4:	ee073a10 	vmov	s14, r3
    adb8:	e3a03001 	mov	r3, #1
    adbc:	e58d3020 	str	r3, [sp, #32]
    adc0:	e2400001 	sub	r0, r0, #1
    adc4:	eeb87b47 	vcvt.f64.u32	d7, s14
    adc8:	ee17ca90 	vmov	ip, s15
    adcc:	ec532b17 	vmov	r2, r3, d7
    add0:	e24c361f 	sub	r3, ip, #32505856	; 0x1f00000
    add4:	ec432b17 	vmov	d7, r2, r3
    add8:	ed9f6be4 	vldr	d6, [pc, #912]	; b170 <_dtoa_r+0x4d0>
    addc:	ed9f4be5 	vldr	d4, [pc, #916]	; b178 <_dtoa_r+0x4d8>
    ade0:	ed9f5be6 	vldr	d5, [pc, #920]	; b180 <_dtoa_r+0x4e0>
    ade4:	ee376b46 	vsub.f64	d6, d7, d6
    ade8:	ed9f7be6 	vldr	d7, [pc, #920]	; b188 <_dtoa_r+0x4e8>
    adec:	ee067b04 	vmla.f64	d7, d6, d4
    adf0:	ee060a90 	vmov	s13, r0
    adf4:	eeb86be6 	vcvt.f64.s32	d6, s13
    adf8:	ee067b05 	vmla.f64	d7, d6, d5
    adfc:	eefd6bc7 	vcvt.s32.f64	s13, d7
    ae00:	eeb57bc0 	vcmpe.f64	d7, #0.0
    ae04:	eef1fa10 	vmrs	APSR_nzcv, fpscr
    ae08:	ee168a90 	vmov	r8, s13
    ae0c:	5a000003 	bpl	ae20 <_dtoa_r+0x180>
    ae10:	eeb86be6 	vcvt.f64.s32	d6, s13
    ae14:	eeb46b47 	vcmp.f64	d6, d7
    ae18:	eef1fa10 	vmrs	APSR_nzcv, fpscr
    ae1c:	12488001 	subne	r8, r8, #1
    ae20:	e3580016 	cmp	r8, #22
    ae24:	8a000182 	bhi	b434 <_dtoa_r+0x794>
    ae28:	e59f3388 	ldr	r3, [pc, #904]	; b1b8 <_dtoa_r+0x518>
    ae2c:	e0833188 	add	r3, r3, r8, lsl #3
    ae30:	ed937b00 	vldr	d7, [r3]
    ae34:	eeb48bc7 	vcmpe.f64	d8, d7
    ae38:	eef1fa10 	vmrs	APSR_nzcv, fpscr
    ae3c:	5a000041 	bpl	af48 <_dtoa_r+0x2a8>
    ae40:	e0411000 	sub	r1, r1, r0
    ae44:	e3a03000 	mov	r3, #0
    ae48:	e251a001 	subs	sl, r1, #1
    ae4c:	e2488001 	sub	r8, r8, #1
    ae50:	53a06000 	movpl	r6, #0
    ae54:	e58d3024 	str	r3, [sp, #36]	; 0x24
    ae58:	4a00017b 	bmi	b44c <_dtoa_r+0x7ac>
    ae5c:	e3580000 	cmp	r8, #0
    ae60:	aa00003e 	bge	af60 <_dtoa_r+0x2c0>
    ae64:	e59d3008 	ldr	r3, [sp, #8]
    ae68:	e0466008 	sub	r6, r6, r8
    ae6c:	e3530009 	cmp	r3, #9
    ae70:	e2689000 	rsb	r9, r8, #0
    ae74:	e58d8010 	str	r8, [sp, #16]
    ae78:	e3a08000 	mov	r8, #0
    ae7c:	8a00003d 	bhi	af78 <_dtoa_r+0x2d8>
    ae80:	e3530005 	cmp	r3, #5
    ae84:	d3a07001 	movle	r7, #1
    ae88:	c2433004 	subgt	r3, r3, #4
    ae8c:	c3a07000 	movgt	r7, #0
    ae90:	c58d3008 	strgt	r3, [sp, #8]
    ae94:	e59d3008 	ldr	r3, [sp, #8]
    ae98:	e2432002 	sub	r2, r3, #2
    ae9c:	e3520003 	cmp	r2, #3
    aea0:	979ff102 	ldrls	pc, [pc, r2, lsl #2]
    aea4:	ea000346 	b	bbc4 <_dtoa_r+0xf24>
    aea8:	0000b814 	andeq	fp, r0, r4, lsl r8
    aeac:	0000b808 	andeq	fp, r0, r8, lsl #16
    aeb0:	0000b7dc 	ldrdeq	fp, [r0], -ip
    aeb4:	0000b77c 	andeq	fp, r0, ip, ror r7
    aeb8:	e3c884ff 	bic	r8, r8, #-16777216	; 0xff000000
    aebc:	e59d2014 	ldr	r2, [sp, #20]
    aec0:	e3c8860f 	bic	r8, r8, #15728640	; 0xf00000
    aec4:	e1983006 	orrs	r3, r8, r6
    aec8:	e59f32ec 	ldr	r3, [pc, #748]	; b1bc <_dtoa_r+0x51c>
    aecc:	e5823000 	str	r3, [r2]
    aed0:	0a000016 	beq	af30 <_dtoa_r+0x290>
    aed4:	e59d306c 	ldr	r3, [sp, #108]	; 0x6c
    aed8:	e59f82e0 	ldr	r8, [pc, #736]	; b1c0 <_dtoa_r+0x520>
    aedc:	e3530000 	cmp	r3, #0
    aee0:	0affff9a 	beq	ad50 <_dtoa_r+0xb0>
    aee4:	e2883003 	add	r3, r8, #3
    aee8:	e59d206c 	ldr	r2, [sp, #108]	; 0x6c
    aeec:	e1a00008 	mov	r0, r8
    aef0:	e5823000 	str	r3, [r2]
    aef4:	e28dd03c 	add	sp, sp, #60	; 0x3c
    aef8:	ecbd8b02 	vpop	{d8}
    aefc:	e8bd8ff0 	pop	{r4, r5, r6, r7, r8, r9, sl, fp, pc}
    af00:	ee18ca90 	vmov	ip, s17
    af04:	e3a03000 	mov	r3, #0
    af08:	e2410fff 	sub	r0, r1, #1020	; 0x3fc
    af0c:	e58d3020 	str	r3, [sp, #32]
    af10:	e3ccc4ff 	bic	ip, ip, #-16777216	; 0xff000000
    af14:	e3ccc60f 	bic	ip, ip, #15728640	; 0xf00000
    af18:	ec532b18 	vmov	r2, r3, d8
    af1c:	e38c35ff 	orr	r3, ip, #1069547520	; 0x3fc00000
    af20:	e59d1030 	ldr	r1, [sp, #48]	; 0x30
    af24:	e2400003 	sub	r0, r0, #3
    af28:	e3833603 	orr	r3, r3, #3145728	; 0x300000
    af2c:	eaffffa8 	b	add4 <_dtoa_r+0x134>
    af30:	e59d306c 	ldr	r3, [sp, #108]	; 0x6c
    af34:	e59f8288 	ldr	r8, [pc, #648]	; b1c4 <_dtoa_r+0x524>
    af38:	e3530000 	cmp	r3, #0
    af3c:	12883008 	addne	r3, r8, #8
    af40:	1affffe8 	bne	aee8 <_dtoa_r+0x248>
    af44:	eaffff81 	b	ad50 <_dtoa_r+0xb0>
    af48:	e0411000 	sub	r1, r1, r0
    af4c:	e3a03000 	mov	r3, #0
    af50:	e251a001 	subs	sl, r1, #1
    af54:	51a06003 	movpl	r6, r3
    af58:	e58d3024 	str	r3, [sp, #36]	; 0x24
    af5c:	4a00013a 	bmi	b44c <_dtoa_r+0x7ac>
    af60:	e59d3008 	ldr	r3, [sp, #8]
    af64:	e08aa008 	add	sl, sl, r8
    af68:	e3530009 	cmp	r3, #9
    af6c:	e3a09000 	mov	r9, #0
    af70:	e58d8010 	str	r8, [sp, #16]
    af74:	9affffc1 	bls	ae80 <_dtoa_r+0x1e0>
    af78:	e3a03000 	mov	r3, #0
    af7c:	e3a07001 	mov	r7, #1
    af80:	e3e0b000 	mvn	fp, #0
    af84:	e58d3008 	str	r3, [sp, #8]
    af88:	e58d701c 	str	r7, [sp, #28]
    af8c:	e58d3018 	str	r3, [sp, #24]
    af90:	e3a01000 	mov	r1, #0
    af94:	e5841044 	str	r1, [r4, #68]	; 0x44
    af98:	e58db028 	str	fp, [sp, #40]	; 0x28
    af9c:	e1a00004 	mov	r0, r4
    afa0:	eb000a4e 	bl	d8e0 <_Balloc>
    afa4:	e2503000 	subs	r3, r0, #0
    afa8:	e58d300c 	str	r3, [sp, #12]
    afac:	0a0003c4 	beq	bec4 <_dtoa_r+0x1224>
    afb0:	e35b000e 	cmp	fp, #14
    afb4:	83a07000 	movhi	r7, #0
    afb8:	92077001 	andls	r7, r7, #1
    afbc:	e59d300c 	ldr	r3, [sp, #12]
    afc0:	e3570000 	cmp	r7, #0
    afc4:	e5843040 	str	r3, [r4, #64]	; 0x40
    afc8:	0a000090 	beq	b210 <_dtoa_r+0x570>
    afcc:	e59d3010 	ldr	r3, [sp, #16]
    afd0:	e3530000 	cmp	r3, #0
    afd4:	da00018c 	ble	b60c <_dtoa_r+0x96c>
    afd8:	e59f21d8 	ldr	r2, [pc, #472]	; b1b8 <_dtoa_r+0x518>
    afdc:	e3130c01 	tst	r3, #256	; 0x100
    afe0:	e203100f 	and	r1, r3, #15
    afe4:	e0822181 	add	r2, r2, r1, lsl #3
    afe8:	159f11d8 	ldrne	r1, [pc, #472]	; b1c8 <_dtoa_r+0x528>
    afec:	ed927b00 	vldr	d7, [r2]
    aff0:	1d916b08 	vldrne	d6, [r1, #32]
    aff4:	e1a02243 	asr	r2, r3, #4
    aff8:	1202200f 	andne	r2, r2, #15
    affc:	0eb05b48 	vmoveq.f64	d5, d8
    b000:	1e885b06 	vdivne.f64	d5, d8, d6
    b004:	13a00003 	movne	r0, #3
    b008:	03a00002 	moveq	r0, #2
    b00c:	e3520000 	cmp	r2, #0
    b010:	0a000007 	beq	b034 <_dtoa_r+0x394>
    b014:	e59f11ac 	ldr	r1, [pc, #428]	; b1c8 <_dtoa_r+0x528>
    b018:	e3120001 	tst	r2, #1
    b01c:	1d916b00 	vldrne	d6, [r1]
    b020:	12800001 	addne	r0, r0, #1
    b024:	e2811008 	add	r1, r1, #8
    b028:	1e277b06 	vmulne.f64	d7, d7, d6
    b02c:	e1b020c2 	asrs	r2, r2, #1
    b030:	1afffff8 	bne	b018 <_dtoa_r+0x378>
    b034:	ee856b07 	vdiv.f64	d6, d5, d7
    b038:	e59d3024 	ldr	r3, [sp, #36]	; 0x24
    b03c:	e3530000 	cmp	r3, #0
    b040:	0a000003 	beq	b054 <_dtoa_r+0x3b4>
    b044:	ed9f7b51 	vldr	d7, [pc, #324]	; b190 <_dtoa_r+0x4f0>
    b048:	eeb46bc7 	vcmpe.f64	d6, d7
    b04c:	eef1fa10 	vmrs	APSR_nzcv, fpscr
    b050:	4a0002b5 	bmi	bb2c <_dtoa_r+0xe8c>
    b054:	ee070a90 	vmov	s15, r0
    b058:	e35b0000 	cmp	fp, #0
    b05c:	eeb85be7 	vcvt.f64.s32	d5, s15
    b060:	ed9f7b4c 	vldr	d7, [pc, #304]	; b198 <_dtoa_r+0x4f8>
    b064:	ee057b06 	vmla.f64	d7, d5, d6
    b068:	ee172a90 	vmov	r2, s15
    b06c:	ec510b17 	vmov	r0, r1, d7
    b070:	e242150d 	sub	r1, r2, #54525952	; 0x3400000
    b074:	0a00005b 	beq	b1e8 <_dtoa_r+0x548>
    b078:	e59dc010 	ldr	ip, [sp, #16]
    b07c:	e1a0e00b 	mov	lr, fp
    b080:	e59d301c 	ldr	r3, [sp, #28]
    b084:	e3530000 	cmp	r3, #0
    b088:	0a0001e4 	beq	b820 <_dtoa_r+0xb80>
    b08c:	eefd4bc6 	vcvt.s32.f64	s9, d6
    b090:	e59f2120 	ldr	r2, [pc, #288]	; b1b8 <_dtoa_r+0x518>
    b094:	ed9f3b41 	vldr	d3, [pc, #260]	; b1a0 <_dtoa_r+0x500>
    b098:	e082218e 	add	r2, r2, lr, lsl #3
    b09c:	eeb87be4 	vcvt.f64.s32	d7, s9
    b0a0:	ee143a90 	vmov	r3, s9
    b0a4:	ee367b47 	vsub.f64	d7, d6, d7
    b0a8:	ed126b02 	vldr	d6, [r2, #-8]
    b0ac:	e59d200c 	ldr	r2, [sp, #12]
    b0b0:	ee835b06 	vdiv.f64	d5, d3, d6
    b0b4:	ec410b16 	vmov	d6, r0, r1
    b0b8:	e2831030 	add	r1, r3, #48	; 0x30
    b0bc:	e4c21001 	strb	r1, [r2], #1
    b0c0:	ee355b46 	vsub.f64	d5, d5, d6
    b0c4:	eeb45bc7 	vcmpe.f64	d5, d7
    b0c8:	eef1fa10 	vmrs	APSR_nzcv, fpscr
    b0cc:	ca000322 	bgt	bd5c <_dtoa_r+0x10bc>
    b0d0:	ed9f2b2e 	vldr	d2, [pc, #184]	; b190 <_dtoa_r+0x4f0>
    b0d4:	ed9f4b33 	vldr	d4, [pc, #204]	; b1a8 <_dtoa_r+0x508>
    b0d8:	e3a00000 	mov	r0, #0
    b0dc:	ea00000d 	b	b118 <_dtoa_r+0x478>
    b0e0:	e2800001 	add	r0, r0, #1
    b0e4:	e150000e 	cmp	r0, lr
    b0e8:	aa000048 	bge	b210 <_dtoa_r+0x570>
    b0ec:	ee277b04 	vmul.f64	d7, d7, d4
    b0f0:	ee255b04 	vmul.f64	d5, d5, d4
    b0f4:	eefd6bc7 	vcvt.s32.f64	s13, d7
    b0f8:	eeb83be6 	vcvt.f64.s32	d3, s13
    b0fc:	ee163a90 	vmov	r3, s13
    b100:	e2833030 	add	r3, r3, #48	; 0x30
    b104:	e4c23001 	strb	r3, [r2], #1
    b108:	ee377b43 	vsub.f64	d7, d7, d3
    b10c:	eeb47bc5 	vcmpe.f64	d7, d5
    b110:	eef1fa10 	vmrs	APSR_nzcv, fpscr
    b114:	4a000310 	bmi	bd5c <_dtoa_r+0x10bc>
    b118:	ee326b47 	vsub.f64	d6, d2, d7
    b11c:	eeb46bc5 	vcmpe.f64	d6, d5
    b120:	eef1fa10 	vmrs	APSR_nzcv, fpscr
    b124:	5affffed 	bpl	b0e0 <_dtoa_r+0x440>
    b128:	e59d000c 	ldr	r0, [sp, #12]
    b12c:	ea000001 	b	b138 <_dtoa_r+0x498>
    b130:	e1500002 	cmp	r0, r2
    b134:	0a0002ed 	beq	bcf0 <_dtoa_r+0x1050>
    b138:	e1a01002 	mov	r1, r2
    b13c:	e5723001 	ldrb	r3, [r2, #-1]!
    b140:	e3530039 	cmp	r3, #57	; 0x39
    b144:	0afffff9 	beq	b130 <_dtoa_r+0x490>
    b148:	e2833001 	add	r3, r3, #1
    b14c:	e20330ff 	and	r3, r3, #255	; 0xff
    b150:	e58d000c 	str	r0, [sp, #12]
    b154:	e5c23000 	strb	r3, [r2]
    b158:	e28c3001 	add	r3, ip, #1
    b15c:	e59d800c 	ldr	r8, [sp, #12]
    b160:	e58d3010 	str	r3, [sp, #16]
    b164:	e58d100c 	str	r1, [sp, #12]
    b168:	ea00009f 	b	b3ec <_dtoa_r+0x74c>
    b16c:	e1a00000 	nop			; (mov r0, r0)
    b170:	00000000 	andeq	r0, r0, r0
    b174:	3ff80000 	svccc	0x00f80000
    b178:	636f4361 	cmnvs	pc, #-2080374783	; 0x84000001
    b17c:	3fd287a7 	svccc	0x00d287a7
    b180:	509f79fb 			; <UNDEFINED> instruction: 0x509f79fb
    b184:	3fd34413 	svccc	0x00d34413
    b188:	8b60c8b3 	blhi	183d45c <_stack+0x17bd45c>
    b18c:	3fc68a28 	svccc	0x00c68a28
    b190:	00000000 	andeq	r0, r0, r0
    b194:	3ff00000 	svccc	0x00f00000	; IMB
    b198:	00000000 	andeq	r0, r0, r0
    b19c:	401c0000 	andsmi	r0, ip, r0
    b1a0:	00000000 	andeq	r0, r0, r0
    b1a4:	3fe00000 	svccc	0x00e00000
    b1a8:	00000000 	andeq	r0, r0, r0
    b1ac:	40240000 	eormi	r0, r4, r0
    b1b0:	7ff00000 	svcvc	0x00f00000	; IMB
    b1b4:	00027ef5 	strdeq	r7, [r2], -r5
    b1b8:	00028068 	andeq	r8, r2, r8, rrx
    b1bc:	0000270f 	andeq	r2, r0, pc, lsl #14
    b1c0:	00027f18 	andeq	r7, r2, r8, lsl pc
    b1c4:	00027f1c 	andeq	r7, r2, ip, lsl pc
    b1c8:	00028040 	andeq	r8, r2, r0, asr #32
    b1cc:	ee070a90 	vmov	s15, r0
    b1d0:	ed9f5bac 	vldr	d5, [pc, #688]	; b488 <_dtoa_r+0x7e8>
    b1d4:	eeb87be7 	vcvt.f64.s32	d7, s15
    b1d8:	ee075b06 	vmla.f64	d5, d7, d6
    b1dc:	ee152a90 	vmov	r2, s11
    b1e0:	ec510b15 	vmov	r0, r1, d5
    b1e4:	e242150d 	sub	r1, r2, #54525952	; 0x3400000
    b1e8:	ed9f7ba8 	vldr	d7, [pc, #672]	; b490 <_dtoa_r+0x7f0>
    b1ec:	ec410b15 	vmov	d5, r0, r1
    b1f0:	ee367b47 	vsub.f64	d7, d6, d7
    b1f4:	eeb47bc5 	vcmpe.f64	d7, d5
    b1f8:	eef1fa10 	vmrs	APSR_nzcv, fpscr
    b1fc:	ca00026d 	bgt	bbb8 <_dtoa_r+0xf18>
    b200:	eeb15b45 	vneg.f64	d5, d5
    b204:	eeb47bc5 	vcmpe.f64	d7, d5
    b208:	eef1fa10 	vmrs	APSR_nzcv, fpscr
    b20c:	4a000211 	bmi	ba58 <_dtoa_r+0xdb8>
    b210:	e59d2034 	ldr	r2, [sp, #52]	; 0x34
    b214:	e59d3010 	ldr	r3, [sp, #16]
    b218:	e1e01002 	mvn	r1, r2
    b21c:	e353000e 	cmp	r3, #14
    b220:	e1a01fa1 	lsr	r1, r1, #31
    b224:	c3a01000 	movgt	r1, #0
    b228:	e3510000 	cmp	r1, #0
    b22c:	1a000111 	bne	b678 <_dtoa_r+0x9d8>
    b230:	e59d301c 	ldr	r3, [sp, #28]
    b234:	e3530000 	cmp	r3, #0
    b238:	0a00008b 	beq	b46c <_dtoa_r+0x7cc>
    b23c:	e59d3008 	ldr	r3, [sp, #8]
    b240:	e3530001 	cmp	r3, #1
    b244:	da00024a 	ble	bb74 <_dtoa_r+0xed4>
    b248:	e24b3001 	sub	r3, fp, #1
    b24c:	e1590003 	cmp	r9, r3
    b250:	b0432009 	sublt	r2, r3, r9
    b254:	b0888002 	addlt	r8, r8, r2
    b258:	b1a09003 	movlt	r9, r3
    b25c:	a0493003 	subge	r3, r9, r3
    b260:	b3a03000 	movlt	r3, #0
    b264:	e35b0000 	cmp	fp, #0
    b268:	b046200b 	sublt	r2, r6, fp
    b26c:	a58d6020 	strge	r6, [sp, #32]
    b270:	a08aa00b 	addge	sl, sl, fp
    b274:	a086600b 	addge	r6, r6, fp
    b278:	b58d2020 	strlt	r2, [sp, #32]
    b27c:	e3a01001 	mov	r1, #1
    b280:	e1a00004 	mov	r0, r4
    b284:	e58d302c 	str	r3, [sp, #44]	; 0x2c
    b288:	eb000a7e 	bl	dc88 <__i2b>
    b28c:	e59d302c 	ldr	r3, [sp, #44]	; 0x2c
    b290:	e1a07000 	mov	r7, r0
    b294:	e59d1020 	ldr	r1, [sp, #32]
    b298:	e3510000 	cmp	r1, #0
    b29c:	c35a0000 	cmpgt	sl, #0
    b2a0:	da000006 	ble	b2c0 <_dtoa_r+0x620>
    b2a4:	e151000a 	cmp	r1, sl
    b2a8:	b1a02001 	movlt	r2, r1
    b2ac:	a1a0200a 	movge	r2, sl
    b2b0:	e0411002 	sub	r1, r1, r2
    b2b4:	e0466002 	sub	r6, r6, r2
    b2b8:	e04aa002 	sub	sl, sl, r2
    b2bc:	e58d1020 	str	r1, [sp, #32]
    b2c0:	e3590000 	cmp	r9, #0
    b2c4:	0a000006 	beq	b2e4 <_dtoa_r+0x644>
    b2c8:	e59d201c 	ldr	r2, [sp, #28]
    b2cc:	e3520000 	cmp	r2, #0
    b2d0:	0a000232 	beq	bba0 <_dtoa_r+0xf00>
    b2d4:	e3530000 	cmp	r3, #0
    b2d8:	ca0001ea 	bgt	ba88 <_dtoa_r+0xde8>
    b2dc:	e0592003 	subs	r2, r9, r3
    b2e0:	1a0001f8 	bne	bac8 <_dtoa_r+0xe28>
    b2e4:	e3a01001 	mov	r1, #1
    b2e8:	e1a00004 	mov	r0, r4
    b2ec:	eb000a65 	bl	dc88 <__i2b>
    b2f0:	e3580000 	cmp	r8, #0
    b2f4:	e1a09000 	mov	r9, r0
    b2f8:	ca0000f2 	bgt	b6c8 <_dtoa_r+0xa28>
    b2fc:	e59d3008 	ldr	r3, [sp, #8]
    b300:	e3530001 	cmp	r3, #1
    b304:	da0001fe 	ble	bb04 <_dtoa_r+0xe64>
    b308:	e3a03000 	mov	r3, #0
    b30c:	e58d302c 	str	r3, [sp, #44]	; 0x2c
    b310:	e3580000 	cmp	r8, #0
    b314:	03a02001 	moveq	r2, #1
    b318:	1a0000f4 	bne	b6f0 <_dtoa_r+0xa50>
    b31c:	e082200a 	add	r2, r2, sl
    b320:	e212201f 	ands	r2, r2, #31
    b324:	0a000054 	beq	b47c <_dtoa_r+0x7dc>
    b328:	e2621020 	rsb	r1, r2, #32
    b32c:	e3510004 	cmp	r1, #4
    b330:	da0002e0 	ble	beb8 <_dtoa_r+0x1218>
    b334:	e262201c 	rsb	r2, r2, #28
    b338:	e59d3020 	ldr	r3, [sp, #32]
    b33c:	e0866002 	add	r6, r6, r2
    b340:	e0833002 	add	r3, r3, r2
    b344:	e08aa002 	add	sl, sl, r2
    b348:	e58d3020 	str	r3, [sp, #32]
    b34c:	e3560000 	cmp	r6, #0
    b350:	da000004 	ble	b368 <_dtoa_r+0x6c8>
    b354:	e1a01005 	mov	r1, r5
    b358:	e1a02006 	mov	r2, r6
    b35c:	e1a00004 	mov	r0, r4
    b360:	eb000b3e 	bl	e060 <__lshift>
    b364:	e1a05000 	mov	r5, r0
    b368:	e35a0000 	cmp	sl, #0
    b36c:	da000004 	ble	b384 <_dtoa_r+0x6e4>
    b370:	e1a01009 	mov	r1, r9
    b374:	e1a0200a 	mov	r2, sl
    b378:	e1a00004 	mov	r0, r4
    b37c:	eb000b37 	bl	e060 <__lshift>
    b380:	e1a09000 	mov	r9, r0
    b384:	e59d3024 	ldr	r3, [sp, #36]	; 0x24
    b388:	e3530000 	cmp	r3, #0
    b38c:	1a0000dd 	bne	b708 <_dtoa_r+0xa68>
    b390:	e59d2008 	ldr	r2, [sp, #8]
    b394:	e35b0000 	cmp	fp, #0
    b398:	d3a03001 	movle	r3, #1
    b39c:	c3a03000 	movgt	r3, #0
    b3a0:	e3520002 	cmp	r2, #2
    b3a4:	d3a03000 	movle	r3, #0
    b3a8:	e3530000 	cmp	r3, #0
    b3ac:	0a00003c 	beq	b4a4 <_dtoa_r+0x804>
    b3b0:	e35b0000 	cmp	fp, #0
    b3b4:	0a000141 	beq	b8c0 <_dtoa_r+0xc20>
    b3b8:	e59d3018 	ldr	r3, [sp, #24]
    b3bc:	e59d800c 	ldr	r8, [sp, #12]
    b3c0:	e1e06003 	mvn	r6, r3
    b3c4:	e1a01009 	mov	r1, r9
    b3c8:	e1a00004 	mov	r0, r4
    b3cc:	eb000965 	bl	d968 <_Bfree>
    b3d0:	e2863001 	add	r3, r6, #1
    b3d4:	e3570000 	cmp	r7, #0
    b3d8:	e58d3010 	str	r3, [sp, #16]
    b3dc:	0a000002 	beq	b3ec <_dtoa_r+0x74c>
    b3e0:	e1a01007 	mov	r1, r7
    b3e4:	e1a00004 	mov	r0, r4
    b3e8:	eb00095e 	bl	d968 <_Bfree>
    b3ec:	e1a01005 	mov	r1, r5
    b3f0:	e1a00004 	mov	r0, r4
    b3f4:	eb00095b 	bl	d968 <_Bfree>
    b3f8:	e59d306c 	ldr	r3, [sp, #108]	; 0x6c
    b3fc:	e59d200c 	ldr	r2, [sp, #12]
    b400:	e3530000 	cmp	r3, #0
    b404:	e3a03000 	mov	r3, #0
    b408:	e5c23000 	strb	r3, [r2]
    b40c:	e59d3014 	ldr	r3, [sp, #20]
    b410:	e59d1010 	ldr	r1, [sp, #16]
    b414:	e5831000 	str	r1, [r3]
    b418:	0afffe4c 	beq	ad50 <_dtoa_r+0xb0>
    b41c:	e59d306c 	ldr	r3, [sp, #108]	; 0x6c
    b420:	e1a00008 	mov	r0, r8
    b424:	e5832000 	str	r2, [r3]
    b428:	e28dd03c 	add	sp, sp, #60	; 0x3c
    b42c:	ecbd8b02 	vpop	{d8}
    b430:	e8bd8ff0 	pop	{r4, r5, r6, r7, r8, r9, sl, fp, pc}
    b434:	e0411000 	sub	r1, r1, r0
    b438:	e3a03001 	mov	r3, #1
    b43c:	e251a001 	subs	sl, r1, #1
    b440:	53a06000 	movpl	r6, #0
    b444:	e58d3024 	str	r3, [sp, #36]	; 0x24
    b448:	5afffe83 	bpl	ae5c <_dtoa_r+0x1bc>
    b44c:	e2616001 	rsb	r6, r1, #1
    b450:	e3a0a000 	mov	sl, #0
    b454:	eafffe80 	b	ae5c <_dtoa_r+0x1bc>
    b458:	e59f8038 	ldr	r8, [pc, #56]	; b498 <_dtoa_r+0x7f8>
    b45c:	e1a00008 	mov	r0, r8
    b460:	e28dd03c 	add	sp, sp, #60	; 0x3c
    b464:	ecbd8b02 	vpop	{d8}
    b468:	e8bd8ff0 	pop	{r4, r5, r6, r7, r8, r9, sl, fp, pc}
    b46c:	e59d701c 	ldr	r7, [sp, #28]
    b470:	e1a03009 	mov	r3, r9
    b474:	e58d6020 	str	r6, [sp, #32]
    b478:	eaffff85 	b	b294 <_dtoa_r+0x5f4>
    b47c:	e3a0201c 	mov	r2, #28
    b480:	eaffffac 	b	b338 <_dtoa_r+0x698>
    b484:	e1a00000 	nop			; (mov r0, r0)
    b488:	00000000 	andeq	r0, r0, r0
    b48c:	401c0000 	andsmi	r0, ip, r0
    b490:	00000000 	andeq	r0, r0, r0
    b494:	40140000 	andsmi	r0, r4, r0
    b498:	00027ef4 	strdeq	r7, [r2], -r4
    b49c:	00028040 	andeq	r8, r2, r0, asr #32
    b4a0:	00028068 	andeq	r8, r2, r8, rrx
    b4a4:	e59d301c 	ldr	r3, [sp, #28]
    b4a8:	e3530000 	cmp	r3, #0
    b4ac:	0a000116 	beq	b90c <_dtoa_r+0xc6c>
    b4b0:	e59d3020 	ldr	r3, [sp, #32]
    b4b4:	e3530000 	cmp	r3, #0
    b4b8:	da000004 	ble	b4d0 <_dtoa_r+0x830>
    b4bc:	e1a01007 	mov	r1, r7
    b4c0:	e1a02003 	mov	r2, r3
    b4c4:	e1a00004 	mov	r0, r4
    b4c8:	eb000ae4 	bl	e060 <__lshift>
    b4cc:	e1a07000 	mov	r7, r0
    b4d0:	e59d302c 	ldr	r3, [sp, #44]	; 0x2c
    b4d4:	e3530000 	cmp	r3, #0
    b4d8:	01a0a007 	moveq	sl, r7
    b4dc:	1a000223 	bne	bd70 <_dtoa_r+0x10d0>
    b4e0:	e59d3000 	ldr	r3, [sp]
    b4e4:	e59d600c 	ldr	r6, [sp, #12]
    b4e8:	e2033001 	and	r3, r3, #1
    b4ec:	e58d3000 	str	r3, [sp]
    b4f0:	e2463001 	sub	r3, r6, #1
    b4f4:	e083300b 	add	r3, r3, fp
    b4f8:	e58d3024 	str	r3, [sp, #36]	; 0x24
    b4fc:	e1a01009 	mov	r1, r9
    b500:	e1a00005 	mov	r0, r5
    b504:	ebfffd75 	bl	aae0 <quorem>
    b508:	e1a01007 	mov	r1, r7
    b50c:	e1a0b000 	mov	fp, r0
    b510:	e1a00005 	mov	r0, r5
    b514:	eb000b21 	bl	e1a0 <__mcmp>
    b518:	e1a01009 	mov	r1, r9
    b51c:	e1a0200a 	mov	r2, sl
    b520:	e1a08000 	mov	r8, r0
    b524:	e1a00004 	mov	r0, r4
    b528:	eb000b32 	bl	e1f8 <__mdiff>
    b52c:	e590300c 	ldr	r3, [r0, #12]
    b530:	e1a01000 	mov	r1, r0
    b534:	e3530000 	cmp	r3, #0
    b538:	e28b3030 	add	r3, fp, #48	; 0x30
    b53c:	1a000166 	bne	badc <_dtoa_r+0xe3c>
    b540:	e58d001c 	str	r0, [sp, #28]
    b544:	e1a00005 	mov	r0, r5
    b548:	e58d3020 	str	r3, [sp, #32]
    b54c:	eb000b13 	bl	e1a0 <__mcmp>
    b550:	e59d101c 	ldr	r1, [sp, #28]
    b554:	e58d0018 	str	r0, [sp, #24]
    b558:	e1a00004 	mov	r0, r4
    b55c:	eb000901 	bl	d968 <_Bfree>
    b560:	e59d3008 	ldr	r3, [sp, #8]
    b564:	e59d2018 	ldr	r2, [sp, #24]
    b568:	e1821003 	orr	r1, r2, r3
    b56c:	e59d3000 	ldr	r3, [sp]
    b570:	e1933001 	orrs	r3, r3, r1
    b574:	e59d3020 	ldr	r3, [sp, #32]
    b578:	0a00022c 	beq	be30 <_dtoa_r+0x1190>
    b57c:	e3580000 	cmp	r8, #0
    b580:	ba0001de 	blt	bd00 <_dtoa_r+0x1060>
    b584:	e59d1008 	ldr	r1, [sp, #8]
    b588:	e1888001 	orr	r8, r8, r1
    b58c:	e59d1000 	ldr	r1, [sp]
    b590:	e1911008 	orrs	r1, r1, r8
    b594:	0a0001d9 	beq	bd00 <_dtoa_r+0x1060>
    b598:	e3520000 	cmp	r2, #0
    b59c:	ca000211 	bgt	bde8 <_dtoa_r+0x1148>
    b5a0:	e59d2024 	ldr	r2, [sp, #36]	; 0x24
    b5a4:	e5c63000 	strb	r3, [r6]
    b5a8:	e1520006 	cmp	r2, r6
    b5ac:	e2866001 	add	r6, r6, #1
    b5b0:	e1a08006 	mov	r8, r6
    b5b4:	0a000217 	beq	be18 <_dtoa_r+0x1178>
    b5b8:	e1a01005 	mov	r1, r5
    b5bc:	e3a03000 	mov	r3, #0
    b5c0:	e3a0200a 	mov	r2, #10
    b5c4:	e1a00004 	mov	r0, r4
    b5c8:	eb0008ed 	bl	d984 <__multadd>
    b5cc:	e157000a 	cmp	r7, sl
    b5d0:	e1a01007 	mov	r1, r7
    b5d4:	e3a03000 	mov	r3, #0
    b5d8:	e3a0200a 	mov	r2, #10
    b5dc:	e1a05000 	mov	r5, r0
    b5e0:	e1a00004 	mov	r0, r4
    b5e4:	0a000142 	beq	baf4 <_dtoa_r+0xe54>
    b5e8:	eb0008e5 	bl	d984 <__multadd>
    b5ec:	e1a0100a 	mov	r1, sl
    b5f0:	e3a03000 	mov	r3, #0
    b5f4:	e3a0200a 	mov	r2, #10
    b5f8:	e1a07000 	mov	r7, r0
    b5fc:	e1a00004 	mov	r0, r4
    b600:	eb0008df 	bl	d984 <__multadd>
    b604:	e1a0a000 	mov	sl, r0
    b608:	eaffffbb 	b	b4fc <_dtoa_r+0x85c>
    b60c:	0eb06b48 	vmoveq.f64	d6, d8
    b610:	03a00002 	moveq	r0, #2
    b614:	0afffe87 	beq	b038 <_dtoa_r+0x398>
    b618:	e59d3010 	ldr	r3, [sp, #16]
    b61c:	e51f1184 	ldr	r1, [pc, #-388]	; b4a0 <_dtoa_r+0x800>
    b620:	e2632000 	rsb	r2, r3, #0
    b624:	e202000f 	and	r0, r2, #15
    b628:	e0811180 	add	r1, r1, r0, lsl #3
    b62c:	ed915b00 	vldr	d5, [r1]
    b630:	e1b02242 	asrs	r2, r2, #4
    b634:	ee285b05 	vmul.f64	d5, d8, d5
    b638:	eeb06b45 	vmov.f64	d6, d5
    b63c:	0a000218 	beq	bea4 <_dtoa_r+0x1204>
    b640:	e51f11ac 	ldr	r1, [pc, #-428]	; b49c <_dtoa_r+0x7fc>
    b644:	e3a0c000 	mov	ip, #0
    b648:	e3a00002 	mov	r0, #2
    b64c:	e3120001 	tst	r2, #1
    b650:	1d917b00 	vldrne	d7, [r1]
    b654:	12800001 	addne	r0, r0, #1
    b658:	11a0c007 	movne	ip, r7
    b65c:	e2811008 	add	r1, r1, #8
    b660:	1e266b07 	vmulne.f64	d6, d6, d7
    b664:	e1b020c2 	asrs	r2, r2, #1
    b668:	1afffff7 	bne	b64c <_dtoa_r+0x9ac>
    b66c:	e35c0000 	cmp	ip, #0
    b670:	0eb06b45 	vmoveq.f64	d6, d5
    b674:	eafffe6f 	b	b038 <_dtoa_r+0x398>
    b678:	e59d2010 	ldr	r2, [sp, #16]
    b67c:	e51f31e4 	ldr	r3, [pc, #-484]	; b4a0 <_dtoa_r+0x800>
    b680:	e35b0000 	cmp	fp, #0
    b684:	e0833182 	add	r3, r3, r2, lsl #3
    b688:	e59d2018 	ldr	r2, [sp, #24]
    b68c:	ed936b00 	vldr	d6, [r3]
    b690:	c3a03000 	movgt	r3, #0
    b694:	d3a03001 	movle	r3, #1
    b698:	e0133fa2 	ands	r3, r3, r2, lsr #31
    b69c:	0a00015f 	beq	bc20 <_dtoa_r+0xf80>
    b6a0:	e35b0000 	cmp	fp, #0
    b6a4:	1a0000eb 	bne	ba58 <_dtoa_r+0xdb8>
    b6a8:	ed9f7bee 	vldr	d7, [pc, #952]	; ba68 <_dtoa_r+0xdc8>
    b6ac:	e1a0900b 	mov	r9, fp
    b6b0:	e1a0700b 	mov	r7, fp
    b6b4:	ee266b07 	vmul.f64	d6, d6, d7
    b6b8:	eeb48bc6 	vcmpe.f64	d8, d6
    b6bc:	eef1fa10 	vmrs	APSR_nzcv, fpscr
    b6c0:	9affff3c 	bls	b3b8 <_dtoa_r+0x718>
    b6c4:	ea000088 	b	b8ec <_dtoa_r+0xc4c>
    b6c8:	e1a01000 	mov	r1, r0
    b6cc:	e1a02008 	mov	r2, r8
    b6d0:	e1a00004 	mov	r0, r4
    b6d4:	eb000a19 	bl	df40 <__pow5mult>
    b6d8:	e59d3008 	ldr	r3, [sp, #8]
    b6dc:	e3530001 	cmp	r3, #1
    b6e0:	e1a09000 	mov	r9, r0
    b6e4:	da0000c7 	ble	ba08 <_dtoa_r+0xd68>
    b6e8:	e3a03000 	mov	r3, #0
    b6ec:	e58d302c 	str	r3, [sp, #44]	; 0x2c
    b6f0:	e5992010 	ldr	r2, [r9, #16]
    b6f4:	e0892102 	add	r2, r9, r2, lsl #2
    b6f8:	e5920010 	ldr	r0, [r2, #16]
    b6fc:	eb000923 	bl	db90 <__hi0bits>
    b700:	e2602020 	rsb	r2, r0, #32
    b704:	eaffff04 	b	b31c <_dtoa_r+0x67c>
    b708:	e1a01009 	mov	r1, r9
    b70c:	e1a00005 	mov	r0, r5
    b710:	eb000aa2 	bl	e1a0 <__mcmp>
    b714:	e3500000 	cmp	r0, #0
    b718:	aaffff1c 	bge	b390 <_dtoa_r+0x6f0>
    b71c:	e1a01005 	mov	r1, r5
    b720:	e3a03000 	mov	r3, #0
    b724:	e3a0200a 	mov	r2, #10
    b728:	e1a00004 	mov	r0, r4
    b72c:	eb000894 	bl	d984 <__multadd>
    b730:	e59d301c 	ldr	r3, [sp, #28]
    b734:	e3530000 	cmp	r3, #0
    b738:	e59d3010 	ldr	r3, [sp, #16]
    b73c:	e2438001 	sub	r8, r3, #1
    b740:	e1a05000 	mov	r5, r0
    b744:	1a0001be 	bne	be44 <_dtoa_r+0x11a4>
    b748:	e59db028 	ldr	fp, [sp, #40]	; 0x28
    b74c:	e59d2008 	ldr	r2, [sp, #8]
    b750:	e35b0000 	cmp	fp, #0
    b754:	e1a0300b 	mov	r3, fp
    b758:	d3a03001 	movle	r3, #1
    b75c:	c3a03000 	movgt	r3, #0
    b760:	e3520002 	cmp	r2, #2
    b764:	d3a03000 	movle	r3, #0
    b768:	e3530000 	cmp	r3, #0
    b76c:	0a000069 	beq	b918 <_dtoa_r+0xc78>
    b770:	e58d8010 	str	r8, [sp, #16]
    b774:	e59db028 	ldr	fp, [sp, #40]	; 0x28
    b778:	eaffff0c 	b	b3b0 <_dtoa_r+0x710>
    b77c:	e3a03001 	mov	r3, #1
    b780:	e58d301c 	str	r3, [sp, #28]
    b784:	e59d3018 	ldr	r3, [sp, #24]
    b788:	e59d2010 	ldr	r2, [sp, #16]
    b78c:	e0833002 	add	r3, r3, r2
    b790:	e283b001 	add	fp, r3, #1
    b794:	e35b0001 	cmp	fp, #1
    b798:	a1a0c00b 	movge	ip, fp
    b79c:	b3a0c001 	movlt	ip, #1
    b7a0:	e58d3028 	str	r3, [sp, #40]	; 0x28
    b7a4:	e3a01000 	mov	r1, #0
    b7a8:	e35c0017 	cmp	ip, #23
    b7ac:	e5841044 	str	r1, [r4, #68]	; 0x44
    b7b0:	dafffdf9 	ble	af9c <_dtoa_r+0x2fc>
    b7b4:	e3a00001 	mov	r0, #1
    b7b8:	e3a02004 	mov	r2, #4
    b7bc:	e1a02082 	lsl	r2, r2, #1
    b7c0:	e2823014 	add	r3, r2, #20
    b7c4:	e153000c 	cmp	r3, ip
    b7c8:	e1a01000 	mov	r1, r0
    b7cc:	e2800001 	add	r0, r0, #1
    b7d0:	9afffff9 	bls	b7bc <_dtoa_r+0xb1c>
    b7d4:	e5841044 	str	r1, [r4, #68]	; 0x44
    b7d8:	eafffdef 	b	af9c <_dtoa_r+0x2fc>
    b7dc:	e3a03001 	mov	r3, #1
    b7e0:	e58d301c 	str	r3, [sp, #28]
    b7e4:	e59dc018 	ldr	ip, [sp, #24]
    b7e8:	e35c0000 	cmp	ip, #0
    b7ec:	c1a0b00c 	movgt	fp, ip
    b7f0:	c58dc028 	strgt	ip, [sp, #40]	; 0x28
    b7f4:	caffffea 	bgt	b7a4 <_dtoa_r+0xb04>
    b7f8:	e3a03001 	mov	r3, #1
    b7fc:	e1a0b003 	mov	fp, r3
    b800:	e58d3018 	str	r3, [sp, #24]
    b804:	eafffde1 	b	af90 <_dtoa_r+0x2f0>
    b808:	e3a03000 	mov	r3, #0
    b80c:	e58d301c 	str	r3, [sp, #28]
    b810:	eaffffdb 	b	b784 <_dtoa_r+0xae4>
    b814:	e3a03000 	mov	r3, #0
    b818:	e58d301c 	str	r3, [sp, #28]
    b81c:	eafffff0 	b	b7e4 <_dtoa_r+0xb44>
    b820:	eefd5bc6 	vcvt.s32.f64	s11, d6
    b824:	e59f2254 	ldr	r2, [pc, #596]	; ba80 <_dtoa_r+0xde0>
    b828:	e35e0001 	cmp	lr, #1
    b82c:	e082218e 	add	r2, r2, lr, lsl #3
    b830:	ed123b02 	vldr	d3, [r2, #-8]
    b834:	eeb87be5 	vcvt.f64.s32	d7, s11
    b838:	ee153a90 	vmov	r3, s11
    b83c:	e2832030 	add	r2, r3, #48	; 0x30
    b840:	ee367b47 	vsub.f64	d7, d6, d7
    b844:	ec410b16 	vmov	d6, r0, r1
    b848:	e59d000c 	ldr	r0, [sp, #12]
    b84c:	e4c02001 	strb	r2, [r0], #1
    b850:	ee233b06 	vmul.f64	d3, d3, d6
    b854:	0a00018c 	beq	be8c <_dtoa_r+0x11ec>
    b858:	ed9f4b84 	vldr	d4, [pc, #528]	; ba70 <_dtoa_r+0xdd0>
    b85c:	e59d300c 	ldr	r3, [sp, #12]
    b860:	e083200e 	add	r2, r3, lr
    b864:	ee277b04 	vmul.f64	d7, d7, d4
    b868:	eefd6bc7 	vcvt.s32.f64	s13, d7
    b86c:	eeb85be6 	vcvt.f64.s32	d5, s13
    b870:	ee163a90 	vmov	r3, s13
    b874:	e2833030 	add	r3, r3, #48	; 0x30
    b878:	e4c03001 	strb	r3, [r0], #1
    b87c:	e1500002 	cmp	r0, r2
    b880:	ee377b45 	vsub.f64	d7, d7, d5
    b884:	1afffff6 	bne	b864 <_dtoa_r+0xbc4>
    b888:	ed9f6b7a 	vldr	d6, [pc, #488]	; ba78 <_dtoa_r+0xdd8>
    b88c:	ee335b06 	vadd.f64	d5, d3, d6
    b890:	eeb47bc5 	vcmpe.f64	d7, d5
    b894:	eef1fa10 	vmrs	APSR_nzcv, fpscr
    b898:	cafffe22 	bgt	b128 <_dtoa_r+0x488>
    b89c:	ee366b43 	vsub.f64	d6, d6, d3
    b8a0:	eeb47bc6 	vcmpe.f64	d7, d6
    b8a4:	eef1fa10 	vmrs	APSR_nzcv, fpscr
    b8a8:	5afffe58 	bpl	b210 <_dtoa_r+0x570>
    b8ac:	e1a01002 	mov	r1, r2
    b8b0:	e5723001 	ldrb	r3, [r2, #-1]!
    b8b4:	e3530030 	cmp	r3, #48	; 0x30
    b8b8:	0afffffb 	beq	b8ac <_dtoa_r+0xc0c>
    b8bc:	eafffe25 	b	b158 <_dtoa_r+0x4b8>
    b8c0:	e1a01009 	mov	r1, r9
    b8c4:	e1a0300b 	mov	r3, fp
    b8c8:	e3a02005 	mov	r2, #5
    b8cc:	e1a00004 	mov	r0, r4
    b8d0:	eb00082b 	bl	d984 <__multadd>
    b8d4:	e1a01000 	mov	r1, r0
    b8d8:	e1a09000 	mov	r9, r0
    b8dc:	e1a00005 	mov	r0, r5
    b8e0:	eb000a2e 	bl	e1a0 <__mcmp>
    b8e4:	e3500000 	cmp	r0, #0
    b8e8:	dafffeb2 	ble	b3b8 <_dtoa_r+0x718>
    b8ec:	e59d3010 	ldr	r3, [sp, #16]
    b8f0:	e59d000c 	ldr	r0, [sp, #12]
    b8f4:	e2836001 	add	r6, r3, #1
    b8f8:	e3a03031 	mov	r3, #49	; 0x31
    b8fc:	e1a08000 	mov	r8, r0
    b900:	e4c03001 	strb	r3, [r0], #1
    b904:	e58d000c 	str	r0, [sp, #12]
    b908:	eafffead 	b	b3c4 <_dtoa_r+0x724>
    b90c:	e59d3010 	ldr	r3, [sp, #16]
    b910:	e2833001 	add	r3, r3, #1
    b914:	e58d3010 	str	r3, [sp, #16]
    b918:	e59d800c 	ldr	r8, [sp, #12]
    b91c:	e3a06001 	mov	r6, #1
    b920:	ea000006 	b	b940 <_dtoa_r+0xca0>
    b924:	e1a01005 	mov	r1, r5
    b928:	e3a03000 	mov	r3, #0
    b92c:	e3a0200a 	mov	r2, #10
    b930:	e1a00004 	mov	r0, r4
    b934:	eb000812 	bl	d984 <__multadd>
    b938:	e2866001 	add	r6, r6, #1
    b93c:	e1a05000 	mov	r5, r0
    b940:	e1a01009 	mov	r1, r9
    b944:	e1a00005 	mov	r0, r5
    b948:	ebfffc64 	bl	aae0 <quorem>
    b94c:	e156000b 	cmp	r6, fp
    b950:	e2800030 	add	r0, r0, #48	; 0x30
    b954:	e4c80001 	strb	r0, [r8], #1
    b958:	bafffff1 	blt	b924 <_dtoa_r+0xc84>
    b95c:	e35b0000 	cmp	fp, #0
    b960:	e59d200c 	ldr	r2, [sp, #12]
    b964:	c1a0600b 	movgt	r6, fp
    b968:	d3a06001 	movle	r6, #1
    b96c:	e1a03000 	mov	r3, r0
    b970:	e0828006 	add	r8, r2, r6
    b974:	e3a0b000 	mov	fp, #0
    b978:	e1a01005 	mov	r1, r5
    b97c:	e3a02001 	mov	r2, #1
    b980:	e1a00004 	mov	r0, r4
    b984:	e58d3008 	str	r3, [sp, #8]
    b988:	eb0009b4 	bl	e060 <__lshift>
    b98c:	e1a01009 	mov	r1, r9
    b990:	e1a05000 	mov	r5, r0
    b994:	eb000a01 	bl	e1a0 <__mcmp>
    b998:	e3500000 	cmp	r0, #0
    b99c:	da0000c7 	ble	bcc0 <_dtoa_r+0x1020>
    b9a0:	e5583001 	ldrb	r3, [r8, #-1]
    b9a4:	e59d200c 	ldr	r2, [sp, #12]
    b9a8:	e2488001 	sub	r8, r8, #1
    b9ac:	ea000002 	b	b9bc <_dtoa_r+0xd1c>
    b9b0:	e1520008 	cmp	r2, r8
    b9b4:	0a0000ba 	beq	bca4 <_dtoa_r+0x1004>
    b9b8:	e5783001 	ldrb	r3, [r8, #-1]!
    b9bc:	e3530039 	cmp	r3, #57	; 0x39
    b9c0:	e2886001 	add	r6, r8, #1
    b9c4:	0afffff9 	beq	b9b0 <_dtoa_r+0xd10>
    b9c8:	e2833001 	add	r3, r3, #1
    b9cc:	e5c83000 	strb	r3, [r8]
    b9d0:	e1a01009 	mov	r1, r9
    b9d4:	e1a00004 	mov	r0, r4
    b9d8:	eb0007e2 	bl	d968 <_Bfree>
    b9dc:	e3570000 	cmp	r7, #0
    b9e0:	0a0000bf 	beq	bce4 <_dtoa_r+0x1044>
    b9e4:	e35b0000 	cmp	fp, #0
    b9e8:	115b0007 	cmpne	fp, r7
    b9ec:	0a00012e 	beq	beac <_dtoa_r+0x120c>
    b9f0:	e1a0100b 	mov	r1, fp
    b9f4:	e1a00004 	mov	r0, r4
    b9f8:	e59d800c 	ldr	r8, [sp, #12]
    b9fc:	e58d600c 	str	r6, [sp, #12]
    ba00:	eb0007d8 	bl	d968 <_Bfree>
    ba04:	eafffe75 	b	b3e0 <_dtoa_r+0x740>
    ba08:	e59d3000 	ldr	r3, [sp]
    ba0c:	e3530000 	cmp	r3, #0
    ba10:	1affff34 	bne	b6e8 <_dtoa_r+0xa48>
    ba14:	e1cd00d0 	ldrd	r0, [sp]
    ba18:	e3c124ff 	bic	r2, r1, #-16777216	; 0xff000000
    ba1c:	e3c2260f 	bic	r2, r2, #15728640	; 0xf00000
    ba20:	e3520000 	cmp	r2, #0
    ba24:	e1a03001 	mov	r3, r1
    ba28:	159d3000 	ldrne	r3, [sp]
    ba2c:	158d302c 	strne	r3, [sp, #44]	; 0x2c
    ba30:	1affff2e 	bne	b6f0 <_dtoa_r+0xa50>
    ba34:	e59f2048 	ldr	r2, [pc, #72]	; ba84 <_dtoa_r+0xde4>
    ba38:	e0022001 	and	r2, r2, r1
    ba3c:	e3520000 	cmp	r2, #0
    ba40:	058d202c 	streq	r2, [sp, #44]	; 0x2c
    ba44:	13a03001 	movne	r3, #1
    ba48:	12866001 	addne	r6, r6, #1
    ba4c:	128aa001 	addne	sl, sl, #1
    ba50:	158d302c 	strne	r3, [sp, #44]	; 0x2c
    ba54:	eafffe2d 	b	b310 <_dtoa_r+0x670>
    ba58:	e3a09000 	mov	r9, #0
    ba5c:	e1a07009 	mov	r7, r9
    ba60:	eafffe54 	b	b3b8 <_dtoa_r+0x718>
    ba64:	e1a00000 	nop			; (mov r0, r0)
    ba68:	00000000 	andeq	r0, r0, r0
    ba6c:	40140000 	andsmi	r0, r4, r0
    ba70:	00000000 	andeq	r0, r0, r0
    ba74:	40240000 	eormi	r0, r4, r0
    ba78:	00000000 	andeq	r0, r0, r0
    ba7c:	3fe00000 	svccc	0x00e00000
    ba80:	00028068 	andeq	r8, r2, r8, rrx
    ba84:	7ff00000 	svcvc	0x00f00000	; IMB
    ba88:	e1a02003 	mov	r2, r3
    ba8c:	e1a01007 	mov	r1, r7
    ba90:	e1a00004 	mov	r0, r4
    ba94:	e58d302c 	str	r3, [sp, #44]	; 0x2c
    ba98:	eb000928 	bl	df40 <__pow5mult>
    ba9c:	e1a02005 	mov	r2, r5
    baa0:	e1a01000 	mov	r1, r0
    baa4:	e1a07000 	mov	r7, r0
    baa8:	e1a00004 	mov	r0, r4
    baac:	eb00089e 	bl	dd2c <__multiply>
    bab0:	e1a01005 	mov	r1, r5
    bab4:	e1a05000 	mov	r5, r0
    bab8:	e1a00004 	mov	r0, r4
    babc:	eb0007a9 	bl	d968 <_Bfree>
    bac0:	e59d302c 	ldr	r3, [sp, #44]	; 0x2c
    bac4:	eafffe04 	b	b2dc <_dtoa_r+0x63c>
    bac8:	e1a01005 	mov	r1, r5
    bacc:	e1a00004 	mov	r0, r4
    bad0:	eb00091a 	bl	df40 <__pow5mult>
    bad4:	e1a05000 	mov	r5, r0
    bad8:	eafffe01 	b	b2e4 <_dtoa_r+0x644>
    badc:	e1a00004 	mov	r0, r4
    bae0:	e58d3018 	str	r3, [sp, #24]
    bae4:	eb00079f 	bl	d968 <_Bfree>
    bae8:	e59d3018 	ldr	r3, [sp, #24]
    baec:	e3a02001 	mov	r2, #1
    baf0:	eafffea1 	b	b57c <_dtoa_r+0x8dc>
    baf4:	eb0007a2 	bl	d984 <__multadd>
    baf8:	e1a07000 	mov	r7, r0
    bafc:	e1a0a000 	mov	sl, r0
    bb00:	eafffe7d 	b	b4fc <_dtoa_r+0x85c>
    bb04:	e1cd00d0 	ldrd	r0, [sp]
    bb08:	e3500000 	cmp	r0, #0
    bb0c:	1afffdfd 	bne	b308 <_dtoa_r+0x668>
    bb10:	e3c124ff 	bic	r2, r1, #-16777216	; 0xff000000
    bb14:	e3c2260f 	bic	r2, r2, #15728640	; 0xf00000
    bb18:	e3520000 	cmp	r2, #0
    bb1c:	0affffc4 	beq	ba34 <_dtoa_r+0xd94>
    bb20:	e59d3000 	ldr	r3, [sp]
    bb24:	e58d302c 	str	r3, [sp, #44]	; 0x2c
    bb28:	eafffdf8 	b	b310 <_dtoa_r+0x670>
    bb2c:	e35b0000 	cmp	fp, #0
    bb30:	0afffda5 	beq	b1cc <_dtoa_r+0x52c>
    bb34:	e59de028 	ldr	lr, [sp, #40]	; 0x28
    bb38:	e35e0000 	cmp	lr, #0
    bb3c:	dafffdb3 	ble	b210 <_dtoa_r+0x570>
    bb40:	e2800001 	add	r0, r0, #1
    bb44:	ed9f4bef 	vldr	d4, [pc, #956]	; bf08 <_dtoa_r+0x1268>
    bb48:	ee070a90 	vmov	s15, r0
    bb4c:	e59d3010 	ldr	r3, [sp, #16]
    bb50:	ee266b04 	vmul.f64	d6, d6, d4
    bb54:	e243c001 	sub	ip, r3, #1
    bb58:	eeb85be7 	vcvt.f64.s32	d5, s15
    bb5c:	ed9f7beb 	vldr	d7, [pc, #940]	; bf10 <_dtoa_r+0x1270>
    bb60:	ee057b06 	vmla.f64	d7, d5, d6
    bb64:	ee172a90 	vmov	r2, s15
    bb68:	ec510b17 	vmov	r0, r1, d7
    bb6c:	e242150d 	sub	r1, r2, #54525952	; 0x3400000
    bb70:	eafffd42 	b	b080 <_dtoa_r+0x3e0>
    bb74:	e59d3020 	ldr	r3, [sp, #32]
    bb78:	e58d6020 	str	r6, [sp, #32]
    bb7c:	e3530000 	cmp	r3, #0
    bb80:	059d2030 	ldreq	r2, [sp, #48]	; 0x30
    bb84:	12822e43 	addne	r2, r2, #1072	; 0x430
    bb88:	12822003 	addne	r2, r2, #3
    bb8c:	02622036 	rsbeq	r2, r2, #54	; 0x36
    bb90:	e08aa002 	add	sl, sl, r2
    bb94:	e0866002 	add	r6, r6, r2
    bb98:	e1a03009 	mov	r3, r9
    bb9c:	eafffdb6 	b	b27c <_dtoa_r+0x5dc>
    bba0:	e1a01005 	mov	r1, r5
    bba4:	e1a02009 	mov	r2, r9
    bba8:	e1a00004 	mov	r0, r4
    bbac:	eb0008e3 	bl	df40 <__pow5mult>
    bbb0:	e1a05000 	mov	r5, r0
    bbb4:	eafffdca 	b	b2e4 <_dtoa_r+0x644>
    bbb8:	e3a09000 	mov	r9, #0
    bbbc:	e1a07009 	mov	r7, r9
    bbc0:	eaffff49 	b	b8ec <_dtoa_r+0xc4c>
    bbc4:	e3a01000 	mov	r1, #0
    bbc8:	e1a00004 	mov	r0, r4
    bbcc:	e5841044 	str	r1, [r4, #68]	; 0x44
    bbd0:	eb000742 	bl	d8e0 <_Balloc>
    bbd4:	e2503000 	subs	r3, r0, #0
    bbd8:	e58d300c 	str	r3, [sp, #12]
    bbdc:	0a0000b8 	beq	bec4 <_dtoa_r+0x1224>
    bbe0:	e59d1010 	ldr	r1, [sp, #16]
    bbe4:	e59d2034 	ldr	r2, [sp, #52]	; 0x34
    bbe8:	e351000e 	cmp	r1, #14
    bbec:	c3a01000 	movgt	r1, #0
    bbf0:	d3a01001 	movle	r1, #1
    bbf4:	e3520000 	cmp	r2, #0
    bbf8:	b3a01000 	movlt	r1, #0
    bbfc:	e59d300c 	ldr	r3, [sp, #12]
    bc00:	e3510000 	cmp	r1, #0
    bc04:	e5843040 	str	r3, [r4, #64]	; 0x40
    bc08:	0a0000b7 	beq	beec <_dtoa_r+0x124c>
    bc0c:	e59f3304 	ldr	r3, [pc, #772]	; bf18 <_dtoa_r+0x1278>
    bc10:	e59d2010 	ldr	r2, [sp, #16]
    bc14:	e3e0b000 	mvn	fp, #0
    bc18:	e0833182 	add	r3, r3, r2, lsl #3
    bc1c:	ed936b00 	vldr	d6, [r3]
    bc20:	ee887b06 	vdiv.f64	d7, d8, d6
    bc24:	e59d200c 	ldr	r2, [sp, #12]
    bc28:	e35b0001 	cmp	fp, #1
    bc2c:	eebd7bc7 	vcvt.s32.f64	s14, d7
    bc30:	eeb85bc7 	vcvt.f64.s32	d5, s14
    bc34:	ee173a10 	vmov	r3, s14
    bc38:	e2833030 	add	r3, r3, #48	; 0x30
    bc3c:	e4c23001 	strb	r3, [r2], #1
    bc40:	ee058b46 	vmls.f64	d8, d5, d6
    bc44:	0a00005a 	beq	bdb4 <_dtoa_r+0x1114>
    bc48:	ed9f4bae 	vldr	d4, [pc, #696]	; bf08 <_dtoa_r+0x1268>
    bc4c:	e3a03001 	mov	r3, #1
    bc50:	ea000009 	b	bc7c <_dtoa_r+0xfdc>
    bc54:	ee887b06 	vdiv.f64	d7, d8, d6
    bc58:	e2833001 	add	r3, r3, #1
    bc5c:	e153000b 	cmp	r3, fp
    bc60:	eebd7bc7 	vcvt.s32.f64	s14, d7
    bc64:	eeb85bc7 	vcvt.f64.s32	d5, s14
    bc68:	ee171a10 	vmov	r1, s14
    bc6c:	e2811030 	add	r1, r1, #48	; 0x30
    bc70:	e4c21001 	strb	r1, [r2], #1
    bc74:	ee058b46 	vmls.f64	d8, d5, d6
    bc78:	0a00004d 	beq	bdb4 <_dtoa_r+0x1114>
    bc7c:	ee288b04 	vmul.f64	d8, d8, d4
    bc80:	eeb58b40 	vcmp.f64	d8, #0.0
    bc84:	eef1fa10 	vmrs	APSR_nzcv, fpscr
    bc88:	1afffff1 	bne	bc54 <_dtoa_r+0xfb4>
    bc8c:	e59d3010 	ldr	r3, [sp, #16]
    bc90:	e59d800c 	ldr	r8, [sp, #12]
    bc94:	e2833001 	add	r3, r3, #1
    bc98:	e58d3010 	str	r3, [sp, #16]
    bc9c:	e58d200c 	str	r2, [sp, #12]
    bca0:	eafffdd1 	b	b3ec <_dtoa_r+0x74c>
    bca4:	e59d3010 	ldr	r3, [sp, #16]
    bca8:	e59d200c 	ldr	r2, [sp, #12]
    bcac:	e2833001 	add	r3, r3, #1
    bcb0:	e58d3010 	str	r3, [sp, #16]
    bcb4:	e3a03031 	mov	r3, #49	; 0x31
    bcb8:	e5c23000 	strb	r3, [r2]
    bcbc:	eaffff43 	b	b9d0 <_dtoa_r+0xd30>
    bcc0:	1a000002 	bne	bcd0 <_dtoa_r+0x1030>
    bcc4:	e59d3008 	ldr	r3, [sp, #8]
    bcc8:	e3130001 	tst	r3, #1
    bccc:	1affff33 	bne	b9a0 <_dtoa_r+0xd00>
    bcd0:	e1a06008 	mov	r6, r8
    bcd4:	e5783001 	ldrb	r3, [r8, #-1]!
    bcd8:	e3530030 	cmp	r3, #48	; 0x30
    bcdc:	0afffffb 	beq	bcd0 <_dtoa_r+0x1030>
    bce0:	eaffff3a 	b	b9d0 <_dtoa_r+0xd30>
    bce4:	e59d800c 	ldr	r8, [sp, #12]
    bce8:	e58d600c 	str	r6, [sp, #12]
    bcec:	eafffdbe 	b	b3ec <_dtoa_r+0x74c>
    bcf0:	e28cc001 	add	ip, ip, #1
    bcf4:	e3a03031 	mov	r3, #49	; 0x31
    bcf8:	e58d000c 	str	r0, [sp, #12]
    bcfc:	eafffd14 	b	b154 <_dtoa_r+0x4b4>
    bd00:	e3520000 	cmp	r2, #0
    bd04:	da00000d 	ble	bd40 <_dtoa_r+0x10a0>
    bd08:	e1a01005 	mov	r1, r5
    bd0c:	e3a02001 	mov	r2, #1
    bd10:	e1a00004 	mov	r0, r4
    bd14:	e58d3008 	str	r3, [sp, #8]
    bd18:	eb0008d0 	bl	e060 <__lshift>
    bd1c:	e1a01009 	mov	r1, r9
    bd20:	e1a05000 	mov	r5, r0
    bd24:	eb00091d 	bl	e1a0 <__mcmp>
    bd28:	e59d3008 	ldr	r3, [sp, #8]
    bd2c:	e3500000 	cmp	r0, #0
    bd30:	da000057 	ble	be94 <_dtoa_r+0x11f4>
    bd34:	e3530039 	cmp	r3, #57	; 0x39
    bd38:	0a00002d 	beq	bdf4 <_dtoa_r+0x1154>
    bd3c:	e28b3031 	add	r3, fp, #49	; 0x31
    bd40:	e4c63001 	strb	r3, [r6], #1
    bd44:	e59d3010 	ldr	r3, [sp, #16]
    bd48:	e1a0b007 	mov	fp, r7
    bd4c:	e2833001 	add	r3, r3, #1
    bd50:	e1a0700a 	mov	r7, sl
    bd54:	e58d3010 	str	r3, [sp, #16]
    bd58:	eaffff1c 	b	b9d0 <_dtoa_r+0xd30>
    bd5c:	e28c3001 	add	r3, ip, #1
    bd60:	e59d800c 	ldr	r8, [sp, #12]
    bd64:	e58d3010 	str	r3, [sp, #16]
    bd68:	e58d200c 	str	r2, [sp, #12]
    bd6c:	eafffd9e 	b	b3ec <_dtoa_r+0x74c>
    bd70:	e5971004 	ldr	r1, [r7, #4]
    bd74:	e1a00004 	mov	r0, r4
    bd78:	eb0006d8 	bl	d8e0 <_Balloc>
    bd7c:	e2506000 	subs	r6, r0, #0
    bd80:	0a000054 	beq	bed8 <_dtoa_r+0x1238>
    bd84:	e5972010 	ldr	r2, [r7, #16]
    bd88:	e287100c 	add	r1, r7, #12
    bd8c:	e2822002 	add	r2, r2, #2
    bd90:	e1a02102 	lsl	r2, r2, #2
    bd94:	e286000c 	add	r0, r6, #12
    bd98:	eb00063d 	bl	d694 <memcpy>
    bd9c:	e1a01006 	mov	r1, r6
    bda0:	e3a02001 	mov	r2, #1
    bda4:	e1a00004 	mov	r0, r4
    bda8:	eb0008ac 	bl	e060 <__lshift>
    bdac:	e1a0a000 	mov	sl, r0
    bdb0:	eafffdca 	b	b4e0 <_dtoa_r+0x840>
    bdb4:	ee388b08 	vadd.f64	d8, d8, d8
    bdb8:	eeb48bc6 	vcmpe.f64	d8, d6
    bdbc:	eef1fa10 	vmrs	APSR_nzcv, fpscr
    bdc0:	ca000005 	bgt	bddc <_dtoa_r+0x113c>
    bdc4:	eeb48b46 	vcmp.f64	d8, d6
    bdc8:	eef1fa10 	vmrs	APSR_nzcv, fpscr
    bdcc:	1affffae 	bne	bc8c <_dtoa_r+0xfec>
    bdd0:	ee173a10 	vmov	r3, s14
    bdd4:	e3130001 	tst	r3, #1
    bdd8:	0affffab 	beq	bc8c <_dtoa_r+0xfec>
    bddc:	e59dc010 	ldr	ip, [sp, #16]
    bde0:	e59d000c 	ldr	r0, [sp, #12]
    bde4:	eafffcd3 	b	b138 <_dtoa_r+0x498>
    bde8:	e3530039 	cmp	r3, #57	; 0x39
    bdec:	12833001 	addne	r3, r3, #1
    bdf0:	1affffd2 	bne	bd40 <_dtoa_r+0x10a0>
    bdf4:	e59d3010 	ldr	r3, [sp, #16]
    bdf8:	e1a08006 	mov	r8, r6
    bdfc:	e2833001 	add	r3, r3, #1
    be00:	e58d3010 	str	r3, [sp, #16]
    be04:	e3a03039 	mov	r3, #57	; 0x39
    be08:	e1a0b007 	mov	fp, r7
    be0c:	e4c83001 	strb	r3, [r8], #1
    be10:	e1a0700a 	mov	r7, sl
    be14:	eafffee2 	b	b9a4 <_dtoa_r+0xd04>
    be18:	e59d2010 	ldr	r2, [sp, #16]
    be1c:	e1a0b007 	mov	fp, r7
    be20:	e2822001 	add	r2, r2, #1
    be24:	e1a0700a 	mov	r7, sl
    be28:	e58d2010 	str	r2, [sp, #16]
    be2c:	eafffed1 	b	b978 <_dtoa_r+0xcd8>
    be30:	e3530039 	cmp	r3, #57	; 0x39
    be34:	0affffee 	beq	bdf4 <_dtoa_r+0x1154>
    be38:	e3580000 	cmp	r8, #0
    be3c:	caffffbe 	bgt	bd3c <_dtoa_r+0x109c>
    be40:	eaffffbe 	b	bd40 <_dtoa_r+0x10a0>
    be44:	e1a01007 	mov	r1, r7
    be48:	e3a03000 	mov	r3, #0
    be4c:	e3a0200a 	mov	r2, #10
    be50:	e1a00004 	mov	r0, r4
    be54:	eb0006ca 	bl	d984 <__multadd>
    be58:	e59db028 	ldr	fp, [sp, #40]	; 0x28
    be5c:	e59d2008 	ldr	r2, [sp, #8]
    be60:	e35b0000 	cmp	fp, #0
    be64:	e1a0300b 	mov	r3, fp
    be68:	d3a03001 	movle	r3, #1
    be6c:	c3a03000 	movgt	r3, #0
    be70:	e3520002 	cmp	r2, #2
    be74:	d3a03000 	movle	r3, #0
    be78:	e3530000 	cmp	r3, #0
    be7c:	e58d8010 	str	r8, [sp, #16]
    be80:	e1a07000 	mov	r7, r0
    be84:	1afffe3a 	bne	b774 <_dtoa_r+0xad4>
    be88:	eafffd88 	b	b4b0 <_dtoa_r+0x810>
    be8c:	e1a02000 	mov	r2, r0
    be90:	eafffe7c 	b	b888 <_dtoa_r+0xbe8>
    be94:	1affffa9 	bne	bd40 <_dtoa_r+0x10a0>
    be98:	e3130001 	tst	r3, #1
    be9c:	1affffa4 	bne	bd34 <_dtoa_r+0x1094>
    bea0:	eaffffa6 	b	bd40 <_dtoa_r+0x10a0>
    bea4:	e3a00002 	mov	r0, #2
    bea8:	eafffc62 	b	b038 <_dtoa_r+0x398>
    beac:	e59d800c 	ldr	r8, [sp, #12]
    beb0:	e58d600c 	str	r6, [sp, #12]
    beb4:	eafffd49 	b	b3e0 <_dtoa_r+0x740>
    beb8:	1262203c 	rsbne	r2, r2, #60	; 0x3c
    bebc:	1afffd1d 	bne	b338 <_dtoa_r+0x698>
    bec0:	eafffd21 	b	b34c <_dtoa_r+0x6ac>
    bec4:	e59f3050 	ldr	r3, [pc, #80]	; bf1c <_dtoa_r+0x127c>
    bec8:	e59f1050 	ldr	r1, [pc, #80]	; bf20 <_dtoa_r+0x1280>
    becc:	e59f0050 	ldr	r0, [pc, #80]	; bf24 <_dtoa_r+0x1284>
    bed0:	e3a02000 	mov	r2, #0
    bed4:	eb001084 	bl	100ec <__assert_func>
    bed8:	e59f303c 	ldr	r3, [pc, #60]	; bf1c <_dtoa_r+0x127c>
    bedc:	e59f1044 	ldr	r1, [pc, #68]	; bf28 <_dtoa_r+0x1288>
    bee0:	e59f003c 	ldr	r0, [pc, #60]	; bf24 <_dtoa_r+0x1284>
    bee4:	e1a02006 	mov	r2, r6
    bee8:	eb00107f 	bl	100ec <__assert_func>
    beec:	e3e0b000 	mvn	fp, #0
    bef0:	e3a03001 	mov	r3, #1
    bef4:	e58d1018 	str	r1, [sp, #24]
    bef8:	e58d301c 	str	r3, [sp, #28]
    befc:	e58db028 	str	fp, [sp, #40]	; 0x28
    bf00:	eafffccd 	b	b23c <_dtoa_r+0x59c>
    bf04:	e1a00000 	nop			; (mov r0, r0)
    bf08:	00000000 	andeq	r0, r0, r0
    bf0c:	40240000 	eormi	r0, r4, r0
    bf10:	00000000 	andeq	r0, r0, r0
    bf14:	401c0000 	andsmi	r0, ip, r0
    bf18:	00028068 	andeq	r8, r2, r8, rrx
    bf1c:	00027f28 	andeq	r7, r2, r8, lsr #30
    bf20:	000001aa 	andeq	r0, r0, sl, lsr #3
    bf24:	00027f3c 	andeq	r7, r2, ip, lsr pc
    bf28:	000002ea 	andeq	r0, r0, sl, ror #5

0000bf2c <__sflush_r>:
__sflush_r():
    bf2c:	e1d120fc 	ldrsh	r2, [r1, #12]
    bf30:	e92d41f0 	push	{r4, r5, r6, r7, r8, lr}
    bf34:	e3120008 	tst	r2, #8
    bf38:	e1a04001 	mov	r4, r1
    bf3c:	e1a07000 	mov	r7, r0
    bf40:	1a000045 	bne	c05c <__sflush_r+0x130>
    bf44:	e5913004 	ldr	r3, [r1, #4]
    bf48:	e3822b02 	orr	r2, r2, #2048	; 0x800
    bf4c:	e3530000 	cmp	r3, #0
    bf50:	e1c120bc 	strh	r2, [r1, #12]
    bf54:	da000060 	ble	c0dc <__sflush_r+0x1b0>
    bf58:	e5946028 	ldr	r6, [r4, #40]	; 0x28
    bf5c:	e3560000 	cmp	r6, #0
    bf60:	0a000060 	beq	c0e8 <__sflush_r+0x1bc>
    bf64:	e3a03000 	mov	r3, #0
    bf68:	e5978000 	ldr	r8, [r7]
    bf6c:	e2125a01 	ands	r5, r2, #4096	; 0x1000
    bf70:	e5873000 	str	r3, [r7]
    bf74:	e1a03802 	lsl	r3, r2, #16
    bf78:	e1a03823 	lsr	r3, r3, #16
    bf7c:	1a00005b 	bne	c0f0 <__sflush_r+0x1c4>
    bf80:	e594101c 	ldr	r1, [r4, #28]
    bf84:	e3a03001 	mov	r3, #1
    bf88:	e1a02005 	mov	r2, r5
    bf8c:	e1a00007 	mov	r0, r7
    bf90:	e12fff36 	blx	r6
    bf94:	e3700001 	cmn	r0, #1
    bf98:	0a000061 	beq	c124 <__sflush_r+0x1f8>
    bf9c:	e1d430bc 	ldrh	r3, [r4, #12]
    bfa0:	e5946028 	ldr	r6, [r4, #40]	; 0x28
    bfa4:	e3130004 	tst	r3, #4
    bfa8:	0a000005 	beq	bfc4 <__sflush_r+0x98>
    bfac:	e5943030 	ldr	r3, [r4, #48]	; 0x30
    bfb0:	e3530000 	cmp	r3, #0
    bfb4:	e5943004 	ldr	r3, [r4, #4]
    bfb8:	e0400003 	sub	r0, r0, r3
    bfbc:	1594303c 	ldrne	r3, [r4, #60]	; 0x3c
    bfc0:	10400003 	subne	r0, r0, r3
    bfc4:	e1a02000 	mov	r2, r0
    bfc8:	e594101c 	ldr	r1, [r4, #28]
    bfcc:	e3a03000 	mov	r3, #0
    bfd0:	e1a00007 	mov	r0, r7
    bfd4:	e12fff36 	blx	r6
    bfd8:	e3700001 	cmn	r0, #1
    bfdc:	1a000045 	bne	c0f8 <__sflush_r+0x1cc>
    bfe0:	e5972000 	ldr	r2, [r7]
    bfe4:	e352001d 	cmp	r2, #29
    bfe8:	13520000 	cmpne	r2, #0
    bfec:	03a03001 	moveq	r3, #1
    bff0:	13a03000 	movne	r3, #0
    bff4:	e3520016 	cmp	r2, #22
    bff8:	03833001 	orreq	r3, r3, #1
    bffc:	e3530000 	cmp	r3, #0
    c000:	0a000053 	beq	c154 <__sflush_r+0x228>
    c004:	e1d430fc 	ldrsh	r3, [r4, #12]
    c008:	e3c33b02 	bic	r3, r3, #2048	; 0x800
    c00c:	e3130a01 	tst	r3, #4096	; 0x1000
    c010:	e1c430bc 	strh	r3, [r4, #12]
    c014:	e5943010 	ldr	r3, [r4, #16]
    c018:	e5843000 	str	r3, [r4]
    c01c:	e3a03000 	mov	r3, #0
    c020:	e5843004 	str	r3, [r4, #4]
    c024:	1a000047 	bne	c148 <__sflush_r+0x21c>
    c028:	e5941030 	ldr	r1, [r4, #48]	; 0x30
    c02c:	e5878000 	str	r8, [r7]
    c030:	e3510000 	cmp	r1, #0
    c034:	0a00002b 	beq	c0e8 <__sflush_r+0x1bc>
    c038:	e2843040 	add	r3, r4, #64	; 0x40
    c03c:	e1510003 	cmp	r1, r3
    c040:	0a000001 	beq	c04c <__sflush_r+0x120>
    c044:	e1a00007 	mov	r0, r7
    c048:	eb0001dd 	bl	c7c4 <_free_r>
    c04c:	e3a03000 	mov	r3, #0
    c050:	e1a00003 	mov	r0, r3
    c054:	e5843030 	str	r3, [r4, #48]	; 0x30
    c058:	e8bd81f0 	pop	{r4, r5, r6, r7, r8, pc}
    c05c:	e5916010 	ldr	r6, [r1, #16]
    c060:	e3560000 	cmp	r6, #0
    c064:	0a00001f 	beq	c0e8 <__sflush_r+0x1bc>
    c068:	e5915000 	ldr	r5, [r1]
    c06c:	e1a03802 	lsl	r3, r2, #16
    c070:	e1a03823 	lsr	r3, r3, #16
    c074:	e3130003 	tst	r3, #3
    c078:	e0455006 	sub	r5, r5, r6
    c07c:	05913014 	ldreq	r3, [r1, #20]
    c080:	13a03000 	movne	r3, #0
    c084:	e3550000 	cmp	r5, #0
    c088:	e5816000 	str	r6, [r1]
    c08c:	e5813008 	str	r3, [r1, #8]
    c090:	ca000003 	bgt	c0a4 <__sflush_r+0x178>
    c094:	ea000013 	b	c0e8 <__sflush_r+0x1bc>
    c098:	e3550000 	cmp	r5, #0
    c09c:	e086600c 	add	r6, r6, ip
    c0a0:	da000010 	ble	c0e8 <__sflush_r+0x1bc>
    c0a4:	e594c024 	ldr	ip, [r4, #36]	; 0x24
    c0a8:	e1a03005 	mov	r3, r5
    c0ac:	e594101c 	ldr	r1, [r4, #28]
    c0b0:	e1a02006 	mov	r2, r6
    c0b4:	e1a00007 	mov	r0, r7
    c0b8:	e12fff3c 	blx	ip
    c0bc:	e250c000 	subs	ip, r0, #0
    c0c0:	e045500c 	sub	r5, r5, ip
    c0c4:	cafffff3 	bgt	c098 <__sflush_r+0x16c>
    c0c8:	e1d430bc 	ldrh	r3, [r4, #12]
    c0cc:	e3e00000 	mvn	r0, #0
    c0d0:	e3833040 	orr	r3, r3, #64	; 0x40
    c0d4:	e1c430bc 	strh	r3, [r4, #12]
    c0d8:	e8bd81f0 	pop	{r4, r5, r6, r7, r8, pc}
    c0dc:	e591303c 	ldr	r3, [r1, #60]	; 0x3c
    c0e0:	e3530000 	cmp	r3, #0
    c0e4:	caffff9b 	bgt	bf58 <__sflush_r+0x2c>
    c0e8:	e3a00000 	mov	r0, #0
    c0ec:	e8bd81f0 	pop	{r4, r5, r6, r7, r8, pc}
    c0f0:	e5940050 	ldr	r0, [r4, #80]	; 0x50
    c0f4:	eaffffaa 	b	bfa4 <__sflush_r+0x78>
    c0f8:	e1d430fc 	ldrsh	r3, [r4, #12]
    c0fc:	e3c33b02 	bic	r3, r3, #2048	; 0x800
    c100:	e3130a01 	tst	r3, #4096	; 0x1000
    c104:	e1c430bc 	strh	r3, [r4, #12]
    c108:	e3a03000 	mov	r3, #0
    c10c:	e5843004 	str	r3, [r4, #4]
    c110:	e5943010 	ldr	r3, [r4, #16]
    c114:	e5843000 	str	r3, [r4]
    c118:	0affffc2 	beq	c028 <__sflush_r+0xfc>
    c11c:	e5840050 	str	r0, [r4, #80]	; 0x50
    c120:	eaffffc0 	b	c028 <__sflush_r+0xfc>
    c124:	e5973000 	ldr	r3, [r7]
    c128:	e3530000 	cmp	r3, #0
    c12c:	0affff9a 	beq	bf9c <__sflush_r+0x70>
    c130:	e3530016 	cmp	r3, #22
    c134:	1353001d 	cmpne	r3, #29
    c138:	1a000005 	bne	c154 <__sflush_r+0x228>
    c13c:	e1a00005 	mov	r0, r5
    c140:	e5878000 	str	r8, [r7]
    c144:	e8bd81f0 	pop	{r4, r5, r6, r7, r8, pc}
    c148:	e3520000 	cmp	r2, #0
    c14c:	1affffb5 	bne	c028 <__sflush_r+0xfc>
    c150:	eafffff1 	b	c11c <__sflush_r+0x1f0>
    c154:	e1d430bc 	ldrh	r3, [r4, #12]
    c158:	e3833040 	orr	r3, r3, #64	; 0x40
    c15c:	e1c430bc 	strh	r3, [r4, #12]
    c160:	e8bd81f0 	pop	{r4, r5, r6, r7, r8, pc}

0000c164 <_fflush_r>:
_fflush_r():
    c164:	e92d4070 	push	{r4, r5, r6, lr}
    c168:	e2505000 	subs	r5, r0, #0
    c16c:	e1a04001 	mov	r4, r1
    c170:	0a000002 	beq	c180 <_fflush_r+0x1c>
    c174:	e5953038 	ldr	r3, [r5, #56]	; 0x38
    c178:	e3530000 	cmp	r3, #0
    c17c:	0a000014 	beq	c1d4 <_fflush_r+0x70>
    c180:	e1d400fc 	ldrsh	r0, [r4, #12]
    c184:	e3500000 	cmp	r0, #0
    c188:	01a05000 	moveq	r5, r0
    c18c:	0a00000e 	beq	c1cc <_fflush_r+0x68>
    c190:	e5943064 	ldr	r3, [r4, #100]	; 0x64
    c194:	e3130001 	tst	r3, #1
    c198:	1a000001 	bne	c1a4 <_fflush_r+0x40>
    c19c:	e3100c02 	tst	r0, #512	; 0x200
    c1a0:	0a00000d 	beq	c1dc <_fflush_r+0x78>
    c1a4:	e1a00005 	mov	r0, r5
    c1a8:	e1a01004 	mov	r1, r4
    c1ac:	ebffff5e 	bl	bf2c <__sflush_r>
    c1b0:	e5943064 	ldr	r3, [r4, #100]	; 0x64
    c1b4:	e3130001 	tst	r3, #1
    c1b8:	e1a05000 	mov	r5, r0
    c1bc:	1a000002 	bne	c1cc <_fflush_r+0x68>
    c1c0:	e1d430bc 	ldrh	r3, [r4, #12]
    c1c4:	e3130c02 	tst	r3, #512	; 0x200
    c1c8:	0a000006 	beq	c1e8 <_fflush_r+0x84>
    c1cc:	e1a00005 	mov	r0, r5
    c1d0:	e8bd8070 	pop	{r4, r5, r6, pc}
    c1d4:	eb00006c 	bl	c38c <__sinit>
    c1d8:	eaffffe8 	b	c180 <_fflush_r+0x1c>
    c1dc:	e5940058 	ldr	r0, [r4, #88]	; 0x58
    c1e0:	eb000278 	bl	cbc8 <__retarget_lock_acquire_recursive>
    c1e4:	eaffffee 	b	c1a4 <_fflush_r+0x40>
    c1e8:	e5940058 	ldr	r0, [r4, #88]	; 0x58
    c1ec:	eb00027b 	bl	cbe0 <__retarget_lock_release_recursive>
    c1f0:	e1a00005 	mov	r0, r5
    c1f4:	e8bd8070 	pop	{r4, r5, r6, pc}

0000c1f8 <fflush>:
fflush():
    c1f8:	e92d4070 	push	{r4, r5, r6, lr}
    c1fc:	e2504000 	subs	r4, r0, #0
    c200:	0a000024 	beq	c298 <fflush+0xa0>
    c204:	e59f30a0 	ldr	r3, [pc, #160]	; c2ac <fflush+0xb4>
    c208:	e5935000 	ldr	r5, [r3]
    c20c:	e3550000 	cmp	r5, #0
    c210:	0a000002 	beq	c220 <fflush+0x28>
    c214:	e5953038 	ldr	r3, [r5, #56]	; 0x38
    c218:	e3530000 	cmp	r3, #0
    c21c:	0a000014 	beq	c274 <fflush+0x7c>
    c220:	e1d400fc 	ldrsh	r0, [r4, #12]
    c224:	e3500000 	cmp	r0, #0
    c228:	01a05000 	moveq	r5, r0
    c22c:	0a00000e 	beq	c26c <fflush+0x74>
    c230:	e5943064 	ldr	r3, [r4, #100]	; 0x64
    c234:	e3130001 	tst	r3, #1
    c238:	1a000001 	bne	c244 <fflush+0x4c>
    c23c:	e3100c02 	tst	r0, #512	; 0x200
    c240:	0a00000e 	beq	c280 <fflush+0x88>
    c244:	e1a00005 	mov	r0, r5
    c248:	e1a01004 	mov	r1, r4
    c24c:	ebffff36 	bl	bf2c <__sflush_r>
    c250:	e5943064 	ldr	r3, [r4, #100]	; 0x64
    c254:	e3130001 	tst	r3, #1
    c258:	e1a05000 	mov	r5, r0
    c25c:	1a000002 	bne	c26c <fflush+0x74>
    c260:	e1d430bc 	ldrh	r3, [r4, #12]
    c264:	e3130c02 	tst	r3, #512	; 0x200
    c268:	0a000007 	beq	c28c <fflush+0x94>
    c26c:	e1a00005 	mov	r0, r5
    c270:	e8bd8070 	pop	{r4, r5, r6, pc}
    c274:	e1a00005 	mov	r0, r5
    c278:	eb000043 	bl	c38c <__sinit>
    c27c:	eaffffe7 	b	c220 <fflush+0x28>
    c280:	e5940058 	ldr	r0, [r4, #88]	; 0x58
    c284:	eb00024f 	bl	cbc8 <__retarget_lock_acquire_recursive>
    c288:	eaffffed 	b	c244 <fflush+0x4c>
    c28c:	e5940058 	ldr	r0, [r4, #88]	; 0x58
    c290:	eb000252 	bl	cbe0 <__retarget_lock_release_recursive>
    c294:	eafffff4 	b	c26c <fflush+0x74>
    c298:	e59f3010 	ldr	r3, [pc, #16]	; c2b0 <fflush+0xb8>
    c29c:	e8bd4070 	pop	{r4, r5, r6, lr}
    c2a0:	e59f100c 	ldr	r1, [pc, #12]	; c2b4 <fflush+0xbc>
    c2a4:	e5930000 	ldr	r0, [r3]
    c2a8:	ea00021d 	b	cb24 <_fwalk_reent>
    c2ac:	000397e8 	andeq	r9, r3, r8, ror #15
    c2b0:	00027fbc 			; <UNDEFINED> instruction: 0x00027fbc
    c2b4:	0000c164 	andeq	ip, r0, r4, ror #2

0000c2b8 <_cleanup_r>:
_cleanup_r():
    c2b8:	e59f1000 	ldr	r1, [pc]	; c2c0 <_cleanup_r+0x8>
    c2bc:	ea000218 	b	cb24 <_fwalk_reent>
    c2c0:	00010260 	andeq	r0, r1, r0, ror #4

0000c2c4 <__fp_lock>:
__fp_lock():
    c2c4:	e5903064 	ldr	r3, [r0, #100]	; 0x64
    c2c8:	e3130001 	tst	r3, #1
    c2cc:	1a000002 	bne	c2dc <__fp_lock+0x18>
    c2d0:	e1d030bc 	ldrh	r3, [r0, #12]
    c2d4:	e3130c02 	tst	r3, #512	; 0x200
    c2d8:	0a000001 	beq	c2e4 <__fp_lock+0x20>
    c2dc:	e3a00000 	mov	r0, #0
    c2e0:	e12fff1e 	bx	lr
    c2e4:	e5900058 	ldr	r0, [r0, #88]	; 0x58
    c2e8:	e92d4010 	push	{r4, lr}
    c2ec:	eb000235 	bl	cbc8 <__retarget_lock_acquire_recursive>
    c2f0:	e3a00000 	mov	r0, #0
    c2f4:	e8bd8010 	pop	{r4, pc}

0000c2f8 <__fp_unlock>:
__fp_unlock():
    c2f8:	e5903064 	ldr	r3, [r0, #100]	; 0x64
    c2fc:	e3130001 	tst	r3, #1
    c300:	1a000002 	bne	c310 <__fp_unlock+0x18>
    c304:	e1d030bc 	ldrh	r3, [r0, #12]
    c308:	e3130c02 	tst	r3, #512	; 0x200
    c30c:	0a000001 	beq	c318 <__fp_unlock+0x20>
    c310:	e3a00000 	mov	r0, #0
    c314:	e12fff1e 	bx	lr
    c318:	e5900058 	ldr	r0, [r0, #88]	; 0x58
    c31c:	e92d4010 	push	{r4, lr}
    c320:	eb00022e 	bl	cbe0 <__retarget_lock_release_recursive>
    c324:	e3a00000 	mov	r0, #0
    c328:	e8bd8010 	pop	{r4, pc}

0000c32c <__sfmoreglue>:
__sfmoreglue():
    c32c:	e2412001 	sub	r2, r1, #1
    c330:	e92d4070 	push	{r4, r5, r6, lr}
    c334:	e0824082 	add	r4, r2, r2, lsl #1
    c338:	e0822104 	add	r2, r2, r4, lsl #2
    c33c:	e1a04182 	lsl	r4, r2, #3
    c340:	e1a06001 	mov	r6, r1
    c344:	e2841074 	add	r1, r4, #116	; 0x74
    c348:	eb000299 	bl	cdb4 <_malloc_r>
    c34c:	e2505000 	subs	r5, r0, #0
    c350:	0a000005 	beq	c36c <__sfmoreglue+0x40>
    c354:	e3a01000 	mov	r1, #0
    c358:	e285000c 	add	r0, r5, #12
    c35c:	e2842068 	add	r2, r4, #104	; 0x68
    c360:	e8850042 	stm	r5, {r1, r6}
    c364:	e5850008 	str	r0, [r5, #8]
    c368:	eb000510 	bl	d7b0 <memset>
    c36c:	e1a00005 	mov	r0, r5
    c370:	e8bd8070 	pop	{r4, r5, r6, pc}

0000c374 <_cleanup>:
_cleanup():
    c374:	e59f3008 	ldr	r3, [pc, #8]	; c384 <_cleanup+0x10>
    c378:	e59f1008 	ldr	r1, [pc, #8]	; c388 <_cleanup+0x14>
    c37c:	e5930000 	ldr	r0, [r3]
    c380:	ea0001e7 	b	cb24 <_fwalk_reent>
    c384:	00027fbc 			; <UNDEFINED> instruction: 0x00027fbc
    c388:	00010260 	andeq	r0, r1, r0, ror #4

0000c38c <__sinit>:
__sinit():
    c38c:	e92d47f0 	push	{r4, r5, r6, r7, r8, r9, sl, lr}
    c390:	e1a0a000 	mov	sl, r0
    c394:	e59f0154 	ldr	r0, [pc, #340]	; c4f0 <__sinit+0x164>
    c398:	eb00020a 	bl	cbc8 <__retarget_lock_acquire_recursive>
    c39c:	e59a4038 	ldr	r4, [sl, #56]	; 0x38
    c3a0:	e3540000 	cmp	r4, #0
    c3a4:	1a00004e 	bne	c4e4 <__sinit+0x158>
    c3a8:	e59a5004 	ldr	r5, [sl, #4]
    c3ac:	e59f2140 	ldr	r2, [pc, #320]	; c4f4 <__sinit+0x168>
    c3b0:	e3a03003 	mov	r3, #3
    c3b4:	e58a203c 	str	r2, [sl, #60]	; 0x3c
    c3b8:	e58a32e4 	str	r3, [sl, #740]	; 0x2e4
    c3bc:	e28a2fbb 	add	r2, sl, #748	; 0x2ec
    c3c0:	e3a03004 	mov	r3, #4
    c3c4:	e58a22e8 	str	r2, [sl, #744]	; 0x2e8
    c3c8:	e58a42e0 	str	r4, [sl, #736]	; 0x2e0
    c3cc:	e59f9124 	ldr	r9, [pc, #292]	; c4f8 <__sinit+0x16c>
    c3d0:	e59f8124 	ldr	r8, [pc, #292]	; c4fc <__sinit+0x170>
    c3d4:	e59f7124 	ldr	r7, [pc, #292]	; c500 <__sinit+0x174>
    c3d8:	e59f6124 	ldr	r6, [pc, #292]	; c504 <__sinit+0x178>
    c3dc:	e1a01004 	mov	r1, r4
    c3e0:	e585300c 	str	r3, [r5, #12]
    c3e4:	e3a02008 	mov	r2, #8
    c3e8:	e5854064 	str	r4, [r5, #100]	; 0x64
    c3ec:	e5854000 	str	r4, [r5]
    c3f0:	e5854004 	str	r4, [r5, #4]
    c3f4:	e5854008 	str	r4, [r5, #8]
    c3f8:	e5854010 	str	r4, [r5, #16]
    c3fc:	e5854014 	str	r4, [r5, #20]
    c400:	e5854018 	str	r4, [r5, #24]
    c404:	e285005c 	add	r0, r5, #92	; 0x5c
    c408:	eb0004e8 	bl	d7b0 <memset>
    c40c:	e2850058 	add	r0, r5, #88	; 0x58
    c410:	e5859020 	str	r9, [r5, #32]
    c414:	e5858024 	str	r8, [r5, #36]	; 0x24
    c418:	e5857028 	str	r7, [r5, #40]	; 0x28
    c41c:	e585602c 	str	r6, [r5, #44]	; 0x2c
    c420:	e585501c 	str	r5, [r5, #28]
    c424:	eb0001e3 	bl	cbb8 <__retarget_lock_init_recursive>
    c428:	e59a5008 	ldr	r5, [sl, #8]
    c42c:	e59f30d4 	ldr	r3, [pc, #212]	; c508 <__sinit+0x17c>
    c430:	e1a01004 	mov	r1, r4
    c434:	e585300c 	str	r3, [r5, #12]
    c438:	e3a02008 	mov	r2, #8
    c43c:	e5854064 	str	r4, [r5, #100]	; 0x64
    c440:	e5854000 	str	r4, [r5]
    c444:	e5854004 	str	r4, [r5, #4]
    c448:	e5854008 	str	r4, [r5, #8]
    c44c:	e5854010 	str	r4, [r5, #16]
    c450:	e5854014 	str	r4, [r5, #20]
    c454:	e5854018 	str	r4, [r5, #24]
    c458:	e285005c 	add	r0, r5, #92	; 0x5c
    c45c:	eb0004d3 	bl	d7b0 <memset>
    c460:	e2850058 	add	r0, r5, #88	; 0x58
    c464:	e5859020 	str	r9, [r5, #32]
    c468:	e5858024 	str	r8, [r5, #36]	; 0x24
    c46c:	e5857028 	str	r7, [r5, #40]	; 0x28
    c470:	e585602c 	str	r6, [r5, #44]	; 0x2c
    c474:	e585501c 	str	r5, [r5, #28]
    c478:	eb0001ce 	bl	cbb8 <__retarget_lock_init_recursive>
    c47c:	e59a500c 	ldr	r5, [sl, #12]
    c480:	e59f3084 	ldr	r3, [pc, #132]	; c50c <__sinit+0x180>
    c484:	e585300c 	str	r3, [r5, #12]
    c488:	e1a01004 	mov	r1, r4
    c48c:	e3a02008 	mov	r2, #8
    c490:	e285005c 	add	r0, r5, #92	; 0x5c
    c494:	e5854064 	str	r4, [r5, #100]	; 0x64
    c498:	e5854000 	str	r4, [r5]
    c49c:	e5854004 	str	r4, [r5, #4]
    c4a0:	e5854008 	str	r4, [r5, #8]
    c4a4:	e5854010 	str	r4, [r5, #16]
    c4a8:	e5854014 	str	r4, [r5, #20]
    c4ac:	e5854018 	str	r4, [r5, #24]
    c4b0:	eb0004be 	bl	d7b0 <memset>
    c4b4:	e2850058 	add	r0, r5, #88	; 0x58
    c4b8:	e5859020 	str	r9, [r5, #32]
    c4bc:	e585501c 	str	r5, [r5, #28]
    c4c0:	e5858024 	str	r8, [r5, #36]	; 0x24
    c4c4:	e5857028 	str	r7, [r5, #40]	; 0x28
    c4c8:	e585602c 	str	r6, [r5, #44]	; 0x2c
    c4cc:	eb0001b9 	bl	cbb8 <__retarget_lock_init_recursive>
    c4d0:	e3a03001 	mov	r3, #1
    c4d4:	e58a3038 	str	r3, [sl, #56]	; 0x38
    c4d8:	e59f0010 	ldr	r0, [pc, #16]	; c4f0 <__sinit+0x164>
    c4dc:	e8bd47f0 	pop	{r4, r5, r6, r7, r8, r9, sl, lr}
    c4e0:	ea0001be 	b	cbe0 <__retarget_lock_release_recursive>
    c4e4:	e8bd47f0 	pop	{r4, r5, r6, r7, r8, r9, sl, lr}
    c4e8:	e59f0000 	ldr	r0, [pc]	; c4f0 <__sinit+0x164>
    c4ec:	ea0001bb 	b	cbe0 <__retarget_lock_release_recursive>
    c4f0:	0003a234 	andeq	sl, r3, r4, lsr r2
    c4f4:	0000c2b8 			; <UNDEFINED> instruction: 0x0000c2b8
    c4f8:	0000e8d0 	ldrdeq	lr, [r0], -r0
    c4fc:	0000e908 	andeq	lr, r0, r8, lsl #18
    c500:	0000e960 	andeq	lr, r0, r0, ror #18
    c504:	0000e98c 	andeq	lr, r0, ip, lsl #19
    c508:	00010009 	andeq	r0, r1, r9
    c50c:	00020012 	andeq	r0, r2, r2, lsl r0

0000c510 <__sfp>:
__sfp():
    c510:	e92d41f0 	push	{r4, r5, r6, r7, r8, lr}
    c514:	e1a06000 	mov	r6, r0
    c518:	e59f0118 	ldr	r0, [pc, #280]	; c638 <__sfp+0x128>
    c51c:	eb0001a9 	bl	cbc8 <__retarget_lock_acquire_recursive>
    c520:	e59f3114 	ldr	r3, [pc, #276]	; c63c <__sfp+0x12c>
    c524:	e5937000 	ldr	r7, [r3]
    c528:	e5973038 	ldr	r3, [r7, #56]	; 0x38
    c52c:	e3530000 	cmp	r3, #0
    c530:	0a000028 	beq	c5d8 <__sfp+0xc8>
    c534:	e2877e2e 	add	r7, r7, #736	; 0x2e0
    c538:	e3a08004 	mov	r8, #4
    c53c:	e9970018 	ldmib	r7, {r3, r4}
    c540:	e2533001 	subs	r3, r3, #1
    c544:	5a000003 	bpl	c558 <__sfp+0x48>
    c548:	ea00001d 	b	c5c4 <__sfp+0xb4>
    c54c:	e3730001 	cmn	r3, #1
    c550:	e2844068 	add	r4, r4, #104	; 0x68
    c554:	0a00001a 	beq	c5c4 <__sfp+0xb4>
    c558:	e1d450fc 	ldrsh	r5, [r4, #12]
    c55c:	e2433001 	sub	r3, r3, #1
    c560:	e3550000 	cmp	r5, #0
    c564:	1afffff8 	bne	c54c <__sfp+0x3c>
    c568:	e59f30d0 	ldr	r3, [pc, #208]	; c640 <__sfp+0x130>
    c56c:	e584300c 	str	r3, [r4, #12]
    c570:	e2840058 	add	r0, r4, #88	; 0x58
    c574:	e5845064 	str	r5, [r4, #100]	; 0x64
    c578:	eb00018e 	bl	cbb8 <__retarget_lock_init_recursive>
    c57c:	e59f00b4 	ldr	r0, [pc, #180]	; c638 <__sfp+0x128>
    c580:	eb000196 	bl	cbe0 <__retarget_lock_release_recursive>
    c584:	e3a02008 	mov	r2, #8
    c588:	e1a01005 	mov	r1, r5
    c58c:	e284005c 	add	r0, r4, #92	; 0x5c
    c590:	e5845000 	str	r5, [r4]
    c594:	e5845008 	str	r5, [r4, #8]
    c598:	e5845004 	str	r5, [r4, #4]
    c59c:	e5845010 	str	r5, [r4, #16]
    c5a0:	e5845014 	str	r5, [r4, #20]
    c5a4:	e5845018 	str	r5, [r4, #24]
    c5a8:	eb000480 	bl	d7b0 <memset>
    c5ac:	e5845030 	str	r5, [r4, #48]	; 0x30
    c5b0:	e5845034 	str	r5, [r4, #52]	; 0x34
    c5b4:	e5845044 	str	r5, [r4, #68]	; 0x44
    c5b8:	e5845048 	str	r5, [r4, #72]	; 0x48
    c5bc:	e1a00004 	mov	r0, r4
    c5c0:	e8bd81f0 	pop	{r4, r5, r6, r7, r8, pc}
    c5c4:	e5975000 	ldr	r5, [r7]
    c5c8:	e3550000 	cmp	r5, #0
    c5cc:	0a000004 	beq	c5e4 <__sfp+0xd4>
    c5d0:	e1a07005 	mov	r7, r5
    c5d4:	eaffffd8 	b	c53c <__sfp+0x2c>
    c5d8:	e1a00007 	mov	r0, r7
    c5dc:	ebffff6a 	bl	c38c <__sinit>
    c5e0:	eaffffd3 	b	c534 <__sfp+0x24>
    c5e4:	e3a01f6b 	mov	r1, #428	; 0x1ac
    c5e8:	e1a00006 	mov	r0, r6
    c5ec:	eb0001f0 	bl	cdb4 <_malloc_r>
    c5f0:	e2504000 	subs	r4, r0, #0
    c5f4:	0a000009 	beq	c620 <__sfp+0x110>
    c5f8:	e284000c 	add	r0, r4, #12
    c5fc:	e1a01005 	mov	r1, r5
    c600:	e5845000 	str	r5, [r4]
    c604:	e3a02e1a 	mov	r2, #416	; 0x1a0
    c608:	e5848004 	str	r8, [r4, #4]
    c60c:	e5840008 	str	r0, [r4, #8]
    c610:	eb000466 	bl	d7b0 <memset>
    c614:	e1a05004 	mov	r5, r4
    c618:	e5874000 	str	r4, [r7]
    c61c:	eaffffeb 	b	c5d0 <__sfp+0xc0>
    c620:	e59f0010 	ldr	r0, [pc, #16]	; c638 <__sfp+0x128>
    c624:	e5874000 	str	r4, [r7]
    c628:	eb00016c 	bl	cbe0 <__retarget_lock_release_recursive>
    c62c:	e3a0300c 	mov	r3, #12
    c630:	e5863000 	str	r3, [r6]
    c634:	eaffffe0 	b	c5bc <__sfp+0xac>
    c638:	0003a230 	andeq	sl, r3, r0, lsr r2
    c63c:	00027fbc 			; <UNDEFINED> instruction: 0x00027fbc
    c640:	ffff0001 			; <UNDEFINED> instruction: 0xffff0001

0000c644 <__sfp_lock_acquire>:
__sfp_lock_acquire():
    c644:	e59f0000 	ldr	r0, [pc]	; c64c <__sfp_lock_acquire+0x8>
    c648:	ea00015e 	b	cbc8 <__retarget_lock_acquire_recursive>
    c64c:	0003a230 	andeq	sl, r3, r0, lsr r2

0000c650 <__sfp_lock_release>:
__sfp_lock_release():
    c650:	e59f0000 	ldr	r0, [pc]	; c658 <__sfp_lock_release+0x8>
    c654:	ea000161 	b	cbe0 <__retarget_lock_release_recursive>
    c658:	0003a230 	andeq	sl, r3, r0, lsr r2

0000c65c <__sinit_lock_acquire>:
__sinit_lock_acquire():
    c65c:	e59f0000 	ldr	r0, [pc]	; c664 <__sinit_lock_acquire+0x8>
    c660:	ea000158 	b	cbc8 <__retarget_lock_acquire_recursive>
    c664:	0003a234 	andeq	sl, r3, r4, lsr r2

0000c668 <__sinit_lock_release>:
__sinit_lock_release():
    c668:	e59f0000 	ldr	r0, [pc]	; c670 <__sinit_lock_release+0x8>
    c66c:	ea00015b 	b	cbe0 <__retarget_lock_release_recursive>
    c670:	0003a234 	andeq	sl, r3, r4, lsr r2

0000c674 <__fp_lock_all>:
__fp_lock_all():
    c674:	e59f0018 	ldr	r0, [pc, #24]	; c694 <__fp_lock_all+0x20>
    c678:	e92d4010 	push	{r4, lr}
    c67c:	eb000151 	bl	cbc8 <__retarget_lock_acquire_recursive>
    c680:	e59f3010 	ldr	r3, [pc, #16]	; c698 <__fp_lock_all+0x24>
    c684:	e8bd4010 	pop	{r4, lr}
    c688:	e59f100c 	ldr	r1, [pc, #12]	; c69c <__fp_lock_all+0x28>
    c68c:	e5930000 	ldr	r0, [r3]
    c690:	ea000109 	b	cabc <_fwalk>
    c694:	0003a230 	andeq	sl, r3, r0, lsr r2
    c698:	000397e8 	andeq	r9, r3, r8, ror #15
    c69c:	0000c2c4 	andeq	ip, r0, r4, asr #5

0000c6a0 <__fp_unlock_all>:
__fp_unlock_all():
    c6a0:	e59f3018 	ldr	r3, [pc, #24]	; c6c0 <__fp_unlock_all+0x20>
    c6a4:	e92d4010 	push	{r4, lr}
    c6a8:	e59f1014 	ldr	r1, [pc, #20]	; c6c4 <__fp_unlock_all+0x24>
    c6ac:	e5930000 	ldr	r0, [r3]
    c6b0:	eb000101 	bl	cabc <_fwalk>
    c6b4:	e8bd4010 	pop	{r4, lr}
    c6b8:	e59f0008 	ldr	r0, [pc, #8]	; c6c8 <__fp_unlock_all+0x28>
    c6bc:	ea000147 	b	cbe0 <__retarget_lock_release_recursive>
    c6c0:	000397e8 	andeq	r9, r3, r8, ror #15
    c6c4:	0000c2f8 	strdeq	ip, [r0], -r8
    c6c8:	0003a230 	andeq	sl, r3, r0, lsr r2

0000c6cc <_malloc_trim_r>:
_malloc_trim_r():
    c6cc:	e92d41f0 	push	{r4, r5, r6, r7, r8, lr}
    c6d0:	e59f70e0 	ldr	r7, [pc, #224]	; c7b8 <_malloc_trim_r+0xec>
    c6d4:	e1a04001 	mov	r4, r1
    c6d8:	e1a06000 	mov	r6, r0
    c6dc:	eb000479 	bl	d8c8 <__malloc_lock>
    c6e0:	e5972008 	ldr	r2, [r7, #8]
    c6e4:	e2643efe 	rsb	r3, r4, #4064	; 0xfe0
    c6e8:	e5925004 	ldr	r5, [r2, #4]
    c6ec:	e283300f 	add	r3, r3, #15
    c6f0:	e3c55003 	bic	r5, r5, #3
    c6f4:	e0833005 	add	r3, r3, r5
    c6f8:	e3c33eff 	bic	r3, r3, #4080	; 0xff0
    c6fc:	e3c3300f 	bic	r3, r3, #15
    c700:	e2434a01 	sub	r4, r3, #4096	; 0x1000
    c704:	e3540a01 	cmp	r4, #4096	; 0x1000
    c708:	ba000006 	blt	c728 <_malloc_trim_r+0x5c>
    c70c:	e3a01000 	mov	r1, #0
    c710:	e1a00006 	mov	r0, r6
    c714:	eb00085f 	bl	e898 <_sbrk_r>
    c718:	e5973008 	ldr	r3, [r7, #8]
    c71c:	e0833005 	add	r3, r3, r5
    c720:	e1500003 	cmp	r0, r3
    c724:	0a000003 	beq	c738 <_malloc_trim_r+0x6c>
    c728:	e1a00006 	mov	r0, r6
    c72c:	eb000468 	bl	d8d4 <__malloc_unlock>
    c730:	e3a00000 	mov	r0, #0
    c734:	e8bd81f0 	pop	{r4, r5, r6, r7, r8, pc}
    c738:	e2641000 	rsb	r1, r4, #0
    c73c:	e1a00006 	mov	r0, r6
    c740:	eb000854 	bl	e898 <_sbrk_r>
    c744:	e3700001 	cmn	r0, #1
    c748:	0a00000b 	beq	c77c <_malloc_trim_r+0xb0>
    c74c:	e59f2068 	ldr	r2, [pc, #104]	; c7bc <_malloc_trim_r+0xf0>
    c750:	e5973008 	ldr	r3, [r7, #8]
    c754:	e0455004 	sub	r5, r5, r4
    c758:	e3855001 	orr	r5, r5, #1
    c75c:	e5835004 	str	r5, [r3, #4]
    c760:	e5923000 	ldr	r3, [r2]
    c764:	e1a00006 	mov	r0, r6
    c768:	e0433004 	sub	r3, r3, r4
    c76c:	e5823000 	str	r3, [r2]
    c770:	eb000457 	bl	d8d4 <__malloc_unlock>
    c774:	e3a00001 	mov	r0, #1
    c778:	e8bd81f0 	pop	{r4, r5, r6, r7, r8, pc}
    c77c:	e3a01000 	mov	r1, #0
    c780:	e1a00006 	mov	r0, r6
    c784:	eb000843 	bl	e898 <_sbrk_r>
    c788:	e5972008 	ldr	r2, [r7, #8]
    c78c:	e0403002 	sub	r3, r0, r2
    c790:	e353000f 	cmp	r3, #15
    c794:	daffffe3 	ble	c728 <_malloc_trim_r+0x5c>
    c798:	e3833001 	orr	r3, r3, #1
    c79c:	e5823004 	str	r3, [r2, #4]
    c7a0:	e59f3018 	ldr	r3, [pc, #24]	; c7c0 <_malloc_trim_r+0xf4>
    c7a4:	e59f1010 	ldr	r1, [pc, #16]	; c7bc <_malloc_trim_r+0xf0>
    c7a8:	e5933000 	ldr	r3, [r3]
    c7ac:	e0400003 	sub	r0, r0, r3
    c7b0:	e5810000 	str	r0, [r1]
    c7b4:	eaffffdb 	b	c728 <_malloc_trim_r+0x5c>
    c7b8:	00039c18 	andeq	r9, r3, r8, lsl ip
    c7bc:	0003a23c 	andeq	sl, r3, ip, lsr r2
    c7c0:	0003a020 	andeq	sl, r3, r0, lsr #32

0000c7c4 <_free_r>:
_free_r():
    c7c4:	e92d4070 	push	{r4, r5, r6, lr}
    c7c8:	e2514000 	subs	r4, r1, #0
    c7cc:	08bd8070 	popeq	{r4, r5, r6, pc}
    c7d0:	e1a05000 	mov	r5, r0
    c7d4:	eb00043b 	bl	d8c8 <__malloc_lock>
    c7d8:	e5140004 	ldr	r0, [r4, #-4]
    c7dc:	e59f22c8 	ldr	r2, [pc, #712]	; caac <_free_r+0x2e8>
    c7e0:	e244c008 	sub	ip, r4, #8
    c7e4:	e5923008 	ldr	r3, [r2, #8]
    c7e8:	e3c01001 	bic	r1, r0, #1
    c7ec:	e08ce001 	add	lr, ip, r1
    c7f0:	e153000e 	cmp	r3, lr
    c7f4:	e59e3004 	ldr	r3, [lr, #4]
    c7f8:	e3c33003 	bic	r3, r3, #3
    c7fc:	0a000068 	beq	c9a4 <_free_r+0x1e0>
    c800:	e3100001 	tst	r0, #1
    c804:	e58e3004 	str	r3, [lr, #4]
    c808:	1a000023 	bne	c89c <_free_r+0xd8>
    c80c:	e5140008 	ldr	r0, [r4, #-8]
    c810:	e2824008 	add	r4, r2, #8
    c814:	e04cc000 	sub	ip, ip, r0
    c818:	e0811000 	add	r1, r1, r0
    c81c:	e59c0008 	ldr	r0, [ip, #8]
    c820:	e1500004 	cmp	r0, r4
    c824:	0a00004c 	beq	c95c <_free_r+0x198>
    c828:	e08e6003 	add	r6, lr, r3
    c82c:	e5966004 	ldr	r6, [r6, #4]
    c830:	e3160001 	tst	r6, #1
    c834:	e59c600c 	ldr	r6, [ip, #12]
    c838:	e580600c 	str	r6, [r0, #12]
    c83c:	e5860008 	str	r0, [r6, #8]
    c840:	0a000076 	beq	ca20 <_free_r+0x25c>
    c844:	e3813001 	orr	r3, r1, #1
    c848:	e58c3004 	str	r3, [ip, #4]
    c84c:	e58e1000 	str	r1, [lr]
    c850:	e3510c02 	cmp	r1, #512	; 0x200
    c854:	2a000025 	bcs	c8f0 <_free_r+0x12c>
    c858:	e5920004 	ldr	r0, [r2, #4]
    c85c:	e1a031a1 	lsr	r3, r1, #3
    c860:	e3a0e001 	mov	lr, #1
    c864:	e1a012a1 	lsr	r1, r1, #5
    c868:	e180111e 	orr	r1, r0, lr, lsl r1
    c86c:	e2833001 	add	r3, r3, #1
    c870:	e7920183 	ldr	r0, [r2, r3, lsl #3]
    c874:	e5821004 	str	r1, [r2, #4]
    c878:	e0821183 	add	r1, r2, r3, lsl #3
    c87c:	e2411008 	sub	r1, r1, #8
    c880:	e58c100c 	str	r1, [ip, #12]
    c884:	e58c0008 	str	r0, [ip, #8]
    c888:	e782c183 	str	ip, [r2, r3, lsl #3]
    c88c:	e580c00c 	str	ip, [r0, #12]
    c890:	e1a00005 	mov	r0, r5
    c894:	e8bd4070 	pop	{r4, r5, r6, lr}
    c898:	ea00040d 	b	d8d4 <__malloc_unlock>
    c89c:	e08e0003 	add	r0, lr, r3
    c8a0:	e5900004 	ldr	r0, [r0, #4]
    c8a4:	e3100001 	tst	r0, #1
    c8a8:	1a00000b 	bne	c8dc <_free_r+0x118>
    c8ac:	e0811003 	add	r1, r1, r3
    c8b0:	e2824008 	add	r4, r2, #8
    c8b4:	e59e3008 	ldr	r3, [lr, #8]
    c8b8:	e1530004 	cmp	r3, r4
    c8bc:	0a000063 	beq	ca50 <_free_r+0x28c>
    c8c0:	e59e000c 	ldr	r0, [lr, #12]
    c8c4:	e583000c 	str	r0, [r3, #12]
    c8c8:	e5803008 	str	r3, [r0, #8]
    c8cc:	e3813001 	orr	r3, r1, #1
    c8d0:	e58c3004 	str	r3, [ip, #4]
    c8d4:	e78c1001 	str	r1, [ip, r1]
    c8d8:	eaffffdc 	b	c850 <_free_r+0x8c>
    c8dc:	e3813001 	orr	r3, r1, #1
    c8e0:	e3510c02 	cmp	r1, #512	; 0x200
    c8e4:	e5043004 	str	r3, [r4, #-4]
    c8e8:	e58e1000 	str	r1, [lr]
    c8ec:	3affffd9 	bcc	c858 <_free_r+0x94>
    c8f0:	e3510c0a 	cmp	r1, #2560	; 0xa00
    c8f4:	e1a034a1 	lsr	r3, r1, #9
    c8f8:	2a00003f 	bcs	c9fc <_free_r+0x238>
    c8fc:	e1a03321 	lsr	r3, r1, #6
    c900:	e2830039 	add	r0, r3, #57	; 0x39
    c904:	e283e038 	add	lr, r3, #56	; 0x38
    c908:	e1a00180 	lsl	r0, r0, #3
    c90c:	e7923000 	ldr	r3, [r2, r0]
    c910:	e0820000 	add	r0, r2, r0
    c914:	e2400008 	sub	r0, r0, #8
    c918:	e1500003 	cmp	r0, r3
    c91c:	0a000045 	beq	ca38 <_free_r+0x274>
    c920:	e5932004 	ldr	r2, [r3, #4]
    c924:	e3c22003 	bic	r2, r2, #3
    c928:	e1520001 	cmp	r2, r1
    c92c:	9a000002 	bls	c93c <_free_r+0x178>
    c930:	e5933008 	ldr	r3, [r3, #8]
    c934:	e1500003 	cmp	r0, r3
    c938:	1afffff8 	bne	c920 <_free_r+0x15c>
    c93c:	e593000c 	ldr	r0, [r3, #12]
    c940:	e58c000c 	str	r0, [ip, #12]
    c944:	e58c3008 	str	r3, [ip, #8]
    c948:	e580c008 	str	ip, [r0, #8]
    c94c:	e1a00005 	mov	r0, r5
    c950:	e583c00c 	str	ip, [r3, #12]
    c954:	e8bd4070 	pop	{r4, r5, r6, lr}
    c958:	ea0003dd 	b	d8d4 <__malloc_unlock>
    c95c:	e08e2003 	add	r2, lr, r3
    c960:	e5922004 	ldr	r2, [r2, #4]
    c964:	e3120001 	tst	r2, #1
    c968:	13813001 	orrne	r3, r1, #1
    c96c:	158c3004 	strne	r3, [ip, #4]
    c970:	158e1000 	strne	r1, [lr]
    c974:	1affffc5 	bne	c890 <_free_r+0xcc>
    c978:	e59e200c 	ldr	r2, [lr, #12]
    c97c:	e0833001 	add	r3, r3, r1
    c980:	e59e1008 	ldr	r1, [lr, #8]
    c984:	e1a00005 	mov	r0, r5
    c988:	e581200c 	str	r2, [r1, #12]
    c98c:	e5821008 	str	r1, [r2, #8]
    c990:	e3832001 	orr	r2, r3, #1
    c994:	e58c2004 	str	r2, [ip, #4]
    c998:	e8bd4070 	pop	{r4, r5, r6, lr}
    c99c:	e78c3003 	str	r3, [ip, r3]
    c9a0:	ea0003cb 	b	d8d4 <__malloc_unlock>
    c9a4:	e3100001 	tst	r0, #1
    c9a8:	e0813003 	add	r3, r1, r3
    c9ac:	1a000006 	bne	c9cc <_free_r+0x208>
    c9b0:	e5141008 	ldr	r1, [r4, #-8]
    c9b4:	e04cc001 	sub	ip, ip, r1
    c9b8:	e59c0008 	ldr	r0, [ip, #8]
    c9bc:	e0833001 	add	r3, r3, r1
    c9c0:	e59c100c 	ldr	r1, [ip, #12]
    c9c4:	e580100c 	str	r1, [r0, #12]
    c9c8:	e5810008 	str	r0, [r1, #8]
    c9cc:	e3831001 	orr	r1, r3, #1
    c9d0:	e58c1004 	str	r1, [ip, #4]
    c9d4:	e59f10d4 	ldr	r1, [pc, #212]	; cab0 <_free_r+0x2ec>
    c9d8:	e582c008 	str	ip, [r2, #8]
    c9dc:	e5912000 	ldr	r2, [r1]
    c9e0:	e1520003 	cmp	r2, r3
    c9e4:	8affffa9 	bhi	c890 <_free_r+0xcc>
    c9e8:	e59f30c4 	ldr	r3, [pc, #196]	; cab4 <_free_r+0x2f0>
    c9ec:	e1a00005 	mov	r0, r5
    c9f0:	e5931000 	ldr	r1, [r3]
    c9f4:	ebffff34 	bl	c6cc <_malloc_trim_r>
    c9f8:	eaffffa4 	b	c890 <_free_r+0xcc>
    c9fc:	e3530014 	cmp	r3, #20
    ca00:	9a000008 	bls	ca28 <_free_r+0x264>
    ca04:	e3530054 	cmp	r3, #84	; 0x54
    ca08:	8a000017 	bhi	ca6c <_free_r+0x2a8>
    ca0c:	e1a03621 	lsr	r3, r1, #12
    ca10:	e283006f 	add	r0, r3, #111	; 0x6f
    ca14:	e283e06e 	add	lr, r3, #110	; 0x6e
    ca18:	e1a00180 	lsl	r0, r0, #3
    ca1c:	eaffffba 	b	c90c <_free_r+0x148>
    ca20:	e0811003 	add	r1, r1, r3
    ca24:	eaffffa2 	b	c8b4 <_free_r+0xf0>
    ca28:	e283005c 	add	r0, r3, #92	; 0x5c
    ca2c:	e283e05b 	add	lr, r3, #91	; 0x5b
    ca30:	e1a00180 	lsl	r0, r0, #3
    ca34:	eaffffb4 	b	c90c <_free_r+0x148>
    ca38:	e5921004 	ldr	r1, [r2, #4]
    ca3c:	e1a0e14e 	asr	lr, lr, #2
    ca40:	e3a04001 	mov	r4, #1
    ca44:	e181ee14 	orr	lr, r1, r4, lsl lr
    ca48:	e582e004 	str	lr, [r2, #4]
    ca4c:	eaffffbb 	b	c940 <_free_r+0x17c>
    ca50:	e3813001 	orr	r3, r1, #1
    ca54:	e582c014 	str	ip, [r2, #20]
    ca58:	e582c010 	str	ip, [r2, #16]
    ca5c:	e58c400c 	str	r4, [ip, #12]
    ca60:	e98c0018 	stmib	ip, {r3, r4}
    ca64:	e78c1001 	str	r1, [ip, r1]
    ca68:	eaffff88 	b	c890 <_free_r+0xcc>
    ca6c:	e3530f55 	cmp	r3, #340	; 0x154
    ca70:	8a000004 	bhi	ca88 <_free_r+0x2c4>
    ca74:	e1a037a1 	lsr	r3, r1, #15
    ca78:	e2830078 	add	r0, r3, #120	; 0x78
    ca7c:	e283e077 	add	lr, r3, #119	; 0x77
    ca80:	e1a00180 	lsl	r0, r0, #3
    ca84:	eaffffa0 	b	c90c <_free_r+0x148>
    ca88:	e59f0028 	ldr	r0, [pc, #40]	; cab8 <_free_r+0x2f4>
    ca8c:	e1530000 	cmp	r3, r0
    ca90:	91a03921 	lsrls	r3, r1, #18
    ca94:	9283007d 	addls	r0, r3, #125	; 0x7d
    ca98:	9283e07c 	addls	lr, r3, #124	; 0x7c
    ca9c:	91a00180 	lslls	r0, r0, #3
    caa0:	83a00ffe 	movhi	r0, #1016	; 0x3f8
    caa4:	83a0e07e 	movhi	lr, #126	; 0x7e
    caa8:	eaffff97 	b	c90c <_free_r+0x148>
    caac:	00039c18 	andeq	r9, r3, r8, lsl ip
    cab0:	0003a024 	andeq	sl, r3, r4, lsr #32
    cab4:	0003a26c 	andeq	sl, r3, ip, ror #4
    cab8:	00000554 	andeq	r0, r0, r4, asr r5

0000cabc <_fwalk>:
_fwalk():
    cabc:	e92d41f0 	push	{r4, r5, r6, r7, r8, lr}
    cac0:	e1a08001 	mov	r8, r1
    cac4:	e2807e2e 	add	r7, r0, #736	; 0x2e0
    cac8:	e3a06000 	mov	r6, #0
    cacc:	e5975004 	ldr	r5, [r7, #4]
    cad0:	e5974008 	ldr	r4, [r7, #8]
    cad4:	e2555001 	subs	r5, r5, #1
    cad8:	4a00000c 	bmi	cb10 <_fwalk+0x54>
    cadc:	e1d430bc 	ldrh	r3, [r4, #12]
    cae0:	e2455001 	sub	r5, r5, #1
    cae4:	e3530001 	cmp	r3, #1
    cae8:	9a000005 	bls	cb04 <_fwalk+0x48>
    caec:	e1d430fe 	ldrsh	r3, [r4, #14]
    caf0:	e1a00004 	mov	r0, r4
    caf4:	e3730001 	cmn	r3, #1
    caf8:	0a000001 	beq	cb04 <_fwalk+0x48>
    cafc:	e12fff38 	blx	r8
    cb00:	e1866000 	orr	r6, r6, r0
    cb04:	e3750001 	cmn	r5, #1
    cb08:	e2844068 	add	r4, r4, #104	; 0x68
    cb0c:	1afffff2 	bne	cadc <_fwalk+0x20>
    cb10:	e5977000 	ldr	r7, [r7]
    cb14:	e3570000 	cmp	r7, #0
    cb18:	1affffeb 	bne	cacc <_fwalk+0x10>
    cb1c:	e1a00006 	mov	r0, r6
    cb20:	e8bd81f0 	pop	{r4, r5, r6, r7, r8, pc}

0000cb24 <_fwalk_reent>:
_fwalk_reent():
    cb24:	e92d47f0 	push	{r4, r5, r6, r7, r8, r9, sl, lr}
    cb28:	e1a09000 	mov	r9, r0
    cb2c:	e1a08001 	mov	r8, r1
    cb30:	e2807e2e 	add	r7, r0, #736	; 0x2e0
    cb34:	e3a06000 	mov	r6, #0
    cb38:	e5975004 	ldr	r5, [r7, #4]
    cb3c:	e5974008 	ldr	r4, [r7, #8]
    cb40:	e2555001 	subs	r5, r5, #1
    cb44:	4a00000d 	bmi	cb80 <_fwalk_reent+0x5c>
    cb48:	e1d430bc 	ldrh	r3, [r4, #12]
    cb4c:	e2455001 	sub	r5, r5, #1
    cb50:	e3530001 	cmp	r3, #1
    cb54:	9a000006 	bls	cb74 <_fwalk_reent+0x50>
    cb58:	e1d430fe 	ldrsh	r3, [r4, #14]
    cb5c:	e1a01004 	mov	r1, r4
    cb60:	e3730001 	cmn	r3, #1
    cb64:	e1a00009 	mov	r0, r9
    cb68:	0a000001 	beq	cb74 <_fwalk_reent+0x50>
    cb6c:	e12fff38 	blx	r8
    cb70:	e1866000 	orr	r6, r6, r0
    cb74:	e3750001 	cmn	r5, #1
    cb78:	e2844068 	add	r4, r4, #104	; 0x68
    cb7c:	1afffff1 	bne	cb48 <_fwalk_reent+0x24>
    cb80:	e5977000 	ldr	r7, [r7]
    cb84:	e3570000 	cmp	r7, #0
    cb88:	1affffea 	bne	cb38 <_fwalk_reent+0x14>
    cb8c:	e1a00006 	mov	r0, r6
    cb90:	e8bd87f0 	pop	{r4, r5, r6, r7, r8, r9, sl, pc}

0000cb94 <__localeconv_l>:
__localeconv_l():
    cb94:	e28000f0 	add	r0, r0, #240	; 0xf0
    cb98:	e12fff1e 	bx	lr

0000cb9c <_localeconv_r>:
_localeconv_r():
    cb9c:	e59f0000 	ldr	r0, [pc]	; cba4 <_localeconv_r+0x8>
    cba0:	e12fff1e 	bx	lr
    cba4:	0003a118 	andeq	sl, r3, r8, lsl r1

0000cba8 <localeconv>:
localeconv():
    cba8:	e59f0000 	ldr	r0, [pc]	; cbb0 <localeconv+0x8>
    cbac:	e12fff1e 	bx	lr
    cbb0:	0003a118 	andeq	sl, r3, r8, lsl r1

0000cbb4 <__retarget_lock_init>:
__retarget_lock_init():
    cbb4:	e12fff1e 	bx	lr

0000cbb8 <__retarget_lock_init_recursive>:
__retarget_lock_init_recursive():
    cbb8:	e12fff1e 	bx	lr

0000cbbc <__retarget_lock_close>:
__retarget_lock_close():
    cbbc:	e12fff1e 	bx	lr

0000cbc0 <__retarget_lock_close_recursive>:
__retarget_lock_close_recursive():
    cbc0:	e12fff1e 	bx	lr

0000cbc4 <__retarget_lock_acquire>:
__retarget_lock_acquire():
    cbc4:	e12fff1e 	bx	lr

0000cbc8 <__retarget_lock_acquire_recursive>:
__retarget_lock_acquire_recursive():
    cbc8:	e12fff1e 	bx	lr

0000cbcc <__retarget_lock_try_acquire>:
__retarget_lock_try_acquire():
    cbcc:	e3a00001 	mov	r0, #1
    cbd0:	e12fff1e 	bx	lr

0000cbd4 <__retarget_lock_try_acquire_recursive>:
__retarget_lock_try_acquire_recursive():
    cbd4:	e3a00001 	mov	r0, #1
    cbd8:	e12fff1e 	bx	lr

0000cbdc <__retarget_lock_release>:
__retarget_lock_release():
    cbdc:	e12fff1e 	bx	lr

0000cbe0 <__retarget_lock_release_recursive>:
__retarget_lock_release_recursive():
    cbe0:	e12fff1e 	bx	lr

0000cbe4 <__smakebuf_r>:
__smakebuf_r():
    cbe4:	e1d130bc 	ldrh	r3, [r1, #12]
    cbe8:	e92d41f0 	push	{r4, r5, r6, r7, r8, lr}
    cbec:	e3130002 	tst	r3, #2
    cbf0:	e24dd058 	sub	sp, sp, #88	; 0x58
    cbf4:	e1a04001 	mov	r4, r1
    cbf8:	0a000006 	beq	cc18 <__smakebuf_r+0x34>
    cbfc:	e2813043 	add	r3, r1, #67	; 0x43
    cc00:	e3a02001 	mov	r2, #1
    cc04:	e5813000 	str	r3, [r1]
    cc08:	e5813010 	str	r3, [r1, #16]
    cc0c:	e5812014 	str	r2, [r1, #20]
    cc10:	e28dd058 	add	sp, sp, #88	; 0x58
    cc14:	e8bd81f0 	pop	{r4, r5, r6, r7, r8, pc}
    cc18:	e1d110fe 	ldrsh	r1, [r1, #14]
    cc1c:	e1a06000 	mov	r6, r0
    cc20:	e3510000 	cmp	r1, #0
    cc24:	ba00001e 	blt	cca4 <__smakebuf_r+0xc0>
    cc28:	e1a0200d 	mov	r2, sp
    cc2c:	eb000ea6 	bl	106cc <_fstat_r>
    cc30:	e3500000 	cmp	r0, #0
    cc34:	ba000019 	blt	cca0 <__smakebuf_r+0xbc>
    cc38:	e59d5004 	ldr	r5, [sp, #4]
    cc3c:	e3a08b01 	mov	r8, #1024	; 0x400
    cc40:	e2055a0f 	and	r5, r5, #61440	; 0xf000
    cc44:	e2455a02 	sub	r5, r5, #8192	; 0x2000
    cc48:	e16f5f15 	clz	r5, r5
    cc4c:	e3a07b02 	mov	r7, #2048	; 0x800
    cc50:	e1a052a5 	lsr	r5, r5, #5
    cc54:	e1a01008 	mov	r1, r8
    cc58:	e1a00006 	mov	r0, r6
    cc5c:	eb000054 	bl	cdb4 <_malloc_r>
    cc60:	e3500000 	cmp	r0, #0
    cc64:	0a000015 	beq	ccc0 <__smakebuf_r+0xdc>
    cc68:	e1d430fc 	ldrsh	r3, [r4, #12]
    cc6c:	e59f20a8 	ldr	r2, [pc, #168]	; cd1c <__smakebuf_r+0x138>
    cc70:	e3833080 	orr	r3, r3, #128	; 0x80
    cc74:	e3550000 	cmp	r5, #0
    cc78:	e586203c 	str	r2, [r6, #60]	; 0x3c
    cc7c:	e5848014 	str	r8, [r4, #20]
    cc80:	e1c430bc 	strh	r3, [r4, #12]
    cc84:	e5840000 	str	r0, [r4]
    cc88:	e5840010 	str	r0, [r4, #16]
    cc8c:	1a000017 	bne	ccf0 <__smakebuf_r+0x10c>
    cc90:	e1833007 	orr	r3, r3, r7
    cc94:	e1c430bc 	strh	r3, [r4, #12]
    cc98:	e28dd058 	add	sp, sp, #88	; 0x58
    cc9c:	e8bd81f0 	pop	{r4, r5, r6, r7, r8, pc}
    cca0:	e1d430bc 	ldrh	r3, [r4, #12]
    cca4:	e2135080 	ands	r5, r3, #128	; 0x80
    cca8:	03a08b01 	moveq	r8, #1024	; 0x400
    ccac:	01a07005 	moveq	r7, r5
    ccb0:	13a05000 	movne	r5, #0
    ccb4:	13a08040 	movne	r8, #64	; 0x40
    ccb8:	11a07005 	movne	r7, r5
    ccbc:	eaffffe4 	b	cc54 <__smakebuf_r+0x70>
    ccc0:	e1d430fc 	ldrsh	r3, [r4, #12]
    ccc4:	e3130c02 	tst	r3, #512	; 0x200
    ccc8:	1affffd0 	bne	cc10 <__smakebuf_r+0x2c>
    cccc:	e3c33003 	bic	r3, r3, #3
    ccd0:	e2842043 	add	r2, r4, #67	; 0x43
    ccd4:	e3833002 	orr	r3, r3, #2
    ccd8:	e3a01001 	mov	r1, #1
    ccdc:	e1c430bc 	strh	r3, [r4, #12]
    cce0:	e5842000 	str	r2, [r4]
    cce4:	e5842010 	str	r2, [r4, #16]
    cce8:	e5841014 	str	r1, [r4, #20]
    ccec:	eaffffc7 	b	cc10 <__smakebuf_r+0x2c>
    ccf0:	e1d410fe 	ldrsh	r1, [r4, #14]
    ccf4:	e1a00006 	mov	r0, r6
    ccf8:	eb000fb0 	bl	10bc0 <_isatty_r>
    ccfc:	e3500000 	cmp	r0, #0
    cd00:	11d430bc 	ldrhne	r3, [r4, #12]
    cd04:	01d430fc 	ldrsheq	r3, [r4, #12]
    cd08:	13c33003 	bicne	r3, r3, #3
    cd0c:	13833001 	orrne	r3, r3, #1
    cd10:	11a03803 	lslne	r3, r3, #16
    cd14:	11a03843 	asrne	r3, r3, #16
    cd18:	eaffffdc 	b	cc90 <__smakebuf_r+0xac>
    cd1c:	0000c2b8 			; <UNDEFINED> instruction: 0x0000c2b8

0000cd20 <__swhatbuf_r>:
__swhatbuf_r():
    cd20:	e92d4070 	push	{r4, r5, r6, lr}
    cd24:	e1a04001 	mov	r4, r1
    cd28:	e1d110fe 	ldrsh	r1, [r1, #14]
    cd2c:	e24dd058 	sub	sp, sp, #88	; 0x58
    cd30:	e3510000 	cmp	r1, #0
    cd34:	e1a05002 	mov	r5, r2
    cd38:	e1a06003 	mov	r6, r3
    cd3c:	ba00000e 	blt	cd7c <__swhatbuf_r+0x5c>
    cd40:	e1a0200d 	mov	r2, sp
    cd44:	eb000e60 	bl	106cc <_fstat_r>
    cd48:	e3500000 	cmp	r0, #0
    cd4c:	ba00000a 	blt	cd7c <__swhatbuf_r+0x5c>
    cd50:	e59d3004 	ldr	r3, [sp, #4]
    cd54:	e3a02b01 	mov	r2, #1024	; 0x400
    cd58:	e2033a0f 	and	r3, r3, #61440	; 0xf000
    cd5c:	e2433a02 	sub	r3, r3, #8192	; 0x2000
    cd60:	e3a00b02 	mov	r0, #2048	; 0x800
    cd64:	e16f3f13 	clz	r3, r3
    cd68:	e1a032a3 	lsr	r3, r3, #5
    cd6c:	e5863000 	str	r3, [r6]
    cd70:	e5852000 	str	r2, [r5]
    cd74:	e28dd058 	add	sp, sp, #88	; 0x58
    cd78:	e8bd8070 	pop	{r4, r5, r6, pc}
    cd7c:	e1d410fc 	ldrsh	r1, [r4, #12]
    cd80:	e3a03000 	mov	r3, #0
    cd84:	e2110080 	ands	r0, r1, #128	; 0x80
    cd88:	e5863000 	str	r3, [r6]
    cd8c:	0a000004 	beq	cda4 <__swhatbuf_r+0x84>
    cd90:	e3a02040 	mov	r2, #64	; 0x40
    cd94:	e1a00003 	mov	r0, r3
    cd98:	e5852000 	str	r2, [r5]
    cd9c:	e28dd058 	add	sp, sp, #88	; 0x58
    cda0:	e8bd8070 	pop	{r4, r5, r6, pc}
    cda4:	e3a03b01 	mov	r3, #1024	; 0x400
    cda8:	e5853000 	str	r3, [r5]
    cdac:	e28dd058 	add	sp, sp, #88	; 0x58
    cdb0:	e8bd8070 	pop	{r4, r5, r6, pc}

0000cdb4 <_malloc_r>:
_malloc_r():
    cdb4:	e281300b 	add	r3, r1, #11
    cdb8:	e3530016 	cmp	r3, #22
    cdbc:	e92d4ff0 	push	{r4, r5, r6, r7, r8, r9, sl, fp, lr}
    cdc0:	e1a06000 	mov	r6, r0
    cdc4:	e24dd00c 	sub	sp, sp, #12
    cdc8:	8a00001b 	bhi	ce3c <_malloc_r+0x88>
    cdcc:	e3510010 	cmp	r1, #16
    cdd0:	8a00003d 	bhi	cecc <_malloc_r+0x118>
    cdd4:	eb0002bb 	bl	d8c8 <__malloc_lock>
    cdd8:	e3a05010 	mov	r5, #16
    cddc:	e3a02018 	mov	r2, #24
    cde0:	e3a0c002 	mov	ip, #2
    cde4:	e59f77a8 	ldr	r7, [pc, #1960]	; d594 <_malloc_r+0x7e0>
    cde8:	e0872002 	add	r2, r7, r2
    cdec:	e5924004 	ldr	r4, [r2, #4]
    cdf0:	e2423008 	sub	r3, r2, #8
    cdf4:	e1540003 	cmp	r4, r3
    cdf8:	0a000039 	beq	cee4 <_malloc_r+0x130>
    cdfc:	e5943004 	ldr	r3, [r4, #4]
    ce00:	e594200c 	ldr	r2, [r4, #12]
    ce04:	e5941008 	ldr	r1, [r4, #8]
    ce08:	e3c33003 	bic	r3, r3, #3
    ce0c:	e0843003 	add	r3, r4, r3
    ce10:	e581200c 	str	r2, [r1, #12]
    ce14:	e5821008 	str	r1, [r2, #8]
    ce18:	e5932004 	ldr	r2, [r3, #4]
    ce1c:	e1a00006 	mov	r0, r6
    ce20:	e3822001 	orr	r2, r2, #1
    ce24:	e5832004 	str	r2, [r3, #4]
    ce28:	e2844008 	add	r4, r4, #8
    ce2c:	eb0002a8 	bl	d8d4 <__malloc_unlock>
    ce30:	e1a00004 	mov	r0, r4
    ce34:	e28dd00c 	add	sp, sp, #12
    ce38:	e8bd8ff0 	pop	{r4, r5, r6, r7, r8, r9, sl, fp, pc}
    ce3c:	e3c35007 	bic	r5, r3, #7
    ce40:	e1510005 	cmp	r1, r5
    ce44:	93a01000 	movls	r1, #0
    ce48:	83a01001 	movhi	r1, #1
    ce4c:	e1913fa3 	orrs	r3, r1, r3, lsr #31
    ce50:	1a00001d 	bne	cecc <_malloc_r+0x118>
    ce54:	eb00029b 	bl	d8c8 <__malloc_lock>
    ce58:	e3550f7e 	cmp	r5, #504	; 0x1f8
    ce5c:	3a00013c 	bcc	d354 <_malloc_r+0x5a0>
    ce60:	e1b034a5 	lsrs	r3, r5, #9
    ce64:	0a0000b1 	beq	d130 <_malloc_r+0x37c>
    ce68:	e3530004 	cmp	r3, #4
    ce6c:	8a00011e 	bhi	d2ec <_malloc_r+0x538>
    ce70:	e1a03325 	lsr	r3, r5, #6
    ce74:	e283c039 	add	ip, r3, #57	; 0x39
    ce78:	e283e038 	add	lr, r3, #56	; 0x38
    ce7c:	e1a0018c 	lsl	r0, ip, #3
    ce80:	e59f770c 	ldr	r7, [pc, #1804]	; d594 <_malloc_r+0x7e0>
    ce84:	e0870000 	add	r0, r7, r0
    ce88:	e5903004 	ldr	r3, [r0, #4]
    ce8c:	e2400008 	sub	r0, r0, #8
    ce90:	e1500003 	cmp	r0, r3
    ce94:	1a000005 	bne	ceb0 <_malloc_r+0xfc>
    ce98:	ea000015 	b	cef4 <_malloc_r+0x140>
    ce9c:	e3510000 	cmp	r1, #0
    cea0:	aa0000e8 	bge	d248 <_malloc_r+0x494>
    cea4:	e593300c 	ldr	r3, [r3, #12]
    cea8:	e1500003 	cmp	r0, r3
    ceac:	0a000010 	beq	cef4 <_malloc_r+0x140>
    ceb0:	e5932004 	ldr	r2, [r3, #4]
    ceb4:	e3c22003 	bic	r2, r2, #3
    ceb8:	e0421005 	sub	r1, r2, r5
    cebc:	e351000f 	cmp	r1, #15
    cec0:	dafffff5 	ble	ce9c <_malloc_r+0xe8>
    cec4:	e1a0c00e 	mov	ip, lr
    cec8:	ea000009 	b	cef4 <_malloc_r+0x140>
    cecc:	e3a04000 	mov	r4, #0
    ced0:	e3a0300c 	mov	r3, #12
    ced4:	e1a00004 	mov	r0, r4
    ced8:	e5863000 	str	r3, [r6]
    cedc:	e28dd00c 	add	sp, sp, #12
    cee0:	e8bd8ff0 	pop	{r4, r5, r6, r7, r8, r9, sl, fp, pc}
    cee4:	e592400c 	ldr	r4, [r2, #12]
    cee8:	e1520004 	cmp	r2, r4
    ceec:	028cc002 	addeq	ip, ip, #2
    cef0:	1affffc1 	bne	cdfc <_malloc_r+0x48>
    cef4:	e5974010 	ldr	r4, [r7, #16]
    cef8:	e59fe698 	ldr	lr, [pc, #1688]	; d598 <_malloc_r+0x7e4>
    cefc:	e154000e 	cmp	r4, lr
    cf00:	05978004 	ldreq	r8, [r7, #4]
    cf04:	0a000018 	beq	cf6c <_malloc_r+0x1b8>
    cf08:	e5941004 	ldr	r1, [r4, #4]
    cf0c:	e3c11003 	bic	r1, r1, #3
    cf10:	e0413005 	sub	r3, r1, r5
    cf14:	e353000f 	cmp	r3, #15
    cf18:	ca000110 	bgt	d360 <_malloc_r+0x5ac>
    cf1c:	e3530000 	cmp	r3, #0
    cf20:	e587e014 	str	lr, [r7, #20]
    cf24:	e587e010 	str	lr, [r7, #16]
    cf28:	aa0000b2 	bge	d1f8 <_malloc_r+0x444>
    cf2c:	e3510c02 	cmp	r1, #512	; 0x200
    cf30:	2a0000d2 	bcs	d280 <_malloc_r+0x4cc>
    cf34:	e5978004 	ldr	r8, [r7, #4]
    cf38:	e1a031a1 	lsr	r3, r1, #3
    cf3c:	e2833001 	add	r3, r3, #1
    cf40:	e1a012a1 	lsr	r1, r1, #5
    cf44:	e3a02001 	mov	r2, #1
    cf48:	e1888112 	orr	r8, r8, r2, lsl r1
    cf4c:	e7971183 	ldr	r1, [r7, r3, lsl #3]
    cf50:	e0872183 	add	r2, r7, r3, lsl #3
    cf54:	e2422008 	sub	r2, r2, #8
    cf58:	e5841008 	str	r1, [r4, #8]
    cf5c:	e584200c 	str	r2, [r4, #12]
    cf60:	e5878004 	str	r8, [r7, #4]
    cf64:	e7874183 	str	r4, [r7, r3, lsl #3]
    cf68:	e581400c 	str	r4, [r1, #12]
    cf6c:	e1a0314c 	asr	r3, ip, #2
    cf70:	e3a01001 	mov	r1, #1
    cf74:	e1a01311 	lsl	r1, r1, r3
    cf78:	e1510008 	cmp	r1, r8
    cf7c:	9a00006f 	bls	d140 <_malloc_r+0x38c>
    cf80:	e5974008 	ldr	r4, [r7, #8]
    cf84:	e5948004 	ldr	r8, [r4, #4]
    cf88:	e3c88003 	bic	r8, r8, #3
    cf8c:	e1550008 	cmp	r5, r8
    cf90:	93a02000 	movls	r2, #0
    cf94:	83a02001 	movhi	r2, #1
    cf98:	e0483005 	sub	r3, r8, r5
    cf9c:	e353000f 	cmp	r3, #15
    cfa0:	d3822001 	orrle	r2, r2, #1
    cfa4:	e3520000 	cmp	r2, #0
    cfa8:	0a00009a 	beq	d218 <_malloc_r+0x464>
    cfac:	e59fa5e8 	ldr	sl, [pc, #1512]	; d59c <_malloc_r+0x7e8>
    cfb0:	e59f35e8 	ldr	r3, [pc, #1512]	; d5a0 <_malloc_r+0x7ec>
    cfb4:	e59a2000 	ldr	r2, [sl]
    cfb8:	e5933000 	ldr	r3, [r3]
    cfbc:	e3720001 	cmn	r2, #1
    cfc0:	e0853003 	add	r3, r5, r3
    cfc4:	12833a01 	addne	r3, r3, #4096	; 0x1000
    cfc8:	1283300f 	addne	r3, r3, #15
    cfcc:	13c39eff 	bicne	r9, r3, #4080	; 0xff0
    cfd0:	02839010 	addeq	r9, r3, #16
    cfd4:	13c9900f 	bicne	r9, r9, #15
    cfd8:	e1a01009 	mov	r1, r9
    cfdc:	e1a00006 	mov	r0, r6
    cfe0:	eb00062c 	bl	e898 <_sbrk_r>
    cfe4:	e084b008 	add	fp, r4, r8
    cfe8:	e3700001 	cmn	r0, #1
    cfec:	e1a02000 	mov	r2, r0
    cff0:	0a000128 	beq	d498 <_malloc_r+0x6e4>
    cff4:	e1540007 	cmp	r4, r7
    cff8:	115b0000 	cmpne	fp, r0
    cffc:	8a000125 	bhi	d498 <_malloc_r+0x6e4>
    d000:	e59f359c 	ldr	r3, [pc, #1436]	; d5a4 <_malloc_r+0x7f0>
    d004:	e15b0000 	cmp	fp, r0
    d008:	e5931000 	ldr	r1, [r3]
    d00c:	e0891001 	add	r1, r9, r1
    d010:	e5831000 	str	r1, [r3]
    d014:	0a000116 	beq	d474 <_malloc_r+0x6c0>
    d018:	e59a0000 	ldr	r0, [sl]
    d01c:	e3700001 	cmn	r0, #1
    d020:	1042b00b 	subne	fp, r2, fp
    d024:	108b1001 	addne	r1, fp, r1
    d028:	058a2000 	streq	r2, [sl]
    d02c:	15831000 	strne	r1, [r3]
    d030:	e212b007 	ands	fp, r2, #7
    d034:	1a0000e0 	bne	d3bc <_malloc_r+0x608>
    d038:	e0821009 	add	r1, r2, r9
    d03c:	e2611000 	rsb	r1, r1, #0
    d040:	e1a0aa01 	lsl	sl, r1, #20
    d044:	e1a0aa2a 	lsr	sl, sl, #20
    d048:	e1a0100a 	mov	r1, sl
    d04c:	e1a00006 	mov	r0, r6
    d050:	e58d2004 	str	r2, [sp, #4]
    d054:	eb00060f 	bl	e898 <_sbrk_r>
    d058:	e59d2004 	ldr	r2, [sp, #4]
    d05c:	e59f3540 	ldr	r3, [pc, #1344]	; d5a4 <_malloc_r+0x7f0>
    d060:	e3700001 	cmn	r0, #1
    d064:	01a0a00b 	moveq	sl, fp
    d068:	0a000001 	beq	d074 <_malloc_r+0x2c0>
    d06c:	e0400002 	sub	r0, r0, r2
    d070:	e080900a 	add	r9, r0, sl
    d074:	e5931000 	ldr	r1, [r3]
    d078:	e3899001 	orr	r9, r9, #1
    d07c:	e08a1001 	add	r1, sl, r1
    d080:	e1540007 	cmp	r4, r7
    d084:	e5872008 	str	r2, [r7, #8]
    d088:	e5831000 	str	r1, [r3]
    d08c:	e5829004 	str	r9, [r2, #4]
    d090:	0a000117 	beq	d4f4 <_malloc_r+0x740>
    d094:	e358000f 	cmp	r8, #15
    d098:	93a03001 	movls	r3, #1
    d09c:	95823004 	strls	r3, [r2, #4]
    d0a0:	9a00001e 	bls	d120 <_malloc_r+0x36c>
    d0a4:	e594c004 	ldr	ip, [r4, #4]
    d0a8:	e248000c 	sub	r0, r8, #12
    d0ac:	e3c00007 	bic	r0, r0, #7
    d0b0:	e20cc001 	and	ip, ip, #1
    d0b4:	e18cc000 	orr	ip, ip, r0
    d0b8:	e584c004 	str	ip, [r4, #4]
    d0bc:	e350000f 	cmp	r0, #15
    d0c0:	e3a0c005 	mov	ip, #5
    d0c4:	e0840000 	add	r0, r4, r0
    d0c8:	e580c004 	str	ip, [r0, #4]
    d0cc:	e580c008 	str	ip, [r0, #8]
    d0d0:	8a000118 	bhi	d538 <_malloc_r+0x784>
    d0d4:	e5929004 	ldr	r9, [r2, #4]
    d0d8:	e1a04002 	mov	r4, r2
    d0dc:	e59f34c4 	ldr	r3, [pc, #1220]	; d5a8 <_malloc_r+0x7f4>
    d0e0:	e5932000 	ldr	r2, [r3]
    d0e4:	e1520001 	cmp	r2, r1
    d0e8:	35831000 	strcc	r1, [r3]
    d0ec:	e59f34b8 	ldr	r3, [pc, #1208]	; d5ac <_malloc_r+0x7f8>
    d0f0:	e5932000 	ldr	r2, [r3]
    d0f4:	e1520001 	cmp	r2, r1
    d0f8:	35831000 	strcc	r1, [r3]
    d0fc:	e3c99003 	bic	r9, r9, #3
    d100:	e0493005 	sub	r3, r9, r5
    d104:	e353000f 	cmp	r3, #15
    d108:	c3a02000 	movgt	r2, #0
    d10c:	d3a02001 	movle	r2, #1
    d110:	e1550009 	cmp	r5, r9
    d114:	83822001 	orrhi	r2, r2, #1
    d118:	e3520000 	cmp	r2, #0
    d11c:	0a00003d 	beq	d218 <_malloc_r+0x464>
    d120:	e1a00006 	mov	r0, r6
    d124:	eb0001ea 	bl	d8d4 <__malloc_unlock>
    d128:	e3a04000 	mov	r4, #0
    d12c:	eaffff3f 	b	ce30 <_malloc_r+0x7c>
    d130:	e3a00c02 	mov	r0, #512	; 0x200
    d134:	e3a0c040 	mov	ip, #64	; 0x40
    d138:	e3a0e03f 	mov	lr, #63	; 0x3f
    d13c:	eaffff4f 	b	ce80 <_malloc_r+0xcc>
    d140:	e1110008 	tst	r1, r8
    d144:	1a000008 	bne	d16c <_malloc_r+0x3b8>
    d148:	e1a01081 	lsl	r1, r1, #1
    d14c:	e3ccc003 	bic	ip, ip, #3
    d150:	e1110008 	tst	r1, r8
    d154:	e28cc004 	add	ip, ip, #4
    d158:	1a000003 	bne	d16c <_malloc_r+0x3b8>
    d15c:	e1a01081 	lsl	r1, r1, #1
    d160:	e1110008 	tst	r1, r8
    d164:	e28cc004 	add	ip, ip, #4
    d168:	0afffffb 	beq	d15c <_malloc_r+0x3a8>
    d16c:	e087918c 	add	r9, r7, ip, lsl #3
    d170:	e1a00009 	mov	r0, r9
    d174:	e1a0400c 	mov	r4, ip
    d178:	e590800c 	ldr	r8, [r0, #12]
    d17c:	e1500008 	cmp	r0, r8
    d180:	1a000005 	bne	d19c <_malloc_r+0x3e8>
    d184:	ea000061 	b	d310 <_malloc_r+0x55c>
    d188:	e3520000 	cmp	r2, #0
    d18c:	aa000064 	bge	d324 <_malloc_r+0x570>
    d190:	e598800c 	ldr	r8, [r8, #12]
    d194:	e1500008 	cmp	r0, r8
    d198:	0a00005c 	beq	d310 <_malloc_r+0x55c>
    d19c:	e5983004 	ldr	r3, [r8, #4]
    d1a0:	e3c33003 	bic	r3, r3, #3
    d1a4:	e0432005 	sub	r2, r3, r5
    d1a8:	e352000f 	cmp	r2, #15
    d1ac:	dafffff5 	ble	d188 <_malloc_r+0x3d4>
    d1b0:	e598c00c 	ldr	ip, [r8, #12]
    d1b4:	e5984008 	ldr	r4, [r8, #8]
    d1b8:	e0881005 	add	r1, r8, r5
    d1bc:	e3855001 	orr	r5, r5, #1
    d1c0:	e5885004 	str	r5, [r8, #4]
    d1c4:	e584c00c 	str	ip, [r4, #12]
    d1c8:	e58c4008 	str	r4, [ip, #8]
    d1cc:	e382c001 	orr	ip, r2, #1
    d1d0:	e5871014 	str	r1, [r7, #20]
    d1d4:	e5871010 	str	r1, [r7, #16]
    d1d8:	e1a00006 	mov	r0, r6
    d1dc:	e581e00c 	str	lr, [r1, #12]
    d1e0:	e581e008 	str	lr, [r1, #8]
    d1e4:	e581c004 	str	ip, [r1, #4]
    d1e8:	e7882003 	str	r2, [r8, r3]
    d1ec:	eb0001b8 	bl	d8d4 <__malloc_unlock>
    d1f0:	e2884008 	add	r4, r8, #8
    d1f4:	eaffff0d 	b	ce30 <_malloc_r+0x7c>
    d1f8:	e0841001 	add	r1, r4, r1
    d1fc:	e5913004 	ldr	r3, [r1, #4]
    d200:	e1a00006 	mov	r0, r6
    d204:	e3833001 	orr	r3, r3, #1
    d208:	e5813004 	str	r3, [r1, #4]
    d20c:	eb0001b0 	bl	d8d4 <__malloc_unlock>
    d210:	e2844008 	add	r4, r4, #8
    d214:	eaffff05 	b	ce30 <_malloc_r+0x7c>
    d218:	e0842005 	add	r2, r4, r5
    d21c:	e3833001 	orr	r3, r3, #1
    d220:	e3855001 	orr	r5, r5, #1
    d224:	e5845004 	str	r5, [r4, #4]
    d228:	e1a00006 	mov	r0, r6
    d22c:	e5872008 	str	r2, [r7, #8]
    d230:	e5823004 	str	r3, [r2, #4]
    d234:	eb0001a6 	bl	d8d4 <__malloc_unlock>
    d238:	e2844008 	add	r4, r4, #8
    d23c:	e1a00004 	mov	r0, r4
    d240:	e28dd00c 	add	sp, sp, #12
    d244:	e8bd8ff0 	pop	{r4, r5, r6, r7, r8, r9, sl, fp, pc}
    d248:	e593100c 	ldr	r1, [r3, #12]
    d24c:	e593c008 	ldr	ip, [r3, #8]
    d250:	e0832002 	add	r2, r3, r2
    d254:	e58c100c 	str	r1, [ip, #12]
    d258:	e581c008 	str	ip, [r1, #8]
    d25c:	e5921004 	ldr	r1, [r2, #4]
    d260:	e2834008 	add	r4, r3, #8
    d264:	e3813001 	orr	r3, r1, #1
    d268:	e1a00006 	mov	r0, r6
    d26c:	e5823004 	str	r3, [r2, #4]
    d270:	eb000197 	bl	d8d4 <__malloc_unlock>
    d274:	e1a00004 	mov	r0, r4
    d278:	e28dd00c 	add	sp, sp, #12
    d27c:	e8bd8ff0 	pop	{r4, r5, r6, r7, r8, r9, sl, fp, pc}
    d280:	e3510c0a 	cmp	r1, #2560	; 0xa00
    d284:	e1a034a1 	lsr	r3, r1, #9
    d288:	3a000042 	bcc	d398 <_malloc_r+0x5e4>
    d28c:	e3530014 	cmp	r3, #20
    d290:	8a000089 	bhi	d4bc <_malloc_r+0x708>
    d294:	e283205c 	add	r2, r3, #92	; 0x5c
    d298:	e1a02182 	lsl	r2, r2, #3
    d29c:	e283305b 	add	r3, r3, #91	; 0x5b
    d2a0:	e7970002 	ldr	r0, [r7, r2]
    d2a4:	e0872002 	add	r2, r7, r2
    d2a8:	e2422008 	sub	r2, r2, #8
    d2ac:	e1520000 	cmp	r2, r0
    d2b0:	0a00007b 	beq	d4a4 <_malloc_r+0x6f0>
    d2b4:	e5903004 	ldr	r3, [r0, #4]
    d2b8:	e3c33003 	bic	r3, r3, #3
    d2bc:	e1530001 	cmp	r3, r1
    d2c0:	9a000002 	bls	d2d0 <_malloc_r+0x51c>
    d2c4:	e5900008 	ldr	r0, [r0, #8]
    d2c8:	e1520000 	cmp	r2, r0
    d2cc:	1afffff8 	bne	d2b4 <_malloc_r+0x500>
    d2d0:	e590200c 	ldr	r2, [r0, #12]
    d2d4:	e5978004 	ldr	r8, [r7, #4]
    d2d8:	e584200c 	str	r2, [r4, #12]
    d2dc:	e5840008 	str	r0, [r4, #8]
    d2e0:	e5824008 	str	r4, [r2, #8]
    d2e4:	e580400c 	str	r4, [r0, #12]
    d2e8:	eaffff1f 	b	cf6c <_malloc_r+0x1b8>
    d2ec:	e3530014 	cmp	r3, #20
    d2f0:	9a00002d 	bls	d3ac <_malloc_r+0x5f8>
    d2f4:	e3530054 	cmp	r3, #84	; 0x54
    d2f8:	8a000076 	bhi	d4d8 <_malloc_r+0x724>
    d2fc:	e1a03625 	lsr	r3, r5, #12
    d300:	e283c06f 	add	ip, r3, #111	; 0x6f
    d304:	e283e06e 	add	lr, r3, #110	; 0x6e
    d308:	e1a0018c 	lsl	r0, ip, #3
    d30c:	eafffedb 	b	ce80 <_malloc_r+0xcc>
    d310:	e2844001 	add	r4, r4, #1
    d314:	e3140003 	tst	r4, #3
    d318:	e2800008 	add	r0, r0, #8
    d31c:	1affff95 	bne	d178 <_malloc_r+0x3c4>
    d320:	ea00003e 	b	d420 <_malloc_r+0x66c>
    d324:	e0882003 	add	r2, r8, r3
    d328:	e5923004 	ldr	r3, [r2, #4]
    d32c:	e1a04008 	mov	r4, r8
    d330:	e3833001 	orr	r3, r3, #1
    d334:	e598100c 	ldr	r1, [r8, #12]
    d338:	e5823004 	str	r3, [r2, #4]
    d33c:	e5b43008 	ldr	r3, [r4, #8]!
    d340:	e1a00006 	mov	r0, r6
    d344:	e583100c 	str	r1, [r3, #12]
    d348:	e5813008 	str	r3, [r1, #8]
    d34c:	eb000160 	bl	d8d4 <__malloc_unlock>
    d350:	eafffeb6 	b	ce30 <_malloc_r+0x7c>
    d354:	e1a0c1a5 	lsr	ip, r5, #3
    d358:	e2852008 	add	r2, r5, #8
    d35c:	eafffea0 	b	cde4 <_malloc_r+0x30>
    d360:	e0842005 	add	r2, r4, r5
    d364:	e383c001 	orr	ip, r3, #1
    d368:	e3855001 	orr	r5, r5, #1
    d36c:	e5845004 	str	r5, [r4, #4]
    d370:	e1a00006 	mov	r0, r6
    d374:	e5872014 	str	r2, [r7, #20]
    d378:	e5872010 	str	r2, [r7, #16]
    d37c:	e582e00c 	str	lr, [r2, #12]
    d380:	e582e008 	str	lr, [r2, #8]
    d384:	e582c004 	str	ip, [r2, #4]
    d388:	e7843001 	str	r3, [r4, r1]
    d38c:	eb000150 	bl	d8d4 <__malloc_unlock>
    d390:	e2844008 	add	r4, r4, #8
    d394:	eafffea5 	b	ce30 <_malloc_r+0x7c>
    d398:	e1a03321 	lsr	r3, r1, #6
    d39c:	e2832039 	add	r2, r3, #57	; 0x39
    d3a0:	e1a02182 	lsl	r2, r2, #3
    d3a4:	e2833038 	add	r3, r3, #56	; 0x38
    d3a8:	eaffffbc 	b	d2a0 <_malloc_r+0x4ec>
    d3ac:	e283c05c 	add	ip, r3, #92	; 0x5c
    d3b0:	e283e05b 	add	lr, r3, #91	; 0x5b
    d3b4:	e1a0018c 	lsl	r0, ip, #3
    d3b8:	eafffeb0 	b	ce80 <_malloc_r+0xcc>
    d3bc:	e26b1008 	rsb	r1, fp, #8
    d3c0:	e0822001 	add	r2, r2, r1
    d3c4:	e26b1a01 	rsb	r1, fp, #4096	; 0x1000
    d3c8:	e0829009 	add	r9, r2, r9
    d3cc:	e2811008 	add	r1, r1, #8
    d3d0:	e0411009 	sub	r1, r1, r9
    d3d4:	e1a0aa01 	lsl	sl, r1, #20
    d3d8:	e1a0aa2a 	lsr	sl, sl, #20
    d3dc:	e1a0100a 	mov	r1, sl
    d3e0:	e1a00006 	mov	r0, r6
    d3e4:	e58d2004 	str	r2, [sp, #4]
    d3e8:	eb00052a 	bl	e898 <_sbrk_r>
    d3ec:	e59d2004 	ldr	r2, [sp, #4]
    d3f0:	e59f31ac 	ldr	r3, [pc, #428]	; d5a4 <_malloc_r+0x7f0>
    d3f4:	e3700001 	cmn	r0, #1
    d3f8:	1affff1b 	bne	d06c <_malloc_r+0x2b8>
    d3fc:	e24bb008 	sub	fp, fp, #8
    d400:	e089900b 	add	r9, r9, fp
    d404:	e0499002 	sub	r9, r9, r2
    d408:	e3a0a000 	mov	sl, #0
    d40c:	eaffff18 	b	d074 <_malloc_r+0x2c0>
    d410:	e4193008 	ldr	r3, [r9], #-8
    d414:	e24cc001 	sub	ip, ip, #1
    d418:	e1530009 	cmp	r3, r9
    d41c:	1a00005a 	bne	d58c <_malloc_r+0x7d8>
    d420:	e31c0003 	tst	ip, #3
    d424:	1afffff9 	bne	d410 <_malloc_r+0x65c>
    d428:	e5973004 	ldr	r3, [r7, #4]
    d42c:	e1c33001 	bic	r3, r3, r1
    d430:	e5873004 	str	r3, [r7, #4]
    d434:	e1b01081 	lsls	r1, r1, #1
    d438:	13a02001 	movne	r2, #1
    d43c:	03a02000 	moveq	r2, #0
    d440:	e1510003 	cmp	r1, r3
    d444:	83a02000 	movhi	r2, #0
    d448:	92022001 	andls	r2, r2, #1
    d44c:	e3520000 	cmp	r2, #0
    d450:	0afffeca 	beq	cf80 <_malloc_r+0x1cc>
    d454:	e1110003 	tst	r1, r3
    d458:	1a000003 	bne	d46c <_malloc_r+0x6b8>
    d45c:	e1a01081 	lsl	r1, r1, #1
    d460:	e1110003 	tst	r1, r3
    d464:	e2844004 	add	r4, r4, #4
    d468:	0afffffb 	beq	d45c <_malloc_r+0x6a8>
    d46c:	e1a0c004 	mov	ip, r4
    d470:	eaffff3d 	b	d16c <_malloc_r+0x3b8>
    d474:	e1a00a0b 	lsl	r0, fp, #20
    d478:	e1a00a20 	lsr	r0, r0, #20
    d47c:	e3500000 	cmp	r0, #0
    d480:	1afffee4 	bne	d018 <_malloc_r+0x264>
    d484:	e5974008 	ldr	r4, [r7, #8]
    d488:	e0889009 	add	r9, r8, r9
    d48c:	e3899001 	orr	r9, r9, #1
    d490:	e5849004 	str	r9, [r4, #4]
    d494:	eaffff10 	b	d0dc <_malloc_r+0x328>
    d498:	e5974008 	ldr	r4, [r7, #8]
    d49c:	e5949004 	ldr	r9, [r4, #4]
    d4a0:	eaffff15 	b	d0fc <_malloc_r+0x348>
    d4a4:	e5978004 	ldr	r8, [r7, #4]
    d4a8:	e1a03143 	asr	r3, r3, #2
    d4ac:	e3a01001 	mov	r1, #1
    d4b0:	e1888311 	orr	r8, r8, r1, lsl r3
    d4b4:	e5878004 	str	r8, [r7, #4]
    d4b8:	eaffff86 	b	d2d8 <_malloc_r+0x524>
    d4bc:	e3530054 	cmp	r3, #84	; 0x54
    d4c0:	8a00000d 	bhi	d4fc <_malloc_r+0x748>
    d4c4:	e1a03621 	lsr	r3, r1, #12
    d4c8:	e283206f 	add	r2, r3, #111	; 0x6f
    d4cc:	e1a02182 	lsl	r2, r2, #3
    d4d0:	e283306e 	add	r3, r3, #110	; 0x6e
    d4d4:	eaffff71 	b	d2a0 <_malloc_r+0x4ec>
    d4d8:	e3530f55 	cmp	r3, #340	; 0x154
    d4dc:	8a00000d 	bhi	d518 <_malloc_r+0x764>
    d4e0:	e1a037a5 	lsr	r3, r5, #15
    d4e4:	e283c078 	add	ip, r3, #120	; 0x78
    d4e8:	e283e077 	add	lr, r3, #119	; 0x77
    d4ec:	e1a0018c 	lsl	r0, ip, #3
    d4f0:	eafffe62 	b	ce80 <_malloc_r+0xcc>
    d4f4:	e1a04002 	mov	r4, r2
    d4f8:	eafffef7 	b	d0dc <_malloc_r+0x328>
    d4fc:	e3530f55 	cmp	r3, #340	; 0x154
    d500:	8a000014 	bhi	d558 <_malloc_r+0x7a4>
    d504:	e1a037a1 	lsr	r3, r1, #15
    d508:	e2832078 	add	r2, r3, #120	; 0x78
    d50c:	e1a02182 	lsl	r2, r2, #3
    d510:	e2833077 	add	r3, r3, #119	; 0x77
    d514:	eaffff61 	b	d2a0 <_malloc_r+0x4ec>
    d518:	e59f2090 	ldr	r2, [pc, #144]	; d5b0 <_malloc_r+0x7fc>
    d51c:	e1530002 	cmp	r3, r2
    d520:	8a000015 	bhi	d57c <_malloc_r+0x7c8>
    d524:	e1a03925 	lsr	r3, r5, #18
    d528:	e283c07d 	add	ip, r3, #125	; 0x7d
    d52c:	e283e07c 	add	lr, r3, #124	; 0x7c
    d530:	e1a0018c 	lsl	r0, ip, #3
    d534:	eafffe51 	b	ce80 <_malloc_r+0xcc>
    d538:	e2841008 	add	r1, r4, #8
    d53c:	e1a00006 	mov	r0, r6
    d540:	ebfffc9f 	bl	c7c4 <_free_r>
    d544:	e5974008 	ldr	r4, [r7, #8]
    d548:	e59f3054 	ldr	r3, [pc, #84]	; d5a4 <_malloc_r+0x7f0>
    d54c:	e5949004 	ldr	r9, [r4, #4]
    d550:	e5931000 	ldr	r1, [r3]
    d554:	eafffee0 	b	d0dc <_malloc_r+0x328>
    d558:	e59f2050 	ldr	r2, [pc, #80]	; d5b0 <_malloc_r+0x7fc>
    d55c:	e1530002 	cmp	r3, r2
    d560:	91a03921 	lsrls	r3, r1, #18
    d564:	9283207d 	addls	r2, r3, #125	; 0x7d
    d568:	91a02182 	lslls	r2, r2, #3
    d56c:	9283307c 	addls	r3, r3, #124	; 0x7c
    d570:	83a02ffe 	movhi	r2, #1016	; 0x3f8
    d574:	83a0307e 	movhi	r3, #126	; 0x7e
    d578:	eaffff48 	b	d2a0 <_malloc_r+0x4ec>
    d57c:	e3a00ffe 	mov	r0, #1016	; 0x3f8
    d580:	e3a0c07f 	mov	ip, #127	; 0x7f
    d584:	e3a0e07e 	mov	lr, #126	; 0x7e
    d588:	eafffe3c 	b	ce80 <_malloc_r+0xcc>
    d58c:	e5973004 	ldr	r3, [r7, #4]
    d590:	eaffffa7 	b	d434 <_malloc_r+0x680>
    d594:	00039c18 	andeq	r9, r3, r8, lsl ip
    d598:	00039c20 	andeq	r9, r3, r0, lsr #24
    d59c:	0003a020 	andeq	sl, r3, r0, lsr #32
    d5a0:	0003a26c 	andeq	sl, r3, ip, ror #4
    d5a4:	0003a23c 	andeq	sl, r3, ip, lsr r2
    d5a8:	0003a264 	andeq	sl, r3, r4, ror #4
    d5ac:	0003a268 	andeq	sl, r3, r8, ror #4
    d5b0:	00000554 	andeq	r0, r0, r4, asr r5

0000d5b4 <memchr>:
memchr():
    d5b4:	e3100003 	tst	r0, #3
    d5b8:	e20110ff 	and	r1, r1, #255	; 0xff
    d5bc:	0a000030 	beq	d684 <memchr+0xd0>
    d5c0:	e3520000 	cmp	r2, #0
    d5c4:	e1a03000 	mov	r3, r0
    d5c8:	e242c001 	sub	ip, r2, #1
    d5cc:	1a000002 	bne	d5dc <memchr+0x28>
    d5d0:	ea000017 	b	d634 <memchr+0x80>
    d5d4:	e25cc001 	subs	ip, ip, #1
    d5d8:	3a000015 	bcc	d634 <memchr+0x80>
    d5dc:	e1a00003 	mov	r0, r3
    d5e0:	e4d32001 	ldrb	r2, [r3], #1
    d5e4:	e1520001 	cmp	r2, r1
    d5e8:	012fff1e 	bxeq	lr
    d5ec:	e3130003 	tst	r3, #3
    d5f0:	e1a00003 	mov	r0, r3
    d5f4:	1afffff6 	bne	d5d4 <memchr+0x20>
    d5f8:	e35c0003 	cmp	ip, #3
    d5fc:	e92d4070 	push	{r4, r5, r6, lr}
    d600:	8a00000d 	bhi	d63c <memchr+0x88>
    d604:	e35c0000 	cmp	ip, #0
    d608:	0a000007 	beq	d62c <memchr+0x78>
    d60c:	e1a03000 	mov	r3, r0
    d610:	e080c00c 	add	ip, r0, ip
    d614:	e1a00003 	mov	r0, r3
    d618:	e4d32001 	ldrb	r2, [r3], #1
    d61c:	e1520001 	cmp	r2, r1
    d620:	08bd8070 	popeq	{r4, r5, r6, pc}
    d624:	e153000c 	cmp	r3, ip
    d628:	1afffff9 	bne	d614 <memchr+0x60>
    d62c:	e3a00000 	mov	r0, #0
    d630:	e8bd8070 	pop	{r4, r5, r6, pc}
    d634:	e3a00000 	mov	r0, #0
    d638:	e12fff1e 	bx	lr
    d63c:	e1814401 	orr	r4, r1, r1, lsl #8
    d640:	e59f6044 	ldr	r6, [pc, #68]	; d68c <memchr+0xd8>
    d644:	e59f5044 	ldr	r5, [pc, #68]	; d690 <memchr+0xdc>
    d648:	e1844804 	orr	r4, r4, r4, lsl #16
    d64c:	e1a02000 	mov	r2, r0
    d650:	e5923000 	ldr	r3, [r2]
    d654:	e1a00002 	mov	r0, r2
    d658:	e0233004 	eor	r3, r3, r4
    d65c:	e083e006 	add	lr, r3, r6
    d660:	e1ce3003 	bic	r3, lr, r3
    d664:	e1130005 	tst	r3, r5
    d668:	e2822004 	add	r2, r2, #4
    d66c:	1affffe6 	bne	d60c <memchr+0x58>
    d670:	e24cc004 	sub	ip, ip, #4
    d674:	e35c0003 	cmp	ip, #3
    d678:	e1a00002 	mov	r0, r2
    d67c:	8afffff3 	bhi	d650 <memchr+0x9c>
    d680:	eaffffdf 	b	d604 <memchr+0x50>
    d684:	e1a0c002 	mov	ip, r2
    d688:	eaffffda 	b	d5f8 <memchr+0x44>
    d68c:	fefefeff 	mrc2	14, 7, pc, cr14, cr15, {7}
    d690:	80808080 	addhi	r8, r0, r0, lsl #1

0000d694 <memcpy>:
memcpy():
    d694:	e352000f 	cmp	r2, #15
    d698:	9a000035 	bls	d774 <memcpy+0xe0>
    d69c:	e1803001 	orr	r3, r0, r1
    d6a0:	e3130003 	tst	r3, #3
    d6a4:	1a00003e 	bne	d7a4 <memcpy+0x110>
    d6a8:	e242c010 	sub	ip, r2, #16
    d6ac:	e92d40f0 	push	{r4, r5, r6, r7, lr}
    d6b0:	e3cc300f 	bic	r3, ip, #15
    d6b4:	e2814020 	add	r4, r1, #32
    d6b8:	e0844003 	add	r4, r4, r3
    d6bc:	e2815010 	add	r5, r1, #16
    d6c0:	e2806010 	add	r6, r0, #16
    d6c4:	e1a0322c 	lsr	r3, ip, #4
    d6c8:	e515e00c 	ldr	lr, [r5, #-12]
    d6cc:	e515c008 	ldr	ip, [r5, #-8]
    d6d0:	e5157010 	ldr	r7, [r5, #-16]
    d6d4:	e506e00c 	str	lr, [r6, #-12]
    d6d8:	e2855010 	add	r5, r5, #16
    d6dc:	e515e014 	ldr	lr, [r5, #-20]	; 0xffffffec
    d6e0:	e1550004 	cmp	r5, r4
    d6e4:	e5067010 	str	r7, [r6, #-16]
    d6e8:	e9065000 	stmdb	r6, {ip, lr}
    d6ec:	e2866010 	add	r6, r6, #16
    d6f0:	1afffff4 	bne	d6c8 <memcpy+0x34>
    d6f4:	e283c001 	add	ip, r3, #1
    d6f8:	e312000c 	tst	r2, #12
    d6fc:	e202300f 	and	r3, r2, #15
    d700:	e081120c 	add	r1, r1, ip, lsl #4
    d704:	01a02003 	moveq	r2, r3
    d708:	e080c20c 	add	ip, r0, ip, lsl #4
    d70c:	0a00000d 	beq	d748 <memcpy+0xb4>
    d710:	e2433004 	sub	r3, r3, #4
    d714:	e3c36003 	bic	r6, r3, #3
    d718:	e1a0e123 	lsr	lr, r3, #2
    d71c:	e08c6006 	add	r6, ip, r6
    d720:	e24c3004 	sub	r3, ip, #4
    d724:	e1a04001 	mov	r4, r1
    d728:	e4945004 	ldr	r5, [r4], #4
    d72c:	e5a35004 	str	r5, [r3, #4]!
    d730:	e1530006 	cmp	r3, r6
    d734:	1afffffb 	bne	d728 <memcpy+0x94>
    d738:	e28e3001 	add	r3, lr, #1
    d73c:	e2022003 	and	r2, r2, #3
    d740:	e08cc103 	add	ip, ip, r3, lsl #2
    d744:	e0811103 	add	r1, r1, r3, lsl #2
    d748:	e3520000 	cmp	r2, #0
    d74c:	e2423001 	sub	r3, r2, #1
    d750:	08bd80f0 	popeq	{r4, r5, r6, r7, pc}
    d754:	e2833001 	add	r3, r3, #1
    d758:	e24c2001 	sub	r2, ip, #1
    d75c:	e0813003 	add	r3, r1, r3
    d760:	e4d1c001 	ldrb	ip, [r1], #1
    d764:	e5e2c001 	strb	ip, [r2, #1]!
    d768:	e1510003 	cmp	r1, r3
    d76c:	1afffffb 	bne	d760 <memcpy+0xcc>
    d770:	e8bd80f0 	pop	{r4, r5, r6, r7, pc}
    d774:	e3520000 	cmp	r2, #0
    d778:	e1a0c000 	mov	ip, r0
    d77c:	e2423001 	sub	r3, r2, #1
    d780:	012fff1e 	bxeq	lr
    d784:	e2833001 	add	r3, r3, #1
    d788:	e24c2001 	sub	r2, ip, #1
    d78c:	e0813003 	add	r3, r1, r3
    d790:	e4d1c001 	ldrb	ip, [r1], #1
    d794:	e5e2c001 	strb	ip, [r2, #1]!
    d798:	e1510003 	cmp	r1, r3
    d79c:	1afffffb 	bne	d790 <memcpy+0xfc>
    d7a0:	e12fff1e 	bx	lr
    d7a4:	e2423001 	sub	r3, r2, #1
    d7a8:	e1a0c000 	mov	ip, r0
    d7ac:	eafffff4 	b	d784 <memcpy+0xf0>

0000d7b0 <memset>:
memset():
    d7b0:	e3100003 	tst	r0, #3
    d7b4:	0a00003f 	beq	d8b8 <memset+0x108>
    d7b8:	e3520000 	cmp	r2, #0
    d7bc:	e2422001 	sub	r2, r2, #1
    d7c0:	012fff1e 	bxeq	lr
    d7c4:	e201c0ff 	and	ip, r1, #255	; 0xff
    d7c8:	e1a03000 	mov	r3, r0
    d7cc:	ea000002 	b	d7dc <memset+0x2c>
    d7d0:	e2422001 	sub	r2, r2, #1
    d7d4:	e3720001 	cmn	r2, #1
    d7d8:	012fff1e 	bxeq	lr
    d7dc:	e4c3c001 	strb	ip, [r3], #1
    d7e0:	e3130003 	tst	r3, #3
    d7e4:	1afffff9 	bne	d7d0 <memset+0x20>
    d7e8:	e3520003 	cmp	r2, #3
    d7ec:	9a000027 	bls	d890 <memset+0xe0>
    d7f0:	e92d4030 	push	{r4, r5, lr}
    d7f4:	e201e0ff 	and	lr, r1, #255	; 0xff
    d7f8:	e18ee40e 	orr	lr, lr, lr, lsl #8
    d7fc:	e352000f 	cmp	r2, #15
    d800:	e18ee80e 	orr	lr, lr, lr, lsl #16
    d804:	9a00002d 	bls	d8c0 <memset+0x110>
    d808:	e242c010 	sub	ip, r2, #16
    d80c:	e3cc400f 	bic	r4, ip, #15
    d810:	e2835020 	add	r5, r3, #32
    d814:	e0855004 	add	r5, r5, r4
    d818:	e1a0422c 	lsr	r4, ip, #4
    d81c:	e283c010 	add	ip, r3, #16
    d820:	e50ce010 	str	lr, [ip, #-16]
    d824:	e50ce00c 	str	lr, [ip, #-12]
    d828:	e50ce008 	str	lr, [ip, #-8]
    d82c:	e50ce004 	str	lr, [ip, #-4]
    d830:	e28cc010 	add	ip, ip, #16
    d834:	e15c0005 	cmp	ip, r5
    d838:	1afffff8 	bne	d820 <memset+0x70>
    d83c:	e284c001 	add	ip, r4, #1
    d840:	e312000c 	tst	r2, #12
    d844:	e083c20c 	add	ip, r3, ip, lsl #4
    d848:	e202200f 	and	r2, r2, #15
    d84c:	0a000017 	beq	d8b0 <memset+0x100>
    d850:	e2423004 	sub	r3, r2, #4
    d854:	e3c33003 	bic	r3, r3, #3
    d858:	e2833004 	add	r3, r3, #4
    d85c:	e08c3003 	add	r3, ip, r3
    d860:	e48ce004 	str	lr, [ip], #4
    d864:	e153000c 	cmp	r3, ip
    d868:	1afffffc 	bne	d860 <memset+0xb0>
    d86c:	e2022003 	and	r2, r2, #3
    d870:	e3520000 	cmp	r2, #0
    d874:	08bd8030 	popeq	{r4, r5, pc}
    d878:	e20110ff 	and	r1, r1, #255	; 0xff
    d87c:	e0832002 	add	r2, r3, r2
    d880:	e4c31001 	strb	r1, [r3], #1
    d884:	e1520003 	cmp	r2, r3
    d888:	1afffffc 	bne	d880 <memset+0xd0>
    d88c:	e8bd8030 	pop	{r4, r5, pc}
    d890:	e3520000 	cmp	r2, #0
    d894:	012fff1e 	bxeq	lr
    d898:	e20110ff 	and	r1, r1, #255	; 0xff
    d89c:	e0832002 	add	r2, r3, r2
    d8a0:	e4c31001 	strb	r1, [r3], #1
    d8a4:	e1520003 	cmp	r2, r3
    d8a8:	1afffffc 	bne	d8a0 <memset+0xf0>
    d8ac:	e12fff1e 	bx	lr
    d8b0:	e1a0300c 	mov	r3, ip
    d8b4:	eaffffed 	b	d870 <memset+0xc0>
    d8b8:	e1a03000 	mov	r3, r0
    d8bc:	eaffffc9 	b	d7e8 <memset+0x38>
    d8c0:	e1a0c003 	mov	ip, r3
    d8c4:	eaffffe1 	b	d850 <memset+0xa0>

0000d8c8 <__malloc_lock>:
__malloc_lock():
    d8c8:	e59f0000 	ldr	r0, [pc]	; d8d0 <__malloc_lock+0x8>
    d8cc:	eafffcbd 	b	cbc8 <__retarget_lock_acquire_recursive>
    d8d0:	0003a22c 	andeq	sl, r3, ip, lsr #4

0000d8d4 <__malloc_unlock>:
__malloc_unlock():
    d8d4:	e59f0000 	ldr	r0, [pc]	; d8dc <__malloc_unlock+0x8>
    d8d8:	eafffcc0 	b	cbe0 <__retarget_lock_release_recursive>
    d8dc:	0003a22c 	andeq	sl, r3, ip, lsr #4

0000d8e0 <_Balloc>:
_Balloc():
    d8e0:	e590304c 	ldr	r3, [r0, #76]	; 0x4c
    d8e4:	e92d4070 	push	{r4, r5, r6, lr}
    d8e8:	e3530000 	cmp	r3, #0
    d8ec:	e1a05000 	mov	r5, r0
    d8f0:	e1a04001 	mov	r4, r1
    d8f4:	0a000008 	beq	d91c <_Balloc+0x3c>
    d8f8:	e7930104 	ldr	r0, [r3, r4, lsl #2]
    d8fc:	e3500000 	cmp	r0, #0
    d900:	0a00000e 	beq	d940 <_Balloc+0x60>
    d904:	e5902000 	ldr	r2, [r0]
    d908:	e7832104 	str	r2, [r3, r4, lsl #2]
    d90c:	e3a03000 	mov	r3, #0
    d910:	e5803010 	str	r3, [r0, #16]
    d914:	e580300c 	str	r3, [r0, #12]
    d918:	e8bd8070 	pop	{r4, r5, r6, pc}
    d91c:	e3a02021 	mov	r2, #33	; 0x21
    d920:	e3a01004 	mov	r1, #4
    d924:	eb000a0b 	bl	10158 <_calloc_r>
    d928:	e3500000 	cmp	r0, #0
    d92c:	e1a03000 	mov	r3, r0
    d930:	e585004c 	str	r0, [r5, #76]	; 0x4c
    d934:	1affffef 	bne	d8f8 <_Balloc+0x18>
    d938:	e3a00000 	mov	r0, #0
    d93c:	e8bd8070 	pop	{r4, r5, r6, pc}
    d940:	e3a01001 	mov	r1, #1
    d944:	e1a06411 	lsl	r6, r1, r4
    d948:	e2862005 	add	r2, r6, #5
    d94c:	e1a02102 	lsl	r2, r2, #2
    d950:	e1a00005 	mov	r0, r5
    d954:	eb0009ff 	bl	10158 <_calloc_r>
    d958:	e3500000 	cmp	r0, #0
    d95c:	0afffff5 	beq	d938 <_Balloc+0x58>
    d960:	e9800050 	stmib	r0, {r4, r6}
    d964:	eaffffe8 	b	d90c <_Balloc+0x2c>

0000d968 <_Bfree>:
_Bfree():
    d968:	e3510000 	cmp	r1, #0
    d96c:	1590304c 	ldrne	r3, [r0, #76]	; 0x4c
    d970:	15912004 	ldrne	r2, [r1, #4]
    d974:	17930102 	ldrne	r0, [r3, r2, lsl #2]
    d978:	15810000 	strne	r0, [r1]
    d97c:	17831102 	strne	r1, [r3, r2, lsl #2]
    d980:	e12fff1e 	bx	lr

0000d984 <__multadd>:
__multadd():
    d984:	e92d41f0 	push	{r4, r5, r6, r7, r8, lr}
    d988:	e59f70e4 	ldr	r7, [pc, #228]	; da74 <__multadd+0xf0>
    d98c:	e5914010 	ldr	r4, [r1, #16]
    d990:	e1a05001 	mov	r5, r1
    d994:	e1a06000 	mov	r6, r0
    d998:	e1a08003 	mov	r8, r3
    d99c:	e2810014 	add	r0, r1, #20
    d9a0:	e3a01000 	mov	r1, #0
    d9a4:	e590e000 	ldr	lr, [r0]
    d9a8:	e2811001 	add	r1, r1, #1
    d9ac:	e00ec007 	and	ip, lr, r7
    d9b0:	e0238c92 	mla	r3, r2, ip, r8
    d9b4:	e1a0c82e 	lsr	ip, lr, #16
    d9b8:	e1a0e823 	lsr	lr, r3, #16
    d9bc:	e02eec92 	mla	lr, r2, ip, lr
    d9c0:	e0033007 	and	r3, r3, r7
    d9c4:	e083c80e 	add	ip, r3, lr, lsl #16
    d9c8:	e1540001 	cmp	r4, r1
    d9cc:	e1a0882e 	lsr	r8, lr, #16
    d9d0:	e480c004 	str	ip, [r0], #4
    d9d4:	cafffff2 	bgt	d9a4 <__multadd+0x20>
    d9d8:	e3580000 	cmp	r8, #0
    d9dc:	0a000006 	beq	d9fc <__multadd+0x78>
    d9e0:	e5952008 	ldr	r2, [r5, #8]
    d9e4:	e1520004 	cmp	r2, r4
    d9e8:	da000005 	ble	da04 <__multadd+0x80>
    d9ec:	e0852104 	add	r2, r5, r4, lsl #2
    d9f0:	e2844001 	add	r4, r4, #1
    d9f4:	e5828014 	str	r8, [r2, #20]
    d9f8:	e5854010 	str	r4, [r5, #16]
    d9fc:	e1a00005 	mov	r0, r5
    da00:	e8bd81f0 	pop	{r4, r5, r6, r7, r8, pc}
    da04:	e5951004 	ldr	r1, [r5, #4]
    da08:	e1a00006 	mov	r0, r6
    da0c:	e2811001 	add	r1, r1, #1
    da10:	ebffffb2 	bl	d8e0 <_Balloc>
    da14:	e2507000 	subs	r7, r0, #0
    da18:	0a000010 	beq	da60 <__multadd+0xdc>
    da1c:	e5952010 	ldr	r2, [r5, #16]
    da20:	e285100c 	add	r1, r5, #12
    da24:	e2822002 	add	r2, r2, #2
    da28:	e1a02102 	lsl	r2, r2, #2
    da2c:	e287000c 	add	r0, r7, #12
    da30:	ebffff17 	bl	d694 <memcpy>
    da34:	e596204c 	ldr	r2, [r6, #76]	; 0x4c
    da38:	e5951004 	ldr	r1, [r5, #4]
    da3c:	e7920101 	ldr	r0, [r2, r1, lsl #2]
    da40:	e5850000 	str	r0, [r5]
    da44:	e7825101 	str	r5, [r2, r1, lsl #2]
    da48:	e1a05007 	mov	r5, r7
    da4c:	e0852104 	add	r2, r5, r4, lsl #2
    da50:	e2844001 	add	r4, r4, #1
    da54:	e5828014 	str	r8, [r2, #20]
    da58:	e5854010 	str	r4, [r5, #16]
    da5c:	eaffffe6 	b	d9fc <__multadd+0x78>
    da60:	e59f3010 	ldr	r3, [pc, #16]	; da78 <__multadd+0xf4>
    da64:	e59f0010 	ldr	r0, [pc, #16]	; da7c <__multadd+0xf8>
    da68:	e1a02007 	mov	r2, r7
    da6c:	e3a010b5 	mov	r1, #181	; 0xb5
    da70:	eb00099d 	bl	100ec <__assert_func>
    da74:	0000ffff 	strdeq	pc, [r0], -pc	; <UNPREDICTABLE>
    da78:	00027f28 	andeq	r7, r2, r8, lsr #30
    da7c:	00027fc0 	andeq	r7, r2, r0, asr #31

0000da80 <__s2b>:
__s2b():
    da80:	e92d47f0 	push	{r4, r5, r6, r7, r8, r9, sl, lr}
    da84:	e3530009 	cmp	r3, #9
    da88:	e1a07003 	mov	r7, r3
    da8c:	e59f30f0 	ldr	r3, [pc, #240]	; db84 <__s2b+0x104>
    da90:	e1a05002 	mov	r5, r2
    da94:	e2872008 	add	r2, r7, #8
    da98:	e1a06000 	mov	r6, r0
    da9c:	e1a04001 	mov	r4, r1
    daa0:	e0c10293 	smull	r0, r1, r3, r2
    daa4:	e1a03fc2 	asr	r3, r2, #31
    daa8:	e06330c1 	rsb	r3, r3, r1, asr #1
    daac:	da00002d 	ble	db68 <__s2b+0xe8>
    dab0:	e3a0c001 	mov	ip, #1
    dab4:	e3a01000 	mov	r1, #0
    dab8:	e1a0c08c 	lsl	ip, ip, #1
    dabc:	e153000c 	cmp	r3, ip
    dac0:	e2811001 	add	r1, r1, #1
    dac4:	cafffffb 	bgt	dab8 <__s2b+0x38>
    dac8:	e1a00006 	mov	r0, r6
    dacc:	ebffff83 	bl	d8e0 <_Balloc>
    dad0:	e2501000 	subs	r1, r0, #0
    dad4:	0a000025 	beq	db70 <__s2b+0xf0>
    dad8:	e59d3020 	ldr	r3, [sp, #32]
    dadc:	e3550009 	cmp	r5, #9
    dae0:	e5813014 	str	r3, [r1, #20]
    dae4:	e3a03001 	mov	r3, #1
    dae8:	d284400a 	addle	r4, r4, #10
    daec:	d3a05009 	movle	r5, #9
    daf0:	e5813010 	str	r3, [r1, #16]
    daf4:	ca00000d 	bgt	db30 <__s2b+0xb0>
    daf8:	e1570005 	cmp	r7, r5
    dafc:	da000009 	ble	db28 <__s2b+0xa8>
    db00:	e0475005 	sub	r5, r7, r5
    db04:	e0845005 	add	r5, r4, r5
    db08:	e4d43001 	ldrb	r3, [r4], #1
    db0c:	e3a0200a 	mov	r2, #10
    db10:	e2433030 	sub	r3, r3, #48	; 0x30
    db14:	e1a00006 	mov	r0, r6
    db18:	ebffff99 	bl	d984 <__multadd>
    db1c:	e1550004 	cmp	r5, r4
    db20:	e1a01000 	mov	r1, r0
    db24:	1afffff7 	bne	db08 <__s2b+0x88>
    db28:	e1a00001 	mov	r0, r1
    db2c:	e8bd87f0 	pop	{r4, r5, r6, r7, r8, r9, sl, pc}
    db30:	e2849009 	add	r9, r4, #9
    db34:	e1a08009 	mov	r8, r9
    db38:	e0844005 	add	r4, r4, r5
    db3c:	e4d83001 	ldrb	r3, [r8], #1
    db40:	e3a0200a 	mov	r2, #10
    db44:	e2433030 	sub	r3, r3, #48	; 0x30
    db48:	e1a00006 	mov	r0, r6
    db4c:	ebffff8c 	bl	d984 <__multadd>
    db50:	e1580004 	cmp	r8, r4
    db54:	e1a01000 	mov	r1, r0
    db58:	1afffff7 	bne	db3c <__s2b+0xbc>
    db5c:	e2454008 	sub	r4, r5, #8
    db60:	e0894004 	add	r4, r9, r4
    db64:	eaffffe3 	b	daf8 <__s2b+0x78>
    db68:	e3a01000 	mov	r1, #0
    db6c:	eaffffd5 	b	dac8 <__s2b+0x48>
    db70:	e1a02001 	mov	r2, r1
    db74:	e59f300c 	ldr	r3, [pc, #12]	; db88 <__s2b+0x108>
    db78:	e59f000c 	ldr	r0, [pc, #12]	; db8c <__s2b+0x10c>
    db7c:	e3a010ce 	mov	r1, #206	; 0xce
    db80:	eb000959 	bl	100ec <__assert_func>
    db84:	38e38e39 	stmiacc	r3!, {r0, r3, r4, r5, r9, sl, fp, pc}^
    db88:	00027f28 	andeq	r7, r2, r8, lsr #30
    db8c:	00027fc0 	andeq	r7, r2, r0, asr #31

0000db90 <__hi0bits>:
__hi0bits():
    db90:	e1a03820 	lsr	r3, r0, #16
    db94:	e1a03803 	lsl	r3, r3, #16
    db98:	e3530000 	cmp	r3, #0
    db9c:	01a00800 	lsleq	r0, r0, #16
    dba0:	03a03010 	moveq	r3, #16
    dba4:	13a03000 	movne	r3, #0
    dba8:	e31004ff 	tst	r0, #-16777216	; 0xff000000
    dbac:	01a00400 	lsleq	r0, r0, #8
    dbb0:	02833008 	addeq	r3, r3, #8
    dbb4:	e310020f 	tst	r0, #-268435456	; 0xf0000000
    dbb8:	01a00200 	lsleq	r0, r0, #4
    dbbc:	02833004 	addeq	r3, r3, #4
    dbc0:	e3100103 	tst	r0, #-1073741824	; 0xc0000000
    dbc4:	01a00100 	lsleq	r0, r0, #2
    dbc8:	02833002 	addeq	r3, r3, #2
    dbcc:	e3500000 	cmp	r0, #0
    dbd0:	ba000002 	blt	dbe0 <__hi0bits+0x50>
    dbd4:	e3100101 	tst	r0, #1073741824	; 0x40000000
    dbd8:	12833001 	addne	r3, r3, #1
    dbdc:	03a03020 	moveq	r3, #32
    dbe0:	e1a00003 	mov	r0, r3
    dbe4:	e12fff1e 	bx	lr

0000dbe8 <__lo0bits>:
__lo0bits():
    dbe8:	e5903000 	ldr	r3, [r0]
    dbec:	e1a01000 	mov	r1, r0
    dbf0:	e2132007 	ands	r2, r3, #7
    dbf4:	0a000008 	beq	dc1c <__lo0bits+0x34>
    dbf8:	e3130001 	tst	r3, #1
    dbfc:	1a00001d 	bne	dc78 <__lo0bits+0x90>
    dc00:	e3130002 	tst	r3, #2
    dc04:	11a030a3 	lsrne	r3, r3, #1
    dc08:	01a03123 	lsreq	r3, r3, #2
    dc0c:	13a00001 	movne	r0, #1
    dc10:	03a00002 	moveq	r0, #2
    dc14:	e5813000 	str	r3, [r1]
    dc18:	e12fff1e 	bx	lr
    dc1c:	e1a00803 	lsl	r0, r3, #16
    dc20:	e1a00820 	lsr	r0, r0, #16
    dc24:	e3500000 	cmp	r0, #0
    dc28:	01a03823 	lsreq	r3, r3, #16
    dc2c:	11a00002 	movne	r0, r2
    dc30:	e20320ff 	and	r2, r3, #255	; 0xff
    dc34:	03a00010 	moveq	r0, #16
    dc38:	e3520000 	cmp	r2, #0
    dc3c:	01a03423 	lsreq	r3, r3, #8
    dc40:	02800008 	addeq	r0, r0, #8
    dc44:	e313000f 	tst	r3, #15
    dc48:	01a03223 	lsreq	r3, r3, #4
    dc4c:	02800004 	addeq	r0, r0, #4
    dc50:	e3130003 	tst	r3, #3
    dc54:	01a03123 	lsreq	r3, r3, #2
    dc58:	02800002 	addeq	r0, r0, #2
    dc5c:	e3130001 	tst	r3, #1
    dc60:	1a000002 	bne	dc70 <__lo0bits+0x88>
    dc64:	e1b030a3 	lsrs	r3, r3, #1
    dc68:	e2800001 	add	r0, r0, #1
    dc6c:	0a000003 	beq	dc80 <__lo0bits+0x98>
    dc70:	e5813000 	str	r3, [r1]
    dc74:	e12fff1e 	bx	lr
    dc78:	e3a00000 	mov	r0, #0
    dc7c:	e12fff1e 	bx	lr
    dc80:	e3a00020 	mov	r0, #32
    dc84:	e12fff1e 	bx	lr

0000dc88 <__i2b>:
__i2b():
    dc88:	e590304c 	ldr	r3, [r0, #76]	; 0x4c
    dc8c:	e92d4070 	push	{r4, r5, r6, lr}
    dc90:	e3530000 	cmp	r3, #0
    dc94:	e1a04000 	mov	r4, r0
    dc98:	e1a05001 	mov	r5, r1
    dc9c:	0a00000a 	beq	dccc <__i2b+0x44>
    dca0:	e5930004 	ldr	r0, [r3, #4]
    dca4:	e3500000 	cmp	r0, #0
    dca8:	0a000013 	beq	dcfc <__i2b+0x74>
    dcac:	e5902000 	ldr	r2, [r0]
    dcb0:	e5832004 	str	r2, [r3, #4]
    dcb4:	e3a02000 	mov	r2, #0
    dcb8:	e3a03001 	mov	r3, #1
    dcbc:	e580200c 	str	r2, [r0, #12]
    dcc0:	e5805014 	str	r5, [r0, #20]
    dcc4:	e5803010 	str	r3, [r0, #16]
    dcc8:	e8bd8070 	pop	{r4, r5, r6, pc}
    dccc:	e3a02021 	mov	r2, #33	; 0x21
    dcd0:	e3a01004 	mov	r1, #4
    dcd4:	eb00091f 	bl	10158 <_calloc_r>
    dcd8:	e3500000 	cmp	r0, #0
    dcdc:	e1a03000 	mov	r3, r0
    dce0:	e584004c 	str	r0, [r4, #76]	; 0x4c
    dce4:	1affffed 	bne	dca0 <__i2b+0x18>
    dce8:	e59f3034 	ldr	r3, [pc, #52]	; dd24 <__i2b+0x9c>
    dcec:	e59f0034 	ldr	r0, [pc, #52]	; dd28 <__i2b+0xa0>
    dcf0:	e3a02000 	mov	r2, #0
    dcf4:	e3a01d05 	mov	r1, #320	; 0x140
    dcf8:	eb0008fb 	bl	100ec <__assert_func>
    dcfc:	e3a0201c 	mov	r2, #28
    dd00:	e3a01001 	mov	r1, #1
    dd04:	e1a00004 	mov	r0, r4
    dd08:	eb000912 	bl	10158 <_calloc_r>
    dd0c:	e3500000 	cmp	r0, #0
    dd10:	0afffff4 	beq	dce8 <__i2b+0x60>
    dd14:	e3a02001 	mov	r2, #1
    dd18:	e3a03002 	mov	r3, #2
    dd1c:	e980000c 	stmib	r0, {r2, r3}
    dd20:	eaffffe3 	b	dcb4 <__i2b+0x2c>
    dd24:	00027f28 	andeq	r7, r2, r8, lsr #30
    dd28:	00027fc0 	andeq	r7, r2, r0, asr #31

0000dd2c <__multiply>:
__multiply():
    dd2c:	e92d4ff0 	push	{r4, r5, r6, r7, r8, r9, sl, fp, lr}
    dd30:	e5923010 	ldr	r3, [r2, #16]
    dd34:	e5915010 	ldr	r5, [r1, #16]
    dd38:	e24dd014 	sub	sp, sp, #20
    dd3c:	e1550003 	cmp	r5, r3
    dd40:	b1a04002 	movlt	r4, r2
    dd44:	a1a04001 	movge	r4, r1
    dd48:	b1a06003 	movlt	r6, r3
    dd4c:	a1a06005 	movge	r6, r5
    dd50:	a1a05003 	movge	r5, r3
    dd54:	e5943008 	ldr	r3, [r4, #8]
    dd58:	b1a09001 	movlt	r9, r1
    dd5c:	e0867005 	add	r7, r6, r5
    dd60:	e5941004 	ldr	r1, [r4, #4]
    dd64:	a1a09002 	movge	r9, r2
    dd68:	e1530007 	cmp	r3, r7
    dd6c:	b2811001 	addlt	r1, r1, #1
    dd70:	ebfffeda 	bl	d8e0 <_Balloc>
    dd74:	e2503000 	subs	r3, r0, #0
    dd78:	e58d3004 	str	r3, [sp, #4]
    dd7c:	0a000066 	beq	df1c <__multiply+0x1f0>
    dd80:	e59d3004 	ldr	r3, [sp, #4]
    dd84:	e283a014 	add	sl, r3, #20
    dd88:	e08ab107 	add	fp, sl, r7, lsl #2
    dd8c:	e15a000b 	cmp	sl, fp
    dd90:	31a0300a 	movcc	r3, sl
    dd94:	33a02000 	movcc	r2, #0
    dd98:	2a000002 	bcs	dda8 <__multiply+0x7c>
    dd9c:	e4832004 	str	r2, [r3], #4
    dda0:	e15b0003 	cmp	fp, r3
    dda4:	8afffffc 	bhi	dd9c <__multiply+0x70>
    dda8:	e2899014 	add	r9, r9, #20
    ddac:	e0893105 	add	r3, r9, r5, lsl #2
    ddb0:	e1a02003 	mov	r2, r3
    ddb4:	e1590003 	cmp	r9, r3
    ddb8:	e2843014 	add	r3, r4, #20
    ddbc:	e0836106 	add	r6, r3, r6, lsl #2
    ddc0:	e58d3000 	str	r3, [sp]
    ddc4:	2a000047 	bcs	dee8 <__multiply+0x1bc>
    ddc8:	e0463004 	sub	r3, r6, r4
    ddcc:	e2433015 	sub	r3, r3, #21
    ddd0:	e2844015 	add	r4, r4, #21
    ddd4:	e3c33003 	bic	r3, r3, #3
    ddd8:	e1560004 	cmp	r6, r4
    dddc:	e2833004 	add	r3, r3, #4
    dde0:	33a03004 	movcc	r3, #4
    dde4:	e58db008 	str	fp, [sp, #8]
    dde8:	e58d700c 	str	r7, [sp, #12]
    ddec:	e59f013c 	ldr	r0, [pc, #316]	; df30 <__multiply+0x204>
    ddf0:	e1a0b002 	mov	fp, r2
    ddf4:	e1a07003 	mov	r7, r3
    ddf8:	ea000004 	b	de10 <__multiply+0xe4>
    ddfc:	e1b0c82c 	lsrs	ip, ip, #16
    de00:	1a00001c 	bne	de78 <__multiply+0x14c>
    de04:	e15b0009 	cmp	fp, r9
    de08:	e28aa004 	add	sl, sl, #4
    de0c:	9a000033 	bls	dee0 <__multiply+0x1b4>
    de10:	e499c004 	ldr	ip, [r9], #4
    de14:	e01c5000 	ands	r5, ip, r0
    de18:	0afffff7 	beq	ddfc <__multiply+0xd0>
    de1c:	e59d4000 	ldr	r4, [sp]
    de20:	e1a0e00a 	mov	lr, sl
    de24:	e3a03000 	mov	r3, #0
    de28:	e494c004 	ldr	ip, [r4], #4
    de2c:	e59e1000 	ldr	r1, [lr]
    de30:	e00c2000 	and	r2, ip, r0
    de34:	e0018000 	and	r8, r1, r0
    de38:	e0288295 	mla	r8, r5, r2, r8
    de3c:	e1a0c82c 	lsr	ip, ip, #16
    de40:	e1a02821 	lsr	r2, r1, #16
    de44:	e0222c95 	mla	r2, r5, ip, r2
    de48:	e0883003 	add	r3, r8, r3
    de4c:	e0822823 	add	r2, r2, r3, lsr #16
    de50:	e0033000 	and	r3, r3, r0
    de54:	e1833802 	orr	r3, r3, r2, lsl #16
    de58:	e1560004 	cmp	r6, r4
    de5c:	e48e3004 	str	r3, [lr], #4
    de60:	e1a03822 	lsr	r3, r2, #16
    de64:	8affffef 	bhi	de28 <__multiply+0xfc>
    de68:	e78a3007 	str	r3, [sl, r7]
    de6c:	e519c004 	ldr	ip, [r9, #-4]
    de70:	e1b0c82c 	lsrs	ip, ip, #16
    de74:	0affffe2 	beq	de04 <__multiply+0xd8>
    de78:	e59a3000 	ldr	r3, [sl]
    de7c:	e59de000 	ldr	lr, [sp]
    de80:	e1a01003 	mov	r1, r3
    de84:	e1a0400a 	mov	r4, sl
    de88:	e3a02000 	mov	r2, #0
    de8c:	e59e5000 	ldr	r5, [lr]
    de90:	e1a01821 	lsr	r1, r1, #16
    de94:	e0055000 	and	r5, r5, r0
    de98:	e021159c 	mla	r1, ip, r5, r1
    de9c:	e0033000 	and	r3, r3, r0
    dea0:	e0812002 	add	r2, r1, r2
    dea4:	e1833802 	orr	r3, r3, r2, lsl #16
    dea8:	e4843004 	str	r3, [r4], #4
    deac:	e49e3004 	ldr	r3, [lr], #4
    deb0:	e5941000 	ldr	r1, [r4]
    deb4:	e1a05823 	lsr	r5, r3, #16
    deb8:	e0013000 	and	r3, r1, r0
    debc:	e023359c 	mla	r3, ip, r5, r3
    dec0:	e156000e 	cmp	r6, lr
    dec4:	e0833822 	add	r3, r3, r2, lsr #16
    dec8:	e1a02823 	lsr	r2, r3, #16
    decc:	8affffee 	bhi	de8c <__multiply+0x160>
    ded0:	e15b0009 	cmp	fp, r9
    ded4:	e78a3007 	str	r3, [sl, r7]
    ded8:	e28aa004 	add	sl, sl, #4
    dedc:	8affffcb 	bhi	de10 <__multiply+0xe4>
    dee0:	e59db008 	ldr	fp, [sp, #8]
    dee4:	e59d700c 	ldr	r7, [sp, #12]
    dee8:	e3570000 	cmp	r7, #0
    deec:	ca000002 	bgt	defc <__multiply+0x1d0>
    def0:	ea000004 	b	df08 <__multiply+0x1dc>
    def4:	e2577001 	subs	r7, r7, #1
    def8:	0a000002 	beq	df08 <__multiply+0x1dc>
    defc:	e53b3004 	ldr	r3, [fp, #-4]!
    df00:	e3530000 	cmp	r3, #0
    df04:	0afffffa 	beq	def4 <__multiply+0x1c8>
    df08:	e59d3004 	ldr	r3, [sp, #4]
    df0c:	e1a00003 	mov	r0, r3
    df10:	e5837010 	str	r7, [r3, #16]
    df14:	e28dd014 	add	sp, sp, #20
    df18:	e8bd8ff0 	pop	{r4, r5, r6, r7, r8, r9, sl, fp, pc}
    df1c:	e59f3010 	ldr	r3, [pc, #16]	; df34 <__multiply+0x208>
    df20:	e59f1010 	ldr	r1, [pc, #16]	; df38 <__multiply+0x20c>
    df24:	e59f0010 	ldr	r0, [pc, #16]	; df3c <__multiply+0x210>
    df28:	e59d2004 	ldr	r2, [sp, #4]
    df2c:	eb00086e 	bl	100ec <__assert_func>
    df30:	0000ffff 	strdeq	pc, [r0], -pc	; <UNPREDICTABLE>
    df34:	00027f28 	andeq	r7, r2, r8, lsr #30
    df38:	0000015d 	andeq	r0, r0, sp, asr r1
    df3c:	00027fc0 	andeq	r7, r2, r0, asr #31

0000df40 <__pow5mult>:
__pow5mult():
    df40:	e2123003 	ands	r3, r2, #3
    df44:	e92d41f0 	push	{r4, r5, r6, r7, r8, lr}
    df48:	e1a04002 	mov	r4, r2
    df4c:	e1a06000 	mov	r6, r0
    df50:	01a05001 	moveq	r5, r1
    df54:	1a000024 	bne	dfec <__pow5mult+0xac>
    df58:	e1b04144 	asrs	r4, r4, #2
    df5c:	0a000019 	beq	dfc8 <__pow5mult+0x88>
    df60:	e5968048 	ldr	r8, [r6, #72]	; 0x48
    df64:	e3580000 	cmp	r8, #0
    df68:	0a000026 	beq	e008 <__pow5mult+0xc8>
    df6c:	e3a07000 	mov	r7, #0
    df70:	ea000005 	b	df8c <__pow5mult+0x4c>
    df74:	e1b040c4 	asrs	r4, r4, #1
    df78:	0a000012 	beq	dfc8 <__pow5mult+0x88>
    df7c:	e5980000 	ldr	r0, [r8]
    df80:	e3500000 	cmp	r0, #0
    df84:	0a000011 	beq	dfd0 <__pow5mult+0x90>
    df88:	e1a08000 	mov	r8, r0
    df8c:	e3140001 	tst	r4, #1
    df90:	0afffff7 	beq	df74 <__pow5mult+0x34>
    df94:	e1a02008 	mov	r2, r8
    df98:	e1a01005 	mov	r1, r5
    df9c:	e1a00006 	mov	r0, r6
    dfa0:	ebffff61 	bl	dd2c <__multiply>
    dfa4:	e3550000 	cmp	r5, #0
    dfa8:	15952004 	ldrne	r2, [r5, #4]
    dfac:	1596304c 	ldrne	r3, [r6, #76]	; 0x4c
    dfb0:	17931102 	ldrne	r1, [r3, r2, lsl #2]
    dfb4:	15851000 	strne	r1, [r5]
    dfb8:	17835102 	strne	r5, [r3, r2, lsl #2]
    dfbc:	e1b040c4 	asrs	r4, r4, #1
    dfc0:	e1a05000 	mov	r5, r0
    dfc4:	1affffec 	bne	df7c <__pow5mult+0x3c>
    dfc8:	e1a00005 	mov	r0, r5
    dfcc:	e8bd81f0 	pop	{r4, r5, r6, r7, r8, pc}
    dfd0:	e1a02008 	mov	r2, r8
    dfd4:	e1a01008 	mov	r1, r8
    dfd8:	e1a00006 	mov	r0, r6
    dfdc:	ebffff52 	bl	dd2c <__multiply>
    dfe0:	e5880000 	str	r0, [r8]
    dfe4:	e5807000 	str	r7, [r0]
    dfe8:	eaffffe6 	b	df88 <__pow5mult+0x48>
    dfec:	e59f205c 	ldr	r2, [pc, #92]	; e050 <__pow5mult+0x110>
    dff0:	e2433001 	sub	r3, r3, #1
    dff4:	e7922103 	ldr	r2, [r2, r3, lsl #2]
    dff8:	e3a03000 	mov	r3, #0
    dffc:	ebfffe60 	bl	d984 <__multadd>
    e000:	e1a05000 	mov	r5, r0
    e004:	eaffffd3 	b	df58 <__pow5mult+0x18>
    e008:	e3a01001 	mov	r1, #1
    e00c:	e1a00006 	mov	r0, r6
    e010:	ebfffe32 	bl	d8e0 <_Balloc>
    e014:	e2508000 	subs	r8, r0, #0
    e018:	0a000007 	beq	e03c <__pow5mult+0xfc>
    e01c:	e59f3030 	ldr	r3, [pc, #48]	; e054 <__pow5mult+0x114>
    e020:	e5883014 	str	r3, [r8, #20]
    e024:	e3a03001 	mov	r3, #1
    e028:	e5883010 	str	r3, [r8, #16]
    e02c:	e3a03000 	mov	r3, #0
    e030:	e5868048 	str	r8, [r6, #72]	; 0x48
    e034:	e5883000 	str	r3, [r8]
    e038:	eaffffcb 	b	df6c <__pow5mult+0x2c>
    e03c:	e59f3014 	ldr	r3, [pc, #20]	; e058 <__pow5mult+0x118>
    e040:	e59f0014 	ldr	r0, [pc, #20]	; e05c <__pow5mult+0x11c>
    e044:	e1a02008 	mov	r2, r8
    e048:	e3a01d05 	mov	r1, #320	; 0x140
    e04c:	eb000826 	bl	100ec <__assert_func>
    e050:	00028158 	andeq	r8, r2, r8, asr r1
    e054:	00000271 	andeq	r0, r0, r1, ror r2
    e058:	00027f28 	andeq	r7, r2, r8, lsr #30
    e05c:	00027fc0 	andeq	r7, r2, r0, asr #31

0000e060 <__lshift>:
__lshift():
    e060:	e92d47f0 	push	{r4, r5, r6, r7, r8, r9, sl, lr}
    e064:	e1a04001 	mov	r4, r1
    e068:	e5946010 	ldr	r6, [r4, #16]
    e06c:	e5943008 	ldr	r3, [r4, #8]
    e070:	e08662c2 	add	r6, r6, r2, asr #5
    e074:	e2865001 	add	r5, r6, #1
    e078:	e1550003 	cmp	r5, r3
    e07c:	e5911004 	ldr	r1, [r1, #4]
    e080:	e1a08002 	mov	r8, r2
    e084:	e1a07000 	mov	r7, r0
    e088:	e1a092c2 	asr	r9, r2, #5
    e08c:	da000003 	ble	e0a0 <__lshift+0x40>
    e090:	e1a03083 	lsl	r3, r3, #1
    e094:	e1550003 	cmp	r5, r3
    e098:	e2811001 	add	r1, r1, #1
    e09c:	cafffffb 	bgt	e090 <__lshift+0x30>
    e0a0:	e1a00007 	mov	r0, r7
    e0a4:	ebfffe0d 	bl	d8e0 <_Balloc>
    e0a8:	e250e000 	subs	lr, r0, #0
    e0ac:	0a000033 	beq	e180 <__lshift+0x120>
    e0b0:	e3590000 	cmp	r9, #0
    e0b4:	e28e0014 	add	r0, lr, #20
    e0b8:	da000009 	ble	e0e4 <__lshift+0x84>
    e0bc:	e2892005 	add	r2, r9, #5
    e0c0:	e1a0c102 	lsl	ip, r2, #2
    e0c4:	e1a03000 	mov	r3, r0
    e0c8:	e08e2102 	add	r2, lr, r2, lsl #2
    e0cc:	e3a01000 	mov	r1, #0
    e0d0:	e4831004 	str	r1, [r3], #4
    e0d4:	e1530002 	cmp	r3, r2
    e0d8:	1afffffc 	bne	e0d0 <__lshift+0x70>
    e0dc:	e24c3014 	sub	r3, ip, #20
    e0e0:	e0800003 	add	r0, r0, r3
    e0e4:	e5949010 	ldr	r9, [r4, #16]
    e0e8:	e2843014 	add	r3, r4, #20
    e0ec:	e218801f 	ands	r8, r8, #31
    e0f0:	e0839109 	add	r9, r3, r9, lsl #2
    e0f4:	0a00001b 	beq	e168 <__lshift+0x108>
    e0f8:	e268a020 	rsb	sl, r8, #32
    e0fc:	e1a02000 	mov	r2, r0
    e100:	e3a0c000 	mov	ip, #0
    e104:	e5931000 	ldr	r1, [r3]
    e108:	e18cc811 	orr	ip, ip, r1, lsl r8
    e10c:	e482c004 	str	ip, [r2], #4
    e110:	e493c004 	ldr	ip, [r3], #4
    e114:	e1590003 	cmp	r9, r3
