
build7/pitrex7.elf.img:     file format elf32-littlearm


Disassembly of section .init:

00008000 <_start>:
_start():
    8000:	e59ff018 	ldr	pc, [pc, #24]	; 8020 <reset_handler>
    8004:	e59ff018 	ldr	pc, [pc, #24]	; 8024 <undefined_handler>
    8008:	e59ff018 	ldr	pc, [pc, #24]	; 8028 <swi_handler>
    800c:	e59ff018 	ldr	pc, [pc, #24]	; 802c <prefetch_handler>
    8010:	e59ff018 	ldr	pc, [pc, #24]	; 8030 <data_handler>
    8014:	e59ff018 	ldr	pc, [pc, #24]	; 8034 <unused_handler>
    8018:	e59ff018 	ldr	pc, [pc, #24]	; 8038 <irq_handler>
    801c:	e59ff018 	ldr	pc, [pc, #24]	; 803c <fiq_handler>

00008020 <reset_handler>:
reset_handler():
    8020:	00008040 	andeq	r8, r0, r0, asr #32

00008024 <undefined_handler>:
undefined_handler():
    8024:	0000f688 	andeq	pc, r0, r8, lsl #13

00008028 <swi_handler>:
swi_handler():
    8028:	0000f6bc 			; <UNDEFINED> instruction: 0x0000f6bc

0000802c <prefetch_handler>:
prefetch_handler():
    802c:	0000f698 	muleq	r0, r8, r6

00008030 <data_handler>:
data_handler():
    8030:	0000f6a8 	andeq	pc, r0, r8, lsr #13

00008034 <unused_handler>:
unused_handler():
    8034:	0000f6bc 			; <UNDEFINED> instruction: 0x0000f6bc

00008038 <irq_handler>:
irq_handler():
    8038:	0000f6b4 			; <UNDEFINED> instruction: 0x0000f6b4

0000803c <fiq_handler>:
fiq_handler():
    803c:	0000f6b8 			; <UNDEFINED> instruction: 0x0000f6b8

00008040 <reset_callee>:
reset_callee():
    8040:	e10fc000 	mrs	ip, CPSR
    8044:	e20cc01f 	and	ip, ip, #31
    8048:	e59fb2b8 	ldr	fp, [pc, #696]	; 8308 <_setup_stacks0_table+0x94>
    804c:	e58bc000 	str	ip, [fp]
    8050:	e3a03000 	mov	r3, #0
    8054:	e5933000 	ldr	r3, [r3]
    8058:	e59f42ac 	ldr	r4, [pc, #684]	; 830c <_setup_stacks0_table+0x98>
    805c:	e5944000 	ldr	r4, [r4]
    8060:	e0533004 	subs	r3, r3, r4
    8064:	0a000017 	beq	80c8 <multicore_start>
    8068:	e59f52a0 	ldr	r5, [pc, #672]	; 8310 <_setup_stacks0_table+0x9c>
    806c:	e5850000 	str	r0, [r5]
    8070:	e59f529c 	ldr	r5, [pc, #668]	; 8314 <_setup_stacks0_table+0xa0>
    8074:	e5851000 	str	r1, [r5]
    8078:	e59f5298 	ldr	r5, [pc, #664]	; 8318 <_setup_stacks0_table+0xa4>
    807c:	e5852000 	str	r2, [r5]
    8080:	e3a04000 	mov	r4, #0
    8084:	e59f3290 	ldr	r3, [pc, #656]	; 831c <_setup_stacks0_table+0xa8>
    8088:	e5834000 	str	r4, [r3]
    808c:	e59f328c 	ldr	r3, [pc, #652]	; 8320 <_setup_stacks0_table+0xac>
    8090:	e5834000 	str	r4, [r3]
    8094:	e59f3288 	ldr	r3, [pc, #648]	; 8324 <_setup_stacks0_table+0xb0>
    8098:	e5834000 	str	r4, [r3]
    809c:	e59f3284 	ldr	r3, [pc, #644]	; 8328 <_setup_stacks0_table+0xb4>
    80a0:	e5834000 	str	r4, [r3]
    80a4:	e59f3280 	ldr	r3, [pc, #640]	; 832c <_setup_stacks0_table+0xb8>
    80a8:	e5834000 	str	r4, [r3]
    80ac:	e59f327c 	ldr	r3, [pc, #636]	; 8330 <_setup_stacks0_table+0xbc>
    80b0:	e5834000 	str	r4, [r3]
    80b4:	e59f3278 	ldr	r3, [pc, #632]	; 8334 <_setup_stacks0_table+0xc0>
    80b8:	e5834000 	str	r4, [r3]
    80bc:	e3a04003 	mov	r4, #3
    80c0:	e59f3270 	ldr	r3, [pc, #624]	; 8338 <_setup_stacks0_table+0xc4>
    80c4:	e5834000 	str	r4, [r3]

000080c8 <multicore_start>:
already_started_once():
    80c8:	e10fc000 	mrs	ip, CPSR
    80cc:	e20cc01f 	and	ip, ip, #31
    80d0:	e35c001a 	cmp	ip, #26
    80d4:	1a000006 	bne	80f4 <multicore_park>
    80d8:	e10fc000 	mrs	ip, CPSR
    80dc:	e3ccc01f 	bic	ip, ip, #31
    80e0:	e38cc0d3 	orr	ip, ip, #211	; 0xd3
    80e4:	e16ff00c 	msr	SPSR_fsxc, ip
    80e8:	e28fe004 	add	lr, pc, #4
    80ec:	e12ef30e 	msr	ELR_hyp, lr
    80f0:	e160006e 	eret

000080f4 <multicore_park>:
multicore_park():
    80f4:	ee100fb0 	mrc	15, 0, r0, cr0, cr0, {5}
    80f8:	e2000003 	and	r0, r0, #3
    80fc:	e3500000 	cmp	r0, #0
    8100:	0a000051 	beq	824c <isCore0>
    8104:	e3500001 	cmp	r0, #1
    8108:	0a000005 	beq	8124 <isCore1>
    810c:	e3500002 	cmp	r0, #2
    8110:	0a000029 	beq	81bc <isCore2>
    8114:	e3500003 	cmp	r0, #3
    8118:	0a00002d 	beq	81d4 <isCore3>

0000811c <unkownCore>:
unkownCore():
    811c:	e320f002 	wfe
    8120:	eafffffd 	b	811c <unkownCore>

00008124 <isCore1>:
isCore1():
    8124:	e59fb200 	ldr	fp, [pc, #512]	; 832c <_setup_stacks0_table+0xb8>
    8128:	e3a0c001 	mov	ip, #1
    812c:	e58bc000 	str	ip, [fp]
    8130:	e321f0d7 	msr	CPSR_c, #215	; 0xd7
    8134:	e59f0200 	ldr	r0, [pc, #512]	; 833c <_setup_stacks0_table+0xc8>
    8138:	e1a0d000 	mov	sp, r0
    813c:	e321f0db 	msr	CPSR_c, #219	; 0xdb
    8140:	e59f01f8 	ldr	r0, [pc, #504]	; 8340 <_setup_stacks0_table+0xcc>
    8144:	e1a0d000 	mov	sp, r0
    8148:	e321f0d2 	msr	CPSR_c, #210	; 0xd2
    814c:	e59f01f0 	ldr	r0, [pc, #496]	; 8344 <_setup_stacks0_table+0xd0>
    8150:	e1a0d000 	mov	sp, r0
    8154:	e321f0d1 	msr	CPSR_c, #209	; 0xd1
    8158:	e59f01e8 	ldr	r0, [pc, #488]	; 8348 <_setup_stacks0_table+0xd4>
    815c:	e1a0d000 	mov	sp, r0
    8160:	e321f0d3 	msr	CPSR_c, #211	; 0xd3
    8164:	e3a007fd 	mov	r0, #66322432	; 0x3f40000
    8168:	e1a0d000 	mov	sp, r0
    816c:	e3a0000f 	mov	r0, #15
    8170:	ee090f1e 	mcr	15, 0, r0, cr9, cr14, {0}
    8174:	e3a00007 	mov	r0, #7
    8178:	ee090f1c 	mcr	15, 0, r0, cr9, cr12, {0}
    817c:	e3a0010e 	mov	r0, #-2147483645	; 0x80000003
    8180:	ee090f3c 	mcr	15, 0, r0, cr9, cr12, {1}
    8184:	e3a00011 	mov	r0, #17
    8188:	ee0e0f1c 	mcr	15, 0, r0, cr14, cr12, {0}
    818c:	ee0e0f3c 	mcr	15, 0, r0, cr14, cr12, {1}
    8190:	eb002d7e 	bl	13790 <recognizeCore>

00008194 <copy_core1_park>:
copy_core1_park():
    8194:	e59f11b0 	ldr	r1, [pc, #432]	; 834c <_setup_stacks0_table+0xd8>
    8198:	e59f21b0 	ldr	r2, [pc, #432]	; 8350 <_setup_stacks0_table+0xdc>
    819c:	e3a0350f 	mov	r3, #62914560	; 0x3c00000
    81a0:	e5910000 	ldr	r0, [r1]
    81a4:	e5830000 	str	r0, [r3]
    81a8:	e2811004 	add	r1, r1, #4
    81ac:	e2833004 	add	r3, r3, #4
    81b0:	e1510002 	cmp	r1, r2
    81b4:	3afffff9 	bcc	81a0 <copy_core1_park+0xc>
    81b8:	ea00006e 	b	8378 <__*ABS*0x3c00000_veneer>

000081bc <isCore2>:
isCore2():
    81bc:	e59fb160 	ldr	fp, [pc, #352]	; 8324 <_setup_stacks0_table+0xb0>
    81c0:	e59bc000 	ldr	ip, [fp]
    81c4:	e28cc001 	add	ip, ip, #1
    81c8:	e58bc000 	str	ip, [fp]
    81cc:	e320f002 	wfe
    81d0:	eafffff9 	b	81bc <isCore2>

000081d4 <isCore3>:
isCore3():
    81d4:	e59fb14c 	ldr	fp, [pc, #332]	; 8328 <_setup_stacks0_table+0xb4>
    81d8:	e59bc000 	ldr	ip, [fp]
    81dc:	e28cc001 	add	ip, ip, #1
    81e0:	e58bc000 	str	ip, [fp]
    81e4:	e320f002 	wfe
    81e8:	eafffff9 	b	81d4 <isCore3>

000081ec <parkCore_stub_start>:
parkCore_stub_start():
    81ec:	e3a07101 	mov	r7, #1073741824	; 0x40000000
    81f0:	ee104fb0 	mrc	15, 0, r4, cr0, cr0, {5}
    81f4:	e2044003 	and	r4, r4, #3
    81f8:	e1a04104 	lsl	r4, r4, #2
    81fc:	e30f1fb0 	movw	r1, #65456	; 0xffb0
    8200:	e34013ff 	movt	r1, #1023	; 0x3ff
    8204:	e0811004 	add	r1, r1, r4
    8208:	e30f2fc0 	movw	r2, #65472	; 0xffc0
    820c:	e34023ff 	movt	r2, #1023	; 0x3ff
    8210:	e0822004 	add	r2, r2, r4
    8214:	e3a04002 	mov	r4, #2
    8218:	e5824000 	str	r4, [r2]
    821c:	ee106fb0 	mrc	15, 0, r6, cr0, cr0, {5}
    8220:	e1b06f06 	lsls	r6, r6, #30
    8224:	e1b06d26 	lsrs	r6, r6, #26
    8228:	e29660cc 	adds	r6, r6, #204	; 0xcc
    822c:	e320f002 	wfe
    8230:	e7973006 	ldr	r3, [r7, r6]
    8234:	e3530000 	cmp	r3, #0
    8238:	0afffffb 	beq	822c <parkCore_stub_start+0x40>
    823c:	e7873006 	str	r3, [r7, r6]
    8240:	e3a04003 	mov	r4, #3
    8244:	e5824000 	str	r4, [r2]
    8248:	e12fff13 	bx	r3

0000824c <isCore0>:
isCore0():
    824c:	e59fb0c8 	ldr	fp, [pc, #200]	; 831c <_setup_stacks0_table+0xa8>
    8250:	e59bc000 	ldr	ip, [fp]
    8254:	e28cc001 	add	ip, ip, #1
    8258:	e58bc000 	str	ip, [fp]

0000825c <_setup_interrupt_table>:
_setup_interrupt_table():
    825c:	e3a00000 	mov	r0, #0
    8260:	e59f10a4 	ldr	r1, [pc, #164]	; 830c <_setup_stacks0_table+0x98>
    8264:	e8b103fc 	ldm	r1!, {r2, r3, r4, r5, r6, r7, r8, r9}
    8268:	e8a003fc 	stmia	r0!, {r2, r3, r4, r5, r6, r7, r8, r9}
    826c:	e8b103fc 	ldm	r1!, {r2, r3, r4, r5, r6, r7, r8, r9}
    8270:	e8a003fc 	stmia	r0!, {r2, r3, r4, r5, r6, r7, r8, r9}

00008274 <_setup_stacks0_table>:
_setup_stacks0_table():
    8274:	e321f0d7 	msr	CPSR_c, #215	; 0xd7
    8278:	e59f00d4 	ldr	r0, [pc, #212]	; 8354 <_setup_stacks0_table+0xe0>
    827c:	e1a0d000 	mov	sp, r0
    8280:	e321f0db 	msr	CPSR_c, #219	; 0xdb
    8284:	e59f00cc 	ldr	r0, [pc, #204]	; 8358 <_setup_stacks0_table+0xe4>
    8288:	e1a0d000 	mov	sp, r0
    828c:	e321f0d2 	msr	CPSR_c, #210	; 0xd2
    8290:	e59f00c4 	ldr	r0, [pc, #196]	; 835c <_setup_stacks0_table+0xe8>
    8294:	e1a0d000 	mov	sp, r0
    8298:	e321f0d1 	msr	CPSR_c, #209	; 0xd1
    829c:	e59f00bc 	ldr	r0, [pc, #188]	; 8360 <_setup_stacks0_table+0xec>
    82a0:	e1a0d000 	mov	sp, r0
    82a4:	e321f0d3 	msr	CPSR_c, #211	; 0xd3
    82a8:	e59f00b4 	ldr	r0, [pc, #180]	; 8364 <_setup_stacks0_table+0xf0>
    82ac:	e1a0d000 	mov	sp, r0
    82b0:	e3a00000 	mov	r0, #0
    82b4:	e59f10ac 	ldr	r1, [pc, #172]	; 8368 <_setup_stacks0_table+0xf4>
    82b8:	e59f20ac 	ldr	r2, [pc, #172]	; 836c <_setup_stacks0_table+0xf8>
    82bc:	e1510002 	cmp	r1, r2
    82c0:	34810004 	strcc	r0, [r1], #4
    82c4:	3afffffc 	bcc	82bc <_setup_stacks0_table+0x48>
    82c8:	eb002781 	bl	120d4 <vfp_init>
    82cc:	eb002dae 	bl	1398c <firstInit>
    82d0:	eb002cd6 	bl	13630 <mmu_enable>
    82d4:	e3a0000d 	mov	r0, #13
    82d8:	ee090f1e 	mcr	15, 0, r0, cr9, cr14, {0}
    82dc:	e3a00001 	mov	r0, #1
    82e0:	ee090f1c 	mcr	15, 0, r0, cr9, cr12, {0}
    82e4:	e3a0010e 	mov	r0, #-2147483645	; 0x80000003
    82e8:	ee090f3c 	mcr	15, 0, r0, cr9, cr12, {1}
    82ec:	e3a00011 	mov	r0, #17
    82f0:	ee0e0f1c 	mcr	15, 0, r0, cr14, cr12, {0}
    82f4:	ee0e0f3c 	mcr	15, 0, r0, cr14, cr12, {1}
    82f8:	ec521f1f 	mrrc	15, 1, r1, r2, cr15
    82fc:	e59fb06c 	ldr	fp, [pc, #108]	; 8370 <_setup_stacks0_table+0xfc>
    8300:	e58b1000 	str	r1, [fp]
    8304:	ea001d9a 	b	f974 <kernelMain>
    8308:	0000f960 	andeq	pc, r0, r0, ror #18
    830c:	00008000 	andeq	r8, r0, r0
    8310:	03ffffa0 	mvnseq	pc, #160, 30	; 0x280
    8314:	03ffffa4 	mvnseq	pc, #164, 30	; 0x290
    8318:	03ffffa8 	mvnseq	pc, #168, 30	; 0x2a0
    831c:	03ffffb0 	mvnseq	pc, #176, 30	; 0x2c0
    8320:	03ffffb4 	mvnseq	pc, #180, 30	; 0x2d0
    8324:	03ffffb8 	mvnseq	pc, #184, 30	; 0x2e0
    8328:	03ffffbc 	mvnseq	pc, #188, 30	; 0x2f0
    832c:	03ffffc4 	mvnseq	pc, #196, 30	; 0x310
    8330:	03ffffc8 	mvnseq	pc, #200, 30	; 0x320
    8334:	03ffffcc 	mvnseq	pc, #204, 30	; 0x330
    8338:	03ffffc0 	mvnseq	pc, #192, 30	; 0x300
    833c:	03f86000 	mvnseq	r6, #0
    8340:	03f82000 	mvnseq	r2, #0
    8344:	03d02000 	bicseq	r2, r0, #0
    8348:	03f8a000 	mvnseq	sl, #0
    834c:	000081ec 	andeq	r8, r0, ip, ror #3
    8350:	0000824c 	andeq	r8, r0, ip, asr #4
    8354:	03f85000 	mvnseq	r5, #0
    8358:	03f81000 	mvnseq	r1, #0
    835c:	03d01000 	bicseq	r1, r0, #0
    8360:	03f89000 	mvnseq	r9, #0
    8364:	03f20000 	mvnseq	r0, #0
    8368:	00035f4c 	andeq	r5, r3, ip, asr #30
    836c:	0003650c 	andeq	r6, r3, ip, lsl #10
    8370:	0000f968 	andeq	pc, r0, r8, ror #18
    8374:	00000000 	andeq	r0, r0, r0

00008378 <__*ABS*0x3c00000_veneer>:
__*ABS*0x3c00000_veneer():
    8378:	e51ff004 	ldr	pc, [pc, #-4]	; 837c <__*ABS*0x3c00000_veneer+0x4>
    837c:	03c00000 	biceq	r0, r0, #0

Disassembly of section .text:

00008380 <main>:
main():
    8380:	e92d4010 	push	{r4, lr}
    8384:	e3a02001 	mov	r2, #1
    8388:	e3031ac0 	movw	r1, #15040	; 0x3ac0
    838c:	e3401002 	movt	r1, #2
    8390:	e24dde23 	sub	sp, sp, #560	; 0x230
    8394:	e28d0008 	add	r0, sp, #8
    8398:	eb005044 	bl	1c4b0 <f_open>
    839c:	e2504000 	subs	r4, r0, #0
    83a0:	0a000008 	beq	83c8 <main+0x48>
    83a4:	eb002789 	bl	121d0 <getErrorText>
    83a8:	e3031ac0 	movw	r1, #15040	; 0x3ac0
    83ac:	e3401002 	movt	r1, #2
    83b0:	e1a03000 	mov	r3, r0
    83b4:	e1a02004 	mov	r2, r4
    83b8:	e3030a60 	movw	r0, #14944	; 0x3a60
    83bc:	e3400002 	movt	r0, #2
    83c0:	fa00001e 	blx	8440 <printf>
    83c4:	eafffffe 	b	83c4 <main+0x44>
    83c8:	e3a02519 	mov	r2, #104857600	; 0x6400000
    83cc:	e3a01301 	mov	r1, #67108864	; 0x4000000
    83d0:	e28d3004 	add	r3, sp, #4
    83d4:	e28d0008 	add	r0, sp, #8
    83d8:	e58d2004 	str	r2, [sp, #4]
    83dc:	eb003f03 	bl	17ff0 <f_read>
    83e0:	e2501000 	subs	r1, r0, #0
    83e4:	0a000005 	beq	8400 <main+0x80>
    83e8:	e3030a84 	movw	r0, #14980	; 0x3a84
    83ec:	e3400002 	movt	r0, #2
    83f0:	fa000012 	blx	8440 <printf>
    83f4:	e28d0008 	add	r0, sp, #8
    83f8:	eb00415a 	bl	18968 <f_close>
    83fc:	eafffff0 	b	83c4 <main+0x44>
    8400:	e28d0008 	add	r0, sp, #8
    8404:	eb004157 	bl	18968 <f_close>
    8408:	e3030aa8 	movw	r0, #15016	; 0x3aa8
    840c:	e3400002 	movt	r0, #2
    8410:	fa00000a 	blx	8440 <printf>
    8414:	e3a03301 	mov	r3, #67108864	; 0x4000000
    8418:	e12fff33 	blx	r3
    841c:	eafffff6 	b	83fc <main+0x7c>

00008420 <_printf_r>:
_printf_r():
    8420:	b40e      	push	{r1, r2, r3}
    8422:	6881      	ldr	r1, [r0, #8]
    8424:	b500      	push	{lr}
    8426:	b082      	sub	sp, #8
    8428:	ab03      	add	r3, sp, #12
    842a:	f853 2b04 	ldr.w	r2, [r3], #4
    842e:	9301      	str	r3, [sp, #4]
    8430:	f000 f81a 	bl	8468 <_vfprintf_r>
    8434:	b002      	add	sp, #8
    8436:	f85d eb04 	ldr.w	lr, [sp], #4
    843a:	b003      	add	sp, #12
    843c:	4770      	bx	lr
    843e:	bf00      	nop

00008440 <printf>:
printf():
    8440:	b40f      	push	{r0, r1, r2, r3}
    8442:	f245 42e8 	movw	r2, #21736	; 0x54e8
    8446:	f2c0 0203 	movt	r2, #3
    844a:	b500      	push	{lr}
    844c:	b083      	sub	sp, #12
    844e:	6810      	ldr	r0, [r2, #0]
    8450:	ab04      	add	r3, sp, #16
    8452:	6881      	ldr	r1, [r0, #8]
    8454:	f853 2b04 	ldr.w	r2, [r3], #4
    8458:	9301      	str	r3, [sp, #4]
    845a:	f000 f805 	bl	8468 <_vfprintf_r>
    845e:	b003      	add	sp, #12
    8460:	f85d eb04 	ldr.w	lr, [sp], #4
    8464:	b004      	add	sp, #16
    8466:	4770      	bx	lr

00008468 <_vfprintf_r>:
_vfprintf_r():
    8468:	e92d 4ff0 	stmdb	sp!, {r4, r5, r6, r7, r8, r9, sl, fp, lr}
    846c:	461c      	mov	r4, r3
    846e:	468b      	mov	fp, r1
    8470:	ed2d 8b04 	vpush	{d8-d9}
    8474:	b0cf      	sub	sp, #316	; 0x13c
    8476:	4690      	mov	r8, r2
    8478:	4605      	mov	r5, r0
    847a:	9002      	str	r0, [sp, #8]
    847c:	f003 f8f0 	bl	b660 <_localeconv_r>
    8480:	6803      	ldr	r3, [r0, #0]
    8482:	9313      	str	r3, [sp, #76]	; 0x4c
    8484:	4618      	mov	r0, r3
    8486:	9407      	str	r4, [sp, #28]
    8488:	f004 fdba 	bl	d000 <strlen>
    848c:	9012      	str	r0, [sp, #72]	; 0x48
    848e:	b11d      	cbz	r5, 8498 <_vfprintf_r+0x30>
    8490:	6bab      	ldr	r3, [r5, #56]	; 0x38
    8492:	2b00      	cmp	r3, #0
    8494:	f000 81dc 	beq.w	8850 <_vfprintf_r+0x3e8>
    8498:	f8db 3064 	ldr.w	r3, [fp, #100]	; 0x64
    849c:	07db      	lsls	r3, r3, #31
    849e:	f100 811d 	bmi.w	86dc <_vfprintf_r+0x274>
    84a2:	f8bb 200c 	ldrh.w	r2, [fp, #12]
    84a6:	f9bb 300c 	ldrsh.w	r3, [fp, #12]
    84aa:	0597      	lsls	r7, r2, #22
    84ac:	f140 8112 	bpl.w	86d4 <_vfprintf_r+0x26c>
    84b0:	0496      	lsls	r6, r2, #18
    84b2:	d40a      	bmi.n	84ca <_vfprintf_r+0x62>
    84b4:	f443 5300 	orr.w	r3, r3, #8192	; 0x2000
    84b8:	f8ab 300c 	strh.w	r3, [fp, #12]
    84bc:	b29a      	uxth	r2, r3
    84be:	f8db 3064 	ldr.w	r3, [fp, #100]	; 0x64
    84c2:	f423 5300 	bic.w	r3, r3, #8192	; 0x2000
    84c6:	f8cb 3064 	str.w	r3, [fp, #100]	; 0x64
    84ca:	0715      	lsls	r5, r2, #28
    84cc:	f140 80dd 	bpl.w	868a <_vfprintf_r+0x222>
    84d0:	f8db 3010 	ldr.w	r3, [fp, #16]
    84d4:	2b00      	cmp	r3, #0
    84d6:	f000 80d8 	beq.w	868a <_vfprintf_r+0x222>
    84da:	f002 031a 	and.w	r3, r2, #26
    84de:	2b0a      	cmp	r3, #10
    84e0:	f000 80e1 	beq.w	86a6 <_vfprintf_r+0x23e>
    84e4:	ef80 8e30 	vmov.i64	d8, #0x0000000000000000
    84e8:	af25      	add	r7, sp, #148	; 0x94
    84ea:	46d9      	mov	r9, fp
    84ec:	2300      	movs	r3, #0
    84ee:	aa25      	add	r2, sp, #148	; 0x94
    84f0:	e9cd 3323 	strd	r3, r3, [sp, #140]	; 0x8c
    84f4:	9222      	str	r2, [sp, #136]	; 0x88
    84f6:	f643 3218 	movw	r2, #15128	; 0x3b18
    84fa:	f2c0 0202 	movt	r2, #2
    84fe:	930d      	str	r3, [sp, #52]	; 0x34
    8500:	9210      	str	r2, [sp, #64]	; 0x40
    8502:	f643 3228 	movw	r2, #15144	; 0x3b28
    8506:	f2c0 0202 	movt	r2, #2
    850a:	e9cd 3314 	strd	r3, r3, [sp, #80]	; 0x50
    850e:	920e      	str	r2, [sp, #56]	; 0x38
    8510:	9311      	str	r3, [sp, #68]	; 0x44
    8512:	e9cd 3316 	strd	r3, r3, [sp, #88]	; 0x58
    8516:	9304      	str	r3, [sp, #16]
    8518:	f898 3000 	ldrb.w	r3, [r8]
    851c:	4644      	mov	r4, r8
    851e:	2b25      	cmp	r3, #37	; 0x25
    8520:	bf18      	it	ne
    8522:	2b00      	cmpne	r3, #0
    8524:	d01a      	beq.n	855c <_vfprintf_r+0xf4>
    8526:	4625      	mov	r5, r4
    8528:	f814 3f01 	ldrb.w	r3, [r4, #1]!
    852c:	2b00      	cmp	r3, #0
    852e:	bf18      	it	ne
    8530:	2b25      	cmpne	r3, #37	; 0x25
    8532:	d1f8      	bne.n	8526 <_vfprintf_r+0xbe>
    8534:	ebb4 0608 	subs.w	r6, r4, r8
    8538:	d010      	beq.n	855c <_vfprintf_r+0xf4>
    853a:	9b23      	ldr	r3, [sp, #140]	; 0x8c
    853c:	9a24      	ldr	r2, [sp, #144]	; 0x90
    853e:	3301      	adds	r3, #1
    8540:	e9c7 8600 	strd	r8, r6, [r7]
    8544:	2b07      	cmp	r3, #7
    8546:	4432      	add	r2, r6
    8548:	bfd8      	it	le
    854a:	3708      	addle	r7, #8
    854c:	9323      	str	r3, [sp, #140]	; 0x8c
    854e:	9224      	str	r2, [sp, #144]	; 0x90
    8550:	f300 80c9 	bgt.w	86e6 <_vfprintf_r+0x27e>
    8554:	9b04      	ldr	r3, [sp, #16]
    8556:	4433      	add	r3, r6
    8558:	9304      	str	r3, [sp, #16]
    855a:	786b      	ldrb	r3, [r5, #1]
    855c:	2b00      	cmp	r3, #0
    855e:	f000 87fe 	beq.w	955e <_vfprintf_r+0x10f6>
    8562:	2300      	movs	r3, #0
    8564:	7865      	ldrb	r5, [r4, #1]
    8566:	f104 0801 	add.w	r8, r4, #1
    856a:	f04f 3aff 	mov.w	sl, #4294967295	; 0xffffffff
    856e:	469b      	mov	fp, r3
    8570:	240a      	movs	r4, #10
    8572:	f88d 306b 	strb.w	r3, [sp, #107]	; 0x6b
    8576:	9303      	str	r3, [sp, #12]
    8578:	f108 0801 	add.w	r8, r8, #1
    857c:	f1a5 0320 	sub.w	r3, r5, #32
    8580:	2b5a      	cmp	r3, #90	; 0x5a
    8582:	f200 80ba 	bhi.w	86fa <_vfprintf_r+0x292>
    8586:	e8df f013 	tbh	[pc, r3, lsl #1]
    858a:	00b80246 	adcseq	r0, r8, r6, asr #4
    858e:	024100b8 	subeq	r0, r1, #184	; 0xb8
    8592:	00b800b8 	ldrhteq	r0, [r8], r8
    8596:	006800b8 	strhteq	r0, [r8], #-8
    859a:	00b800b8 	ldrhteq	r0, [r8], r8
    859e:	021f020f 	andseq	r0, pc, #-268435456	; 0xf0000000
    85a2:	021a00b8 	andseq	r0, sl, #184	; 0xb8
    85a6:	00b8022a 	adcseq	r0, r8, sl, lsr #4
    85aa:	005b0225 	subseq	r0, fp, r5, lsr #4
    85ae:	005b005b 	subseq	r0, fp, fp, asr r0
    85b2:	005b005b 	subseq	r0, fp, fp, asr r0
    85b6:	005b005b 	subseq	r0, fp, fp, asr r0
    85ba:	005b005b 	subseq	r0, fp, fp, asr r0
    85be:	00b800b8 	ldrhteq	r0, [r8], r8
    85c2:	00b800b8 	ldrhteq	r0, [r8], r8
    85c6:	00b800b8 	ldrhteq	r0, [r8], r8
    85ca:	012f00b8 	strheq	r0, [pc, -r8]!
    85ce:	019800b8 	ldrheq	r0, [r8, r8]
    85d2:	012f016c 			; <UNDEFINED> instruction: 0x012f016c
    85d6:	012f012f 			; <UNDEFINED> instruction: 0x012f012f
    85da:	00b800b8 	ldrhteq	r0, [r8], r8
    85de:	00b800b8 	ldrhteq	r0, [r8], r8
    85e2:	00b80263 	adcseq	r0, r8, r3, ror #4
    85e6:	01cc00b8 	strheq	r0, [ip, #8]
    85ea:	00b800b8 	ldrhteq	r0, [r8], r8
    85ee:	01a400b8 	strheq	r0, [r4, r8]!
    85f2:	025100b8 	subseq	r0, r1, #184	; 0xb8
    85f6:	00b800b8 	ldrhteq	r0, [r8], r8
    85fa:	00b806e8 	adcseq	r0, r8, r8, ror #13
    85fe:	00b800b8 	ldrhteq	r0, [r8], r8
    8602:	00b800b8 	ldrhteq	r0, [r8], r8
    8606:	00b800b8 	ldrhteq	r0, [r8], r8
    860a:	012f00b8 	strheq	r0, [pc, -r8]!
    860e:	019800b8 	ldrheq	r0, [r8, r8]
    8612:	012f016e 			; <UNDEFINED> instruction: 0x012f016e
    8616:	012f012f 			; <UNDEFINED> instruction: 0x012f012f
    861a:	016e029c 			; <UNDEFINED> instruction: 0x016e029c
    861e:	00b80167 	adcseq	r0, r8, r7, ror #2
    8622:	00b80294 	umlalseq	r0, r8, r4, r2
    8626:	01ce0268 	biceq	r0, lr, r8, ror #4
    862a:	0167027f 	smceq	28719	; 0x702f
    862e:	01a400b8 	strheq	r0, [r4, r8]!
    8632:	06c6007d 	uxtab16eq	r0, r6, sp
    8636:	00b800b8 	ldrhteq	r0, [r8], r8
    863a:	00b806ca 	adcseq	r0, r8, sl, asr #13
    863e:	f1a5007d 			; <UNDEFINED> instruction: 0xf1a5007d
    8642:	0330      	lsls	r0, r6, #12
    8644:	2200      	movs	r2, #0
    8646:	f818 5b01 	ldrb.w	r5, [r8], #1
    864a:	fb04 3202 	mla	r2, r4, r2, r3
    864e:	f1a5 0330 	sub.w	r3, r5, #48	; 0x30
    8652:	2b09      	cmp	r3, #9
    8654:	d9f7      	bls.n	8646 <_vfprintf_r+0x1de>
    8656:	9203      	str	r2, [sp, #12]
    8658:	e790      	b.n	857c <_vfprintf_r+0x114>
    865a:	9e02      	ldr	r6, [sp, #8]
    865c:	4630      	mov	r0, r6
    865e:	f002 ffff 	bl	b660 <_localeconv_r>
    8662:	6843      	ldr	r3, [r0, #4]
    8664:	9317      	str	r3, [sp, #92]	; 0x5c
    8666:	4618      	mov	r0, r3
    8668:	f004 fcca 	bl	d000 <strlen>
    866c:	4605      	mov	r5, r0
    866e:	9016      	str	r0, [sp, #88]	; 0x58
    8670:	4630      	mov	r0, r6
    8672:	f002 fff5 	bl	b660 <_localeconv_r>
    8676:	6883      	ldr	r3, [r0, #8]
    8678:	9311      	str	r3, [sp, #68]	; 0x44
    867a:	2d00      	cmp	r5, #0
    867c:	bf18      	it	ne
    867e:	2b00      	cmpne	r3, #0
    8680:	f040 85ab 	bne.w	91da <_vfprintf_r+0xd72>
    8684:	f898 5000 	ldrb.w	r5, [r8]
    8688:	e776      	b.n	8578 <_vfprintf_r+0x110>
    868a:	9802      	ldr	r0, [sp, #8]
    868c:	4659      	mov	r1, fp
    868e:	f001 fc2d 	bl	9eec <__swsetup_r>
    8692:	2800      	cmp	r0, #0
    8694:	f041 83a8 	bne.w	9de8 <_vfprintf_r+0x1980>
    8698:	f8bb 200c 	ldrh.w	r2, [fp, #12]
    869c:	f002 031a 	and.w	r3, r2, #26
    86a0:	2b0a      	cmp	r3, #10
    86a2:	f47f af1f 	bne.w	84e4 <_vfprintf_r+0x7c>
    86a6:	f9bb 300e 	ldrsh.w	r3, [fp, #14]
    86aa:	2b00      	cmp	r3, #0
    86ac:	f6ff af1a 	blt.w	84e4 <_vfprintf_r+0x7c>
    86b0:	f8db 3064 	ldr.w	r3, [fp, #100]	; 0x64
    86b4:	07d9      	lsls	r1, r3, #31
    86b6:	d402      	bmi.n	86be <_vfprintf_r+0x256>
    86b8:	0593      	lsls	r3, r2, #22
    86ba:	f141 80cd 	bpl.w	9858 <_vfprintf_r+0x13f0>
    86be:	9802      	ldr	r0, [sp, #8]
    86c0:	4623      	mov	r3, r4
    86c2:	4642      	mov	r2, r8
    86c4:	4659      	mov	r1, fp
    86c6:	b04f      	add	sp, #316	; 0x13c
    86c8:	ecbd 8b04 	vpop	{d8-d9}
    86cc:	e8bd 4ff0 	ldmia.w	sp!, {r4, r5, r6, r7, r8, r9, sl, fp, lr}
    86d0:	f001 bbca 	b.w	9e68 <__sbprintf>
    86d4:	f8db 0058 	ldr.w	r0, [fp, #88]	; 0x58
    86d8:	f002 ffd4 	bl	b684 <__retarget_lock_acquire_recursive>
    86dc:	f9bb 300c 	ldrsh.w	r3, [fp, #12]
    86e0:	f8bb 200c 	ldrh.w	r2, [fp, #12]
    86e4:	e6e4      	b.n	84b0 <_vfprintf_r+0x48>
    86e6:	9802      	ldr	r0, [sp, #8]
    86e8:	aa22      	add	r2, sp, #136	; 0x88
    86ea:	4649      	mov	r1, r9
    86ec:	f004 fd68 	bl	d1c0 <__sprint_r>
    86f0:	2800      	cmp	r0, #0
    86f2:	f041 8352 	bne.w	9d9a <_vfprintf_r+0x1932>
    86f6:	af25      	add	r7, sp, #148	; 0x94
    86f8:	e72c      	b.n	8554 <_vfprintf_r+0xec>
    86fa:	2d00      	cmp	r5, #0
    86fc:	f000 872f 	beq.w	955e <_vfprintf_r+0x10f6>
    8700:	2601      	movs	r6, #1
    8702:	2100      	movs	r1, #0
    8704:	f88d 50d4 	strb.w	r5, [sp, #212]	; 0xd4
    8708:	f88d 106b 	strb.w	r1, [sp, #107]	; 0x6b
    870c:	9106      	str	r1, [sp, #24]
    870e:	468a      	mov	sl, r1
    8710:	ab35      	add	r3, sp, #212	; 0xd4
    8712:	9605      	str	r6, [sp, #20]
    8714:	910f      	str	r1, [sp, #60]	; 0x3c
    8716:	e9cd 110b 	strd	r1, r1, [sp, #44]	; 0x2c
    871a:	9308      	str	r3, [sp, #32]
    871c:	f01b 0302 	ands.w	r3, fp, #2
    8720:	9309      	str	r3, [sp, #36]	; 0x24
    8722:	bf18      	it	ne
    8724:	3602      	addne	r6, #2
    8726:	f01b 0384 	ands.w	r3, fp, #132	; 0x84
    872a:	930a      	str	r3, [sp, #40]	; 0x28
    872c:	d104      	bne.n	8738 <_vfprintf_r+0x2d0>
    872e:	9b03      	ldr	r3, [sp, #12]
    8730:	1b9c      	subs	r4, r3, r6
    8732:	2c00      	cmp	r4, #0
    8734:	f300 8332 	bgt.w	8d9c <_vfprintf_r+0x934>
    8738:	9a24      	ldr	r2, [sp, #144]	; 0x90
    873a:	b171      	cbz	r1, 875a <_vfprintf_r+0x2f2>
    873c:	9923      	ldr	r1, [sp, #140]	; 0x8c
    873e:	f10d 006b 	add.w	r0, sp, #107	; 0x6b
    8742:	3201      	adds	r2, #1
    8744:	6038      	str	r0, [r7, #0]
    8746:	3101      	adds	r1, #1
    8748:	2001      	movs	r0, #1
    874a:	2907      	cmp	r1, #7
    874c:	6078      	str	r0, [r7, #4]
    874e:	9224      	str	r2, [sp, #144]	; 0x90
    8750:	bfd8      	it	le
    8752:	3708      	addle	r7, #8
    8754:	9123      	str	r1, [sp, #140]	; 0x8c
    8756:	f300 835f 	bgt.w	8e18 <_vfprintf_r+0x9b0>
    875a:	9b09      	ldr	r3, [sp, #36]	; 0x24
    875c:	b16b      	cbz	r3, 877a <_vfprintf_r+0x312>
    875e:	9b23      	ldr	r3, [sp, #140]	; 0x8c
    8760:	a91b      	add	r1, sp, #108	; 0x6c
    8762:	3202      	adds	r2, #2
    8764:	6039      	str	r1, [r7, #0]
    8766:	3301      	adds	r3, #1
    8768:	2102      	movs	r1, #2
    876a:	2b07      	cmp	r3, #7
    876c:	6079      	str	r1, [r7, #4]
    876e:	9224      	str	r2, [sp, #144]	; 0x90
    8770:	bfd8      	it	le
    8772:	3708      	addle	r7, #8
    8774:	9323      	str	r3, [sp, #140]	; 0x8c
    8776:	f300 835a 	bgt.w	8e2e <_vfprintf_r+0x9c6>
    877a:	9b0a      	ldr	r3, [sp, #40]	; 0x28
    877c:	2b80      	cmp	r3, #128	; 0x80
    877e:	f000 8207 	beq.w	8b90 <_vfprintf_r+0x728>
    8782:	9b05      	ldr	r3, [sp, #20]
    8784:	ebaa 0403 	sub.w	r4, sl, r3
    8788:	2c00      	cmp	r4, #0
    878a:	f300 824a 	bgt.w	8c22 <_vfprintf_r+0x7ba>
    878e:	f41b 7f80 	tst.w	fp, #256	; 0x100
    8792:	f040 81a5 	bne.w	8ae0 <_vfprintf_r+0x678>
    8796:	9b08      	ldr	r3, [sp, #32]
    8798:	603b      	str	r3, [r7, #0]
    879a:	9b05      	ldr	r3, [sp, #20]
    879c:	607b      	str	r3, [r7, #4]
    879e:	441a      	add	r2, r3
    87a0:	9b23      	ldr	r3, [sp, #140]	; 0x8c
    87a2:	9224      	str	r2, [sp, #144]	; 0x90
    87a4:	3301      	adds	r3, #1
    87a6:	9323      	str	r3, [sp, #140]	; 0x8c
    87a8:	2b07      	cmp	r3, #7
    87aa:	f300 82ed 	bgt.w	8d88 <_vfprintf_r+0x920>
    87ae:	3708      	adds	r7, #8
    87b0:	f01b 0f04 	tst.w	fp, #4
    87b4:	d004      	beq.n	87c0 <_vfprintf_r+0x358>
    87b6:	9b03      	ldr	r3, [sp, #12]
    87b8:	1b9c      	subs	r4, r3, r6
    87ba:	2c00      	cmp	r4, #0
    87bc:	f300 8357 	bgt.w	8e6e <_vfprintf_r+0xa06>
    87c0:	9b03      	ldr	r3, [sp, #12]
    87c2:	9904      	ldr	r1, [sp, #16]
    87c4:	42b3      	cmp	r3, r6
    87c6:	bfb8      	it	lt
    87c8:	4633      	movlt	r3, r6
    87ca:	4419      	add	r1, r3
    87cc:	9104      	str	r1, [sp, #16]
    87ce:	2a00      	cmp	r2, #0
    87d0:	f040 8290 	bne.w	8cf4 <_vfprintf_r+0x88c>
    87d4:	2300      	movs	r3, #0
    87d6:	9323      	str	r3, [sp, #140]	; 0x8c
    87d8:	9b06      	ldr	r3, [sp, #24]
    87da:	b11b      	cbz	r3, 87e4 <_vfprintf_r+0x37c>
    87dc:	9906      	ldr	r1, [sp, #24]
    87de:	9802      	ldr	r0, [sp, #8]
    87e0:	f002 fdf0 	bl	b3c4 <_free_r>
    87e4:	af25      	add	r7, sp, #148	; 0x94
    87e6:	e697      	b.n	8518 <_vfprintf_r+0xb0>
    87e8:	9b07      	ldr	r3, [sp, #28]
    87ea:	eddf 1bbb 	vldr	d17, [pc, #748]	; 8ad8 <_vfprintf_r+0x670>
    87ee:	3307      	adds	r3, #7
    87f0:	f023 0307 	bic.w	r3, r3, #7
    87f4:	ecb3 8b02 	vldmia	r3!, {d8}
    87f8:	eef0 0bc8 	vabs.f64	d16, d8
    87fc:	9307      	str	r3, [sp, #28]
    87fe:	eef4 0b61 	vcmp.f64	d16, d17
    8802:	eef1 fa10 	vmrs	APSR_nzcv, fpscr
    8806:	f340 84f9 	ble.w	91fc <_vfprintf_r+0xd94>
    880a:	eeb5 8bc0 	vcmpe.f64	d8, #0.0
    880e:	eef1 fa10 	vmrs	APSR_nzcv, fpscr
    8812:	f100 87f5 	bmi.w	9800 <_vfprintf_r+0x1398>
    8816:	f89d 106b 	ldrb.w	r1, [sp, #107]	; 0x6b
    881a:	f643 22d4 	movw	r2, #15060	; 0x3ad4
    881e:	f2c0 0202 	movt	r2, #2
    8822:	f643 23d8 	movw	r3, #15064	; 0x3ad8
    8826:	f2c0 0302 	movt	r3, #2
    882a:	f02b 0b80 	bic.w	fp, fp, #128	; 0x80
    882e:	2603      	movs	r6, #3
    8830:	2000      	movs	r0, #0
    8832:	9006      	str	r0, [sp, #24]
    8834:	4682      	mov	sl, r0
    8836:	2d47      	cmp	r5, #71	; 0x47
    8838:	bfc8      	it	gt
    883a:	461a      	movgt	r2, r3
    883c:	9605      	str	r6, [sp, #20]
    883e:	9208      	str	r2, [sp, #32]
    8840:	900f      	str	r0, [sp, #60]	; 0x3c
    8842:	e9cd 000b 	strd	r0, r0, [sp, #44]	; 0x2c
    8846:	2900      	cmp	r1, #0
    8848:	f43f af68 	beq.w	871c <_vfprintf_r+0x2b4>
    884c:	3601      	adds	r6, #1
    884e:	e765      	b.n	871c <_vfprintf_r+0x2b4>
    8850:	9802      	ldr	r0, [sp, #8]
    8852:	f002 fc29 	bl	b0a8 <__sinit>
    8856:	e61f      	b.n	8498 <_vfprintf_r+0x30>
    8858:	f898 5000 	ldrb.w	r5, [r8]
    885c:	f04b 0b20 	orr.w	fp, fp, #32
    8860:	e68a      	b.n	8578 <_vfprintf_r+0x110>
    8862:	f04b 0b10 	orr.w	fp, fp, #16
    8866:	9b07      	ldr	r3, [sp, #28]
    8868:	f01b 0f20 	tst.w	fp, #32
    886c:	f000 844d 	beq.w	910a <_vfprintf_r+0xca2>
    8870:	3307      	adds	r3, #7
    8872:	f023 0307 	bic.w	r3, r3, #7
    8876:	461a      	mov	r2, r3
    8878:	685b      	ldr	r3, [r3, #4]
    887a:	f852 4b08 	ldr.w	r4, [r2], #8
    887e:	461e      	mov	r6, r3
    8880:	9207      	str	r2, [sp, #28]
    8882:	2b00      	cmp	r3, #0
    8884:	f2c0 844f 	blt.w	9126 <_vfprintf_r+0xcbe>
    8888:	f1ba 3fff 	cmp.w	sl, #4294967295	; 0xffffffff
    888c:	f000 8341 	beq.w	8f12 <_vfprintf_r+0xaaa>
    8890:	f1ba 0200 	subs.w	r2, sl, #0
    8894:	f02b 0b80 	bic.w	fp, fp, #128	; 0x80
    8898:	bf18      	it	ne
    889a:	2201      	movne	r2, #1
    889c:	ea54 0306 	orrs.w	r3, r4, r6
    88a0:	f042 0301 	orr.w	r3, r2, #1
    88a4:	bf08      	it	eq
    88a6:	4613      	moveq	r3, r2
    88a8:	2b00      	cmp	r3, #0
    88aa:	f040 8332 	bne.w	8f12 <_vfprintf_r+0xaaa>
    88ae:	469a      	mov	sl, r3
    88b0:	ab4e      	add	r3, sp, #312	; 0x138
    88b2:	f8cd a014 	str.w	sl, [sp, #20]
    88b6:	9308      	str	r3, [sp, #32]
    88b8:	e06a      	b.n	8990 <_vfprintf_r+0x528>
    88ba:	9b07      	ldr	r3, [sp, #28]
    88bc:	2100      	movs	r1, #0
    88be:	2601      	movs	r6, #1
    88c0:	f88d 106b 	strb.w	r1, [sp, #107]	; 0x6b
    88c4:	9106      	str	r1, [sp, #24]
    88c6:	f853 2b04 	ldr.w	r2, [r3], #4
    88ca:	f88d 20d4 	strb.w	r2, [sp, #212]	; 0xd4
    88ce:	9307      	str	r3, [sp, #28]
    88d0:	e71d      	b.n	870e <_vfprintf_r+0x2a6>
    88d2:	9c07      	ldr	r4, [sp, #28]
    88d4:	2600      	movs	r6, #0
    88d6:	f88d 606b 	strb.w	r6, [sp, #107]	; 0x6b
    88da:	f854 3b04 	ldr.w	r3, [r4], #4
    88de:	9308      	str	r3, [sp, #32]
    88e0:	2b00      	cmp	r3, #0
    88e2:	f000 855c 	beq.w	939e <_vfprintf_r+0xf36>
    88e6:	f1ba 3fff 	cmp.w	sl, #4294967295	; 0xffffffff
    88ea:	f000 8666 	beq.w	95ba <_vfprintf_r+0x1152>
    88ee:	9808      	ldr	r0, [sp, #32]
    88f0:	4652      	mov	r2, sl
    88f2:	4631      	mov	r1, r6
    88f4:	f003 fa3c 	bl	bd70 <memchr>
    88f8:	9006      	str	r0, [sp, #24]
    88fa:	2800      	cmp	r0, #0
    88fc:	f001 8129 	beq.w	9b52 <_vfprintf_r+0x16ea>
    8900:	9b06      	ldr	r3, [sp, #24]
    8902:	46b2      	mov	sl, r6
    8904:	9a08      	ldr	r2, [sp, #32]
    8906:	f89d 106b 	ldrb.w	r1, [sp, #107]	; 0x6b
    890a:	1a9b      	subs	r3, r3, r2
    890c:	9407      	str	r4, [sp, #28]
    890e:	9305      	str	r3, [sp, #20]
    8910:	ea23 76e3 	bic.w	r6, r3, r3, asr #31
    8914:	f8cd a018 	str.w	sl, [sp, #24]
    8918:	f8cd a03c 	str.w	sl, [sp, #60]	; 0x3c
    891c:	e9cd aa0b 	strd	sl, sl, [sp, #44]	; 0x2c
    8920:	e791      	b.n	8846 <_vfprintf_r+0x3de>
    8922:	f04b 0b10 	orr.w	fp, fp, #16
    8926:	f01b 0620 	ands.w	r6, fp, #32
    892a:	f000 83e0 	beq.w	90ee <_vfprintf_r+0xc86>
    892e:	9b07      	ldr	r3, [sp, #28]
    8930:	3307      	adds	r3, #7
    8932:	f023 0307 	bic.w	r3, r3, #7
    8936:	685e      	ldr	r6, [r3, #4]
    8938:	f853 4b08 	ldr.w	r4, [r3], #8
    893c:	9307      	str	r3, [sp, #28]
    893e:	2200      	movs	r2, #0
    8940:	f42b 6380 	bic.w	r3, fp, #1024	; 0x400
    8944:	9305      	str	r3, [sp, #20]
    8946:	2300      	movs	r3, #0
    8948:	f88d 306b 	strb.w	r3, [sp, #107]	; 0x6b
    894c:	f1ba 3fff 	cmp.w	sl, #4294967295	; 0xffffffff
    8950:	f000 81ac 	beq.w	8cac <_vfprintf_r+0x844>
    8954:	9905      	ldr	r1, [sp, #20]
    8956:	ea44 0306 	orr.w	r3, r4, r6
    895a:	f021 0b80 	bic.w	fp, r1, #128	; 0x80
    895e:	4651      	mov	r1, sl
    8960:	2b00      	cmp	r3, #0
    8962:	bf08      	it	eq
    8964:	2900      	cmpeq	r1, #0
    8966:	bf18      	it	ne
    8968:	2301      	movne	r3, #1
    896a:	bf08      	it	eq
    896c:	2300      	moveq	r3, #0
    896e:	f040 819b 	bne.w	8ca8 <_vfprintf_r+0x840>
    8972:	2a00      	cmp	r2, #0
    8974:	d19b      	bne.n	88ae <_vfprintf_r+0x446>
    8976:	9b05      	ldr	r3, [sp, #20]
    8978:	4692      	mov	sl, r2
    897a:	f013 0301 	ands.w	r3, r3, #1
    897e:	9305      	str	r3, [sp, #20]
    8980:	f000 835a 	beq.w	9038 <_vfprintf_r+0xbd0>
    8984:	2330      	movs	r3, #48	; 0x30
    8986:	f88d 3137 	strb.w	r3, [sp, #311]	; 0x137
    898a:	f20d 1337 	addw	r3, sp, #311	; 0x137
    898e:	9308      	str	r3, [sp, #32]
    8990:	9e05      	ldr	r6, [sp, #20]
    8992:	2300      	movs	r3, #0
    8994:	f89d 106b 	ldrb.w	r1, [sp, #107]	; 0x6b
    8998:	4556      	cmp	r6, sl
    899a:	9306      	str	r3, [sp, #24]
    899c:	bfb8      	it	lt
    899e:	4656      	movlt	r6, sl
    89a0:	930f      	str	r3, [sp, #60]	; 0x3c
    89a2:	e9cd 330b 	strd	r3, r3, [sp, #44]	; 0x2c
    89a6:	e74e      	b.n	8846 <_vfprintf_r+0x3de>
    89a8:	9b07      	ldr	r3, [sp, #28]
    89aa:	f853 2b04 	ldr.w	r2, [r3], #4
    89ae:	9203      	str	r2, [sp, #12]
    89b0:	2a00      	cmp	r2, #0
    89b2:	f280 83c9 	bge.w	9148 <_vfprintf_r+0xce0>
    89b6:	9a03      	ldr	r2, [sp, #12]
    89b8:	9307      	str	r3, [sp, #28]
    89ba:	4252      	negs	r2, r2
    89bc:	9203      	str	r2, [sp, #12]
    89be:	f898 5000 	ldrb.w	r5, [r8]
    89c2:	f04b 0b04 	orr.w	fp, fp, #4
    89c6:	e5d7      	b.n	8578 <_vfprintf_r+0x110>
    89c8:	232b      	movs	r3, #43	; 0x2b
    89ca:	f898 5000 	ldrb.w	r5, [r8]
    89ce:	f88d 306b 	strb.w	r3, [sp, #107]	; 0x6b
    89d2:	e5d1      	b.n	8578 <_vfprintf_r+0x110>
    89d4:	f898 5000 	ldrb.w	r5, [r8]
    89d8:	f04b 0b80 	orr.w	fp, fp, #128	; 0x80
    89dc:	e5cc      	b.n	8578 <_vfprintf_r+0x110>
    89de:	4642      	mov	r2, r8
    89e0:	f812 5b01 	ldrb.w	r5, [r2], #1
    89e4:	2d2a      	cmp	r5, #42	; 0x2a
    89e6:	f001 81e4 	beq.w	9db2 <_vfprintf_r+0x194a>
    89ea:	f1a5 0330 	sub.w	r3, r5, #48	; 0x30
    89ee:	4690      	mov	r8, r2
    89f0:	f04f 0a00 	mov.w	sl, #0
    89f4:	2b09      	cmp	r3, #9
    89f6:	f63f adc1 	bhi.w	857c <_vfprintf_r+0x114>
    89fa:	f818 5b01 	ldrb.w	r5, [r8], #1
    89fe:	fb04 3a0a 	mla	sl, r4, sl, r3
    8a02:	f1a5 0330 	sub.w	r3, r5, #48	; 0x30
    8a06:	2b09      	cmp	r3, #9
    8a08:	d9f7      	bls.n	89fa <_vfprintf_r+0x592>
    8a0a:	e5b7      	b.n	857c <_vfprintf_r+0x114>
    8a0c:	f898 5000 	ldrb.w	r5, [r8]
    8a10:	f04b 0b01 	orr.w	fp, fp, #1
    8a14:	e5b0      	b.n	8578 <_vfprintf_r+0x110>
    8a16:	f89d 306b 	ldrb.w	r3, [sp, #107]	; 0x6b
    8a1a:	2b00      	cmp	r3, #0
    8a1c:	f47f ae32 	bne.w	8684 <_vfprintf_r+0x21c>
    8a20:	2320      	movs	r3, #32
    8a22:	f898 5000 	ldrb.w	r5, [r8]
    8a26:	f88d 306b 	strb.w	r3, [sp, #107]	; 0x6b
    8a2a:	e5a5      	b.n	8578 <_vfprintf_r+0x110>
    8a2c:	f04b 0310 	orr.w	r3, fp, #16
    8a30:	9305      	str	r3, [sp, #20]
    8a32:	9b05      	ldr	r3, [sp, #20]
    8a34:	f013 0620 	ands.w	r6, r3, #32
    8a38:	f000 8347 	beq.w	90ca <_vfprintf_r+0xc62>
    8a3c:	9b07      	ldr	r3, [sp, #28]
    8a3e:	2201      	movs	r2, #1
    8a40:	3307      	adds	r3, #7
    8a42:	f023 0307 	bic.w	r3, r3, #7
    8a46:	685e      	ldr	r6, [r3, #4]
    8a48:	f853 4b08 	ldr.w	r4, [r3], #8
    8a4c:	9307      	str	r3, [sp, #28]
    8a4e:	e77a      	b.n	8946 <_vfprintf_r+0x4de>
    8a50:	f898 5000 	ldrb.w	r5, [r8]
    8a54:	f04b 0b08 	orr.w	fp, fp, #8
    8a58:	e58e      	b.n	8578 <_vfprintf_r+0x110>
    8a5a:	f01b 0f20 	tst.w	fp, #32
    8a5e:	f040 83b2 	bne.w	91c6 <_vfprintf_r+0xd5e>
    8a62:	f01b 0f10 	tst.w	fp, #16
    8a66:	f040 8572 	bne.w	954e <_vfprintf_r+0x10e6>
    8a6a:	f01b 0f40 	tst.w	fp, #64	; 0x40
    8a6e:	f040 86e1 	bne.w	9834 <_vfprintf_r+0x13cc>
    8a72:	f41b 7f00 	tst.w	fp, #512	; 0x200
    8a76:	f000 856a 	beq.w	954e <_vfprintf_r+0x10e6>
    8a7a:	9b07      	ldr	r3, [sp, #28]
    8a7c:	9904      	ldr	r1, [sp, #16]
    8a7e:	f853 2b04 	ldr.w	r2, [r3], #4
    8a82:	9307      	str	r3, [sp, #28]
    8a84:	7011      	strb	r1, [r2, #0]
    8a86:	e547      	b.n	8518 <_vfprintf_r+0xb0>
    8a88:	9b07      	ldr	r3, [sp, #28]
    8a8a:	f04b 0202 	orr.w	r2, fp, #2
    8a8e:	2578      	movs	r5, #120	; 0x78
    8a90:	9205      	str	r2, [sp, #20]
    8a92:	2600      	movs	r6, #0
    8a94:	2230      	movs	r2, #48	; 0x30
    8a96:	f853 4b04 	ldr.w	r4, [r3], #4
    8a9a:	f88d 206c 	strb.w	r2, [sp, #108]	; 0x6c
    8a9e:	2202      	movs	r2, #2
    8aa0:	9307      	str	r3, [sp, #28]
    8aa2:	f643 23e4 	movw	r3, #15076	; 0x3ae4
    8aa6:	f2c0 0302 	movt	r3, #2
    8aaa:	f88d 506d 	strb.w	r5, [sp, #109]	; 0x6d
    8aae:	9314      	str	r3, [sp, #80]	; 0x50
    8ab0:	e749      	b.n	8946 <_vfprintf_r+0x4de>
    8ab2:	f898 5000 	ldrb.w	r5, [r8]
    8ab6:	2d6c      	cmp	r5, #108	; 0x6c
    8ab8:	f000 8461 	beq.w	937e <_vfprintf_r+0xf16>
    8abc:	f04b 0b10 	orr.w	fp, fp, #16
    8ac0:	e55a      	b.n	8578 <_vfprintf_r+0x110>
    8ac2:	f898 5000 	ldrb.w	r5, [r8]
    8ac6:	2d68      	cmp	r5, #104	; 0x68
    8ac8:	f000 8461 	beq.w	938e <_vfprintf_r+0xf26>
    8acc:	f04b 0b40 	orr.w	fp, fp, #64	; 0x40
    8ad0:	e552      	b.n	8578 <_vfprintf_r+0x110>
    8ad2:	bf00      	nop
    8ad4:	f3af 8000 	nop.w
    8ad8:	ffffffff 			; <UNDEFINED> instruction: 0xffffffff
    8adc:	7fefffff 	svcvc	0x00efffff
    8ae0:	2d65      	cmp	r5, #101	; 0x65
    8ae2:	f340 8111 	ble.w	8d08 <_vfprintf_r+0x8a0>
    8ae6:	eeb5 8b40 	vcmp.f64	d8, #0.0
    8aea:	eef1 fa10 	vmrs	APSR_nzcv, fpscr
    8aee:	f040 8222 	bne.w	8f36 <_vfprintf_r+0xace>
    8af2:	9b23      	ldr	r3, [sp, #140]	; 0x8c
    8af4:	2101      	movs	r1, #1
    8af6:	3201      	adds	r2, #1
    8af8:	6079      	str	r1, [r7, #4]
    8afa:	3301      	adds	r3, #1
    8afc:	f643 3114 	movw	r1, #15124	; 0x3b14
    8b00:	f2c0 0102 	movt	r1, #2
    8b04:	2b07      	cmp	r3, #7
    8b06:	6039      	str	r1, [r7, #0]
    8b08:	bfd8      	it	le
    8b0a:	3708      	addle	r7, #8
    8b0c:	9224      	str	r2, [sp, #144]	; 0x90
    8b0e:	9323      	str	r3, [sp, #140]	; 0x8c
    8b10:	f300 84b6 	bgt.w	9480 <_vfprintf_r+0x1018>
    8b14:	9b1c      	ldr	r3, [sp, #112]	; 0x70
    8b16:	990d      	ldr	r1, [sp, #52]	; 0x34
    8b18:	428b      	cmp	r3, r1
    8b1a:	f280 8310 	bge.w	913e <_vfprintf_r+0xcd6>
    8b1e:	9b12      	ldr	r3, [sp, #72]	; 0x48
    8b20:	9913      	ldr	r1, [sp, #76]	; 0x4c
    8b22:	441a      	add	r2, r3
    8b24:	e9c7 1300 	strd	r1, r3, [r7]
    8b28:	9b23      	ldr	r3, [sp, #140]	; 0x8c
    8b2a:	9224      	str	r2, [sp, #144]	; 0x90
    8b2c:	3301      	adds	r3, #1
    8b2e:	9323      	str	r3, [sp, #140]	; 0x8c
    8b30:	2b07      	cmp	r3, #7
    8b32:	bfd8      	it	le
    8b34:	3708      	addle	r7, #8
    8b36:	f300 8416 	bgt.w	9366 <_vfprintf_r+0xefe>
    8b3a:	9b0d      	ldr	r3, [sp, #52]	; 0x34
    8b3c:	1e5c      	subs	r4, r3, #1
    8b3e:	2c00      	cmp	r4, #0
    8b40:	f77f ae36 	ble.w	87b0 <_vfprintf_r+0x348>
    8b44:	9b23      	ldr	r3, [sp, #140]	; 0x8c
    8b46:	2c10      	cmp	r4, #16
    8b48:	f340 84a8 	ble.w	949c <_vfprintf_r+0x1034>
    8b4c:	9605      	str	r6, [sp, #20]
    8b4e:	2510      	movs	r5, #16
    8b50:	464e      	mov	r6, r9
    8b52:	f8dd a008 	ldr.w	sl, [sp, #8]
    8b56:	f8dd 9038 	ldr.w	r9, [sp, #56]	; 0x38
    8b5a:	e003      	b.n	8b64 <_vfprintf_r+0x6fc>
    8b5c:	3c10      	subs	r4, #16
    8b5e:	2c10      	cmp	r4, #16
    8b60:	f340 849a 	ble.w	9498 <_vfprintf_r+0x1030>
    8b64:	3301      	adds	r3, #1
    8b66:	3210      	adds	r2, #16
    8b68:	2b07      	cmp	r3, #7
    8b6a:	e9c7 9500 	strd	r9, r5, [r7]
    8b6e:	e9cd 3223 	strd	r3, r2, [sp, #140]	; 0x8c
    8b72:	bfd8      	it	le
    8b74:	3708      	addle	r7, #8
    8b76:	ddf1      	ble.n	8b5c <_vfprintf_r+0x6f4>
    8b78:	aa22      	add	r2, sp, #136	; 0x88
    8b7a:	4631      	mov	r1, r6
    8b7c:	4650      	mov	r0, sl
    8b7e:	af25      	add	r7, sp, #148	; 0x94
    8b80:	f004 fb1e 	bl	d1c0 <__sprint_r>
    8b84:	2800      	cmp	r0, #0
    8b86:	f040 81ab 	bne.w	8ee0 <_vfprintf_r+0xa78>
    8b8a:	e9dd 3223 	ldrd	r3, r2, [sp, #140]	; 0x8c
    8b8e:	e7e5      	b.n	8b5c <_vfprintf_r+0x6f4>
    8b90:	9b03      	ldr	r3, [sp, #12]
    8b92:	1b9c      	subs	r4, r3, r6
    8b94:	2c00      	cmp	r4, #0
    8b96:	f77f adf4 	ble.w	8782 <_vfprintf_r+0x31a>
    8b9a:	9b23      	ldr	r3, [sp, #140]	; 0x8c
    8b9c:	2c10      	cmp	r4, #16
    8b9e:	dd2a      	ble.n	8bf6 <_vfprintf_r+0x78e>
    8ba0:	e9cd 5609 	strd	r5, r6, [sp, #36]	; 0x24
    8ba4:	4618      	mov	r0, r3
    8ba6:	464e      	mov	r6, r9
    8ba8:	9d02      	ldr	r5, [sp, #8]
    8baa:	46c1      	mov	r9, r8
    8bac:	f8dd 8038 	ldr.w	r8, [sp, #56]	; 0x38
    8bb0:	e002      	b.n	8bb8 <_vfprintf_r+0x750>
    8bb2:	3c10      	subs	r4, #16
    8bb4:	2c10      	cmp	r4, #16
    8bb6:	dd19      	ble.n	8bec <_vfprintf_r+0x784>
    8bb8:	3001      	adds	r0, #1
    8bba:	2310      	movs	r3, #16
    8bbc:	2807      	cmp	r0, #7
    8bbe:	441a      	add	r2, r3
    8bc0:	f8c7 8000 	str.w	r8, [r7]
    8bc4:	607b      	str	r3, [r7, #4]
    8bc6:	bfd8      	it	le
    8bc8:	3708      	addle	r7, #8
    8bca:	e9cd 0223 	strd	r0, r2, [sp, #140]	; 0x8c
    8bce:	ddf0      	ble.n	8bb2 <_vfprintf_r+0x74a>
    8bd0:	aa22      	add	r2, sp, #136	; 0x88
    8bd2:	4631      	mov	r1, r6
    8bd4:	4628      	mov	r0, r5
    8bd6:	af25      	add	r7, sp, #148	; 0x94
    8bd8:	f004 faf2 	bl	d1c0 <__sprint_r>
    8bdc:	2800      	cmp	r0, #0
    8bde:	f040 817f 	bne.w	8ee0 <_vfprintf_r+0xa78>
    8be2:	3c10      	subs	r4, #16
    8be4:	e9dd 0223 	ldrd	r0, r2, [sp, #140]	; 0x8c
    8be8:	2c10      	cmp	r4, #16
    8bea:	dce5      	bgt.n	8bb8 <_vfprintf_r+0x750>
    8bec:	46c8      	mov	r8, r9
    8bee:	9d09      	ldr	r5, [sp, #36]	; 0x24
    8bf0:	46b1      	mov	r9, r6
    8bf2:	9e0a      	ldr	r6, [sp, #40]	; 0x28
    8bf4:	4603      	mov	r3, r0
    8bf6:	3301      	adds	r3, #1
    8bf8:	990e      	ldr	r1, [sp, #56]	; 0x38
    8bfa:	2b07      	cmp	r3, #7
    8bfc:	4422      	add	r2, r4
    8bfe:	607c      	str	r4, [r7, #4]
    8c00:	6039      	str	r1, [r7, #0]
    8c02:	bfd8      	it	le
    8c04:	3708      	addle	r7, #8
    8c06:	e9cd 3223 	strd	r3, r2, [sp, #140]	; 0x8c
    8c0a:	f77f adba 	ble.w	8782 <_vfprintf_r+0x31a>
    8c0e:	9802      	ldr	r0, [sp, #8]
    8c10:	aa22      	add	r2, sp, #136	; 0x88
    8c12:	4649      	mov	r1, r9
    8c14:	f004 fad4 	bl	d1c0 <__sprint_r>
    8c18:	2800      	cmp	r0, #0
    8c1a:	d173      	bne.n	8d04 <_vfprintf_r+0x89c>
    8c1c:	9a24      	ldr	r2, [sp, #144]	; 0x90
    8c1e:	af25      	add	r7, sp, #148	; 0x94
    8c20:	e5af      	b.n	8782 <_vfprintf_r+0x31a>
    8c22:	9b23      	ldr	r3, [sp, #140]	; 0x8c
    8c24:	2c10      	cmp	r4, #16
    8c26:	dd2a      	ble.n	8c7e <_vfprintf_r+0x816>
    8c28:	e9cd 5609 	strd	r5, r6, [sp, #36]	; 0x24
    8c2c:	f04f 0a10 	mov.w	sl, #16
    8c30:	464e      	mov	r6, r9
    8c32:	9d02      	ldr	r5, [sp, #8]
    8c34:	46c1      	mov	r9, r8
    8c36:	4618      	mov	r0, r3
    8c38:	f8dd 8038 	ldr.w	r8, [sp, #56]	; 0x38
    8c3c:	e002      	b.n	8c44 <_vfprintf_r+0x7dc>
    8c3e:	3c10      	subs	r4, #16
    8c40:	2c10      	cmp	r4, #16
    8c42:	dd17      	ble.n	8c74 <_vfprintf_r+0x80c>
    8c44:	3001      	adds	r0, #1
    8c46:	3210      	adds	r2, #16
    8c48:	2807      	cmp	r0, #7
    8c4a:	e9c7 8a00 	strd	r8, sl, [r7]
    8c4e:	e9cd 0223 	strd	r0, r2, [sp, #140]	; 0x8c
    8c52:	bfd8      	it	le
    8c54:	3708      	addle	r7, #8
    8c56:	ddf2      	ble.n	8c3e <_vfprintf_r+0x7d6>
    8c58:	aa22      	add	r2, sp, #136	; 0x88
    8c5a:	4631      	mov	r1, r6
    8c5c:	4628      	mov	r0, r5
    8c5e:	af25      	add	r7, sp, #148	; 0x94
    8c60:	f004 faae 	bl	d1c0 <__sprint_r>
    8c64:	2800      	cmp	r0, #0
    8c66:	f040 813b 	bne.w	8ee0 <_vfprintf_r+0xa78>
    8c6a:	3c10      	subs	r4, #16
    8c6c:	e9dd 0223 	ldrd	r0, r2, [sp, #140]	; 0x8c
    8c70:	2c10      	cmp	r4, #16
    8c72:	dce7      	bgt.n	8c44 <_vfprintf_r+0x7dc>
    8c74:	46c8      	mov	r8, r9
    8c76:	9d09      	ldr	r5, [sp, #36]	; 0x24
    8c78:	46b1      	mov	r9, r6
    8c7a:	9e0a      	ldr	r6, [sp, #40]	; 0x28
    8c7c:	4603      	mov	r3, r0
    8c7e:	3301      	adds	r3, #1
    8c80:	990e      	ldr	r1, [sp, #56]	; 0x38
    8c82:	2b07      	cmp	r3, #7
    8c84:	4422      	add	r2, r4
    8c86:	607c      	str	r4, [r7, #4]
    8c88:	6039      	str	r1, [r7, #0]
    8c8a:	bfd8      	it	le
    8c8c:	3708      	addle	r7, #8
    8c8e:	e9cd 3223 	strd	r3, r2, [sp, #140]	; 0x8c
    8c92:	f77f ad7c 	ble.w	878e <_vfprintf_r+0x326>
    8c96:	9802      	ldr	r0, [sp, #8]
    8c98:	aa22      	add	r2, sp, #136	; 0x88
    8c9a:	4649      	mov	r1, r9
    8c9c:	f004 fa90 	bl	d1c0 <__sprint_r>
    8ca0:	bb80      	cbnz	r0, 8d04 <_vfprintf_r+0x89c>
    8ca2:	9a24      	ldr	r2, [sp, #144]	; 0x90
    8ca4:	af25      	add	r7, sp, #148	; 0x94
    8ca6:	e572      	b.n	878e <_vfprintf_r+0x326>
    8ca8:	f8cd b014 	str.w	fp, [sp, #20]
    8cac:	2a01      	cmp	r2, #1
    8cae:	f000 8132 	beq.w	8f16 <_vfprintf_r+0xaae>
    8cb2:	2a02      	cmp	r2, #2
    8cb4:	f000 80c6 	beq.w	8e44 <_vfprintf_r+0x9dc>
    8cb8:	a94e      	add	r1, sp, #312	; 0x138
    8cba:	08e2      	lsrs	r2, r4, #3
    8cbc:	f004 0307 	and.w	r3, r4, #7
    8cc0:	ea42 7446 	orr.w	r4, r2, r6, lsl #29
    8cc4:	08f6      	lsrs	r6, r6, #3
    8cc6:	3330      	adds	r3, #48	; 0x30
    8cc8:	460a      	mov	r2, r1
    8cca:	ea54 0006 	orrs.w	r0, r4, r6
    8cce:	f801 3d01 	strb.w	r3, [r1, #-1]!
    8cd2:	d1f2      	bne.n	8cba <_vfprintf_r+0x852>
    8cd4:	9805      	ldr	r0, [sp, #20]
    8cd6:	2b30      	cmp	r3, #48	; 0x30
    8cd8:	460c      	mov	r4, r1
    8cda:	9108      	str	r1, [sp, #32]
    8cdc:	f000 0101 	and.w	r1, r0, #1
    8ce0:	bf08      	it	eq
    8ce2:	2100      	moveq	r1, #0
    8ce4:	2900      	cmp	r1, #0
    8ce6:	f040 83be 	bne.w	9466 <_vfprintf_r+0xffe>
    8cea:	ab4e      	add	r3, sp, #312	; 0x138
    8cec:	4683      	mov	fp, r0
    8cee:	1b1b      	subs	r3, r3, r4
    8cf0:	9305      	str	r3, [sp, #20]
    8cf2:	e64d      	b.n	8990 <_vfprintf_r+0x528>
    8cf4:	9802      	ldr	r0, [sp, #8]
    8cf6:	aa22      	add	r2, sp, #136	; 0x88
    8cf8:	4649      	mov	r1, r9
    8cfa:	f004 fa61 	bl	d1c0 <__sprint_r>
    8cfe:	2800      	cmp	r0, #0
    8d00:	f43f ad68 	beq.w	87d4 <_vfprintf_r+0x36c>
    8d04:	46cb      	mov	fp, r9
    8d06:	e0ec      	b.n	8ee2 <_vfprintf_r+0xa7a>
    8d08:	9b0d      	ldr	r3, [sp, #52]	; 0x34
    8d0a:	2b01      	cmp	r3, #1
    8d0c:	f340 8197 	ble.w	903e <_vfprintf_r+0xbd6>
    8d10:	9b08      	ldr	r3, [sp, #32]
    8d12:	3201      	adds	r2, #1
    8d14:	603b      	str	r3, [r7, #0]
    8d16:	2101      	movs	r1, #1
    8d18:	9b23      	ldr	r3, [sp, #140]	; 0x8c
    8d1a:	6079      	str	r1, [r7, #4]
    8d1c:	3301      	adds	r3, #1
    8d1e:	9224      	str	r2, [sp, #144]	; 0x90
    8d20:	2b07      	cmp	r3, #7
    8d22:	9323      	str	r3, [sp, #140]	; 0x8c
    8d24:	bfd8      	it	le
    8d26:	3708      	addle	r7, #8
    8d28:	f300 836f 	bgt.w	940a <_vfprintf_r+0xfa2>
    8d2c:	9912      	ldr	r1, [sp, #72]	; 0x48
    8d2e:	3301      	adds	r3, #1
    8d30:	9813      	ldr	r0, [sp, #76]	; 0x4c
    8d32:	2b07      	cmp	r3, #7
    8d34:	440a      	add	r2, r1
    8d36:	e9c7 0100 	strd	r0, r1, [r7]
    8d3a:	e9cd 3223 	strd	r3, r2, [sp, #140]	; 0x8c
    8d3e:	bfd8      	it	le
    8d40:	3708      	addle	r7, #8
    8d42:	f300 8356 	bgt.w	93f2 <_vfprintf_r+0xf8a>
    8d46:	eeb5 8b40 	vcmp.f64	d8, #0.0
    8d4a:	eef1 fa10 	vmrs	APSR_nzcv, fpscr
    8d4e:	f000 8192 	beq.w	9076 <_vfprintf_r+0xc0e>
    8d52:	9908      	ldr	r1, [sp, #32]
    8d54:	3301      	adds	r3, #1
    8d56:	2b07      	cmp	r3, #7
    8d58:	9323      	str	r3, [sp, #140]	; 0x8c
    8d5a:	f101 0101 	add.w	r1, r1, #1
    8d5e:	6039      	str	r1, [r7, #0]
    8d60:	990d      	ldr	r1, [sp, #52]	; 0x34
    8d62:	f101 31ff 	add.w	r1, r1, #4294967295	; 0xffffffff
    8d66:	6079      	str	r1, [r7, #4]
    8d68:	440a      	add	r2, r1
    8d6a:	9224      	str	r2, [sp, #144]	; 0x90
    8d6c:	f300 8177 	bgt.w	905e <_vfprintf_r+0xbf6>
    8d70:	3708      	adds	r7, #8
    8d72:	9915      	ldr	r1, [sp, #84]	; 0x54
    8d74:	3301      	adds	r3, #1
    8d76:	6079      	str	r1, [r7, #4]
    8d78:	2b07      	cmp	r3, #7
    8d7a:	440a      	add	r2, r1
    8d7c:	a91e      	add	r1, sp, #120	; 0x78
    8d7e:	e9cd 3223 	strd	r3, r2, [sp, #140]	; 0x8c
    8d82:	6039      	str	r1, [r7, #0]
    8d84:	f77f ad13 	ble.w	87ae <_vfprintf_r+0x346>
    8d88:	9802      	ldr	r0, [sp, #8]
    8d8a:	aa22      	add	r2, sp, #136	; 0x88
    8d8c:	4649      	mov	r1, r9
    8d8e:	f004 fa17 	bl	d1c0 <__sprint_r>
    8d92:	2800      	cmp	r0, #0
    8d94:	d1b6      	bne.n	8d04 <_vfprintf_r+0x89c>
    8d96:	9a24      	ldr	r2, [sp, #144]	; 0x90
    8d98:	af25      	add	r7, sp, #148	; 0x94
    8d9a:	e509      	b.n	87b0 <_vfprintf_r+0x348>
    8d9c:	e9dd 1223 	ldrd	r1, r2, [sp, #140]	; 0x8c
    8da0:	2c10      	cmp	r4, #16
    8da2:	dd2b      	ble.n	8dfc <_vfprintf_r+0x994>
    8da4:	4608      	mov	r0, r1
    8da6:	4641      	mov	r1, r8
    8da8:	e9cd 5618 	strd	r5, r6, [sp, #96]	; 0x60
    8dac:	46c8      	mov	r8, r9
    8dae:	9e02      	ldr	r6, [sp, #8]
    8db0:	2310      	movs	r3, #16
    8db2:	9d10      	ldr	r5, [sp, #64]	; 0x40
    8db4:	4689      	mov	r9, r1
    8db6:	e002      	b.n	8dbe <_vfprintf_r+0x956>
    8db8:	3c10      	subs	r4, #16
    8dba:	2c10      	cmp	r4, #16
    8dbc:	dd18      	ble.n	8df0 <_vfprintf_r+0x988>
    8dbe:	3001      	adds	r0, #1
    8dc0:	3210      	adds	r2, #16
    8dc2:	2807      	cmp	r0, #7
    8dc4:	e9c7 5300 	strd	r5, r3, [r7]
    8dc8:	e9cd 0223 	strd	r0, r2, [sp, #140]	; 0x8c
    8dcc:	bfd8      	it	le
    8dce:	3708      	addle	r7, #8
    8dd0:	ddf2      	ble.n	8db8 <_vfprintf_r+0x950>
    8dd2:	aa22      	add	r2, sp, #136	; 0x88
    8dd4:	4641      	mov	r1, r8
    8dd6:	4630      	mov	r0, r6
    8dd8:	af25      	add	r7, sp, #148	; 0x94
    8dda:	f004 f9f1 	bl	d1c0 <__sprint_r>
    8dde:	2800      	cmp	r0, #0
    8de0:	f040 8334 	bne.w	944c <_vfprintf_r+0xfe4>
    8de4:	3c10      	subs	r4, #16
    8de6:	2310      	movs	r3, #16
    8de8:	e9dd 0223 	ldrd	r0, r2, [sp, #140]	; 0x8c
    8dec:	2c10      	cmp	r4, #16
    8dee:	dce6      	bgt.n	8dbe <_vfprintf_r+0x956>
    8df0:	464b      	mov	r3, r9
    8df2:	4601      	mov	r1, r0
    8df4:	e9dd 5618 	ldrd	r5, r6, [sp, #96]	; 0x60
    8df8:	46c1      	mov	r9, r8
    8dfa:	4698      	mov	r8, r3
    8dfc:	3101      	adds	r1, #1
    8dfe:	9b10      	ldr	r3, [sp, #64]	; 0x40
    8e00:	4422      	add	r2, r4
    8e02:	2907      	cmp	r1, #7
    8e04:	607c      	str	r4, [r7, #4]
    8e06:	603b      	str	r3, [r7, #0]
    8e08:	e9cd 1223 	strd	r1, r2, [sp, #140]	; 0x8c
    8e0c:	f300 8310 	bgt.w	9430 <_vfprintf_r+0xfc8>
    8e10:	f89d 106b 	ldrb.w	r1, [sp, #107]	; 0x6b
    8e14:	3708      	adds	r7, #8
    8e16:	e490      	b.n	873a <_vfprintf_r+0x2d2>
    8e18:	9802      	ldr	r0, [sp, #8]
    8e1a:	aa22      	add	r2, sp, #136	; 0x88
    8e1c:	4649      	mov	r1, r9
    8e1e:	f004 f9cf 	bl	d1c0 <__sprint_r>
    8e22:	2800      	cmp	r0, #0
    8e24:	f47f af6e 	bne.w	8d04 <_vfprintf_r+0x89c>
    8e28:	9a24      	ldr	r2, [sp, #144]	; 0x90
    8e2a:	af25      	add	r7, sp, #148	; 0x94
    8e2c:	e495      	b.n	875a <_vfprintf_r+0x2f2>
    8e2e:	9802      	ldr	r0, [sp, #8]
    8e30:	aa22      	add	r2, sp, #136	; 0x88
    8e32:	4649      	mov	r1, r9
    8e34:	f004 f9c4 	bl	d1c0 <__sprint_r>
    8e38:	2800      	cmp	r0, #0
    8e3a:	f47f af63 	bne.w	8d04 <_vfprintf_r+0x89c>
    8e3e:	9a24      	ldr	r2, [sp, #144]	; 0x90
    8e40:	af25      	add	r7, sp, #148	; 0x94
    8e42:	e49a      	b.n	877a <_vfprintf_r+0x312>
    8e44:	9914      	ldr	r1, [sp, #80]	; 0x50
    8e46:	ab4e      	add	r3, sp, #312	; 0x138
    8e48:	f004 020f 	and.w	r2, r4, #15
    8e4c:	0924      	lsrs	r4, r4, #4
    8e4e:	ea44 7406 	orr.w	r4, r4, r6, lsl #28
    8e52:	0936      	lsrs	r6, r6, #4
    8e54:	5c8a      	ldrb	r2, [r1, r2]
    8e56:	f803 2d01 	strb.w	r2, [r3, #-1]!
    8e5a:	ea54 0206 	orrs.w	r2, r4, r6
    8e5e:	d1f3      	bne.n	8e48 <_vfprintf_r+0x9e0>
    8e60:	aa4e      	add	r2, sp, #312	; 0x138
    8e62:	f8dd b014 	ldr.w	fp, [sp, #20]
    8e66:	9308      	str	r3, [sp, #32]
    8e68:	1ad3      	subs	r3, r2, r3
    8e6a:	9305      	str	r3, [sp, #20]
    8e6c:	e590      	b.n	8990 <_vfprintf_r+0x528>
    8e6e:	9b23      	ldr	r3, [sp, #140]	; 0x8c
    8e70:	2c10      	cmp	r4, #16
    8e72:	dd21      	ble.n	8eb8 <_vfprintf_r+0xa50>
    8e74:	46b3      	mov	fp, r6
    8e76:	f8dd a008 	ldr.w	sl, [sp, #8]
    8e7a:	9e10      	ldr	r6, [sp, #64]	; 0x40
    8e7c:	2510      	movs	r5, #16
    8e7e:	e002      	b.n	8e86 <_vfprintf_r+0xa1e>
    8e80:	3c10      	subs	r4, #16
    8e82:	2c10      	cmp	r4, #16
    8e84:	dd17      	ble.n	8eb6 <_vfprintf_r+0xa4e>
    8e86:	3301      	adds	r3, #1
    8e88:	3210      	adds	r2, #16
    8e8a:	2b07      	cmp	r3, #7
    8e8c:	e9c7 6500 	strd	r6, r5, [r7]
    8e90:	e9cd 3223 	strd	r3, r2, [sp, #140]	; 0x8c
    8e94:	bfd8      	it	le
    8e96:	3708      	addle	r7, #8
    8e98:	ddf2      	ble.n	8e80 <_vfprintf_r+0xa18>
    8e9a:	aa22      	add	r2, sp, #136	; 0x88
    8e9c:	4649      	mov	r1, r9
    8e9e:	4650      	mov	r0, sl
    8ea0:	af25      	add	r7, sp, #148	; 0x94
    8ea2:	f004 f98d 	bl	d1c0 <__sprint_r>
    8ea6:	2800      	cmp	r0, #0
    8ea8:	f47f af2c 	bne.w	8d04 <_vfprintf_r+0x89c>
    8eac:	3c10      	subs	r4, #16
    8eae:	e9dd 3223 	ldrd	r3, r2, [sp, #140]	; 0x8c
    8eb2:	2c10      	cmp	r4, #16
    8eb4:	dce7      	bgt.n	8e86 <_vfprintf_r+0xa1e>
    8eb6:	465e      	mov	r6, fp
    8eb8:	3301      	adds	r3, #1
    8eba:	9910      	ldr	r1, [sp, #64]	; 0x40
    8ebc:	4422      	add	r2, r4
    8ebe:	2b07      	cmp	r3, #7
    8ec0:	607c      	str	r4, [r7, #4]
    8ec2:	6039      	str	r1, [r7, #0]
    8ec4:	e9cd 3223 	strd	r3, r2, [sp, #140]	; 0x8c
    8ec8:	f77f ac7a 	ble.w	87c0 <_vfprintf_r+0x358>
    8ecc:	9802      	ldr	r0, [sp, #8]
    8ece:	aa22      	add	r2, sp, #136	; 0x88
    8ed0:	4649      	mov	r1, r9
    8ed2:	f004 f975 	bl	d1c0 <__sprint_r>
    8ed6:	2800      	cmp	r0, #0
    8ed8:	f47f af14 	bne.w	8d04 <_vfprintf_r+0x89c>
    8edc:	9a24      	ldr	r2, [sp, #144]	; 0x90
    8ede:	e46f      	b.n	87c0 <_vfprintf_r+0x358>
    8ee0:	46b3      	mov	fp, r6
    8ee2:	9906      	ldr	r1, [sp, #24]
    8ee4:	b111      	cbz	r1, 8eec <_vfprintf_r+0xa84>
    8ee6:	9802      	ldr	r0, [sp, #8]
    8ee8:	f002 fa6c 	bl	b3c4 <_free_r>
    8eec:	f8db 3064 	ldr.w	r3, [fp, #100]	; 0x64
    8ef0:	f013 0f01 	tst.w	r3, #1
    8ef4:	f8bb 300c 	ldrh.w	r3, [fp, #12]
    8ef8:	d102      	bne.n	8f00 <_vfprintf_r+0xa98>
    8efa:	059a      	lsls	r2, r3, #22
    8efc:	f140 8291 	bpl.w	9422 <_vfprintf_r+0xfba>
    8f00:	065b      	lsls	r3, r3, #25
    8f02:	f100 869b 	bmi.w	9c3c <_vfprintf_r+0x17d4>
    8f06:	9804      	ldr	r0, [sp, #16]
    8f08:	b04f      	add	sp, #316	; 0x13c
    8f0a:	ecbd 8b04 	vpop	{d8-d9}
    8f0e:	e8bd 8ff0 	ldmia.w	sp!, {r4, r5, r6, r7, r8, r9, sl, fp, pc}
    8f12:	f8cd b014 	str.w	fp, [sp, #20]
    8f16:	2c0a      	cmp	r4, #10
    8f18:	f176 0300 	sbcs.w	r3, r6, #0
    8f1c:	f080 82c9 	bcs.w	94b2 <_vfprintf_r+0x104a>
    8f20:	2301      	movs	r3, #1
    8f22:	f8dd b014 	ldr.w	fp, [sp, #20]
    8f26:	3430      	adds	r4, #48	; 0x30
    8f28:	9305      	str	r3, [sp, #20]
    8f2a:	f88d 4137 	strb.w	r4, [sp, #311]	; 0x137
    8f2e:	f20d 1337 	addw	r3, sp, #311	; 0x137
    8f32:	9308      	str	r3, [sp, #32]
    8f34:	e52c      	b.n	8990 <_vfprintf_r+0x528>
    8f36:	991c      	ldr	r1, [sp, #112]	; 0x70
    8f38:	2900      	cmp	r1, #0
    8f3a:	f340 810a 	ble.w	9152 <_vfprintf_r+0xcea>
    8f3e:	9c0b      	ldr	r4, [sp, #44]	; 0x2c
    8f40:	9b0d      	ldr	r3, [sp, #52]	; 0x34
    8f42:	429c      	cmp	r4, r3
    8f44:	bfa8      	it	ge
    8f46:	461c      	movge	r4, r3
    8f48:	2c00      	cmp	r4, #0
    8f4a:	dd0c      	ble.n	8f66 <_vfprintf_r+0xafe>
    8f4c:	9b08      	ldr	r3, [sp, #32]
    8f4e:	4422      	add	r2, r4
    8f50:	e9c7 3400 	strd	r3, r4, [r7]
    8f54:	9b23      	ldr	r3, [sp, #140]	; 0x8c
    8f56:	9224      	str	r2, [sp, #144]	; 0x90
    8f58:	3301      	adds	r3, #1
    8f5a:	9323      	str	r3, [sp, #140]	; 0x8c
    8f5c:	2b07      	cmp	r3, #7
    8f5e:	bfd8      	it	le
    8f60:	3708      	addle	r7, #8
    8f62:	f300 85b0 	bgt.w	9ac6 <_vfprintf_r+0x165e>
    8f66:	9b0b      	ldr	r3, [sp, #44]	; 0x2c
    8f68:	ea24 74e4 	bic.w	r4, r4, r4, asr #31
    8f6c:	1b1c      	subs	r4, r3, r4
    8f6e:	2c00      	cmp	r4, #0
    8f70:	f300 82fd 	bgt.w	956e <_vfprintf_r+0x1106>
    8f74:	9b0b      	ldr	r3, [sp, #44]	; 0x2c
    8f76:	f41b 6f80 	tst.w	fp, #1024	; 0x400
    8f7a:	9908      	ldr	r1, [sp, #32]
    8f7c:	440b      	add	r3, r1
    8f7e:	469a      	mov	sl, r3
    8f80:	f040 84ed 	bne.w	995e <_vfprintf_r+0x14f6>
    8f84:	9c1c      	ldr	r4, [sp, #112]	; 0x70
    8f86:	9b0d      	ldr	r3, [sp, #52]	; 0x34
    8f88:	429c      	cmp	r4, r3
    8f8a:	db03      	blt.n	8f94 <_vfprintf_r+0xb2c>
    8f8c:	f01b 0f01 	tst.w	fp, #1
    8f90:	f000 843b 	beq.w	980a <_vfprintf_r+0x13a2>
    8f94:	9b12      	ldr	r3, [sp, #72]	; 0x48
    8f96:	9913      	ldr	r1, [sp, #76]	; 0x4c
    8f98:	441a      	add	r2, r3
    8f9a:	e9c7 1300 	strd	r1, r3, [r7]
    8f9e:	9b23      	ldr	r3, [sp, #140]	; 0x8c
    8fa0:	9224      	str	r2, [sp, #144]	; 0x90
    8fa2:	3301      	adds	r3, #1
    8fa4:	9323      	str	r3, [sp, #140]	; 0x8c
    8fa6:	2b07      	cmp	r3, #7
    8fa8:	bfd8      	it	le
    8faa:	3708      	addle	r7, #8
    8fac:	f300 85c4 	bgt.w	9b38 <_vfprintf_r+0x16d0>
    8fb0:	9b0d      	ldr	r3, [sp, #52]	; 0x34
    8fb2:	9d08      	ldr	r5, [sp, #32]
    8fb4:	1b1c      	subs	r4, r3, r4
    8fb6:	441d      	add	r5, r3
    8fb8:	eba5 050a 	sub.w	r5, r5, sl
    8fbc:	42a5      	cmp	r5, r4
    8fbe:	bfa8      	it	ge
    8fc0:	4625      	movge	r5, r4
    8fc2:	2d00      	cmp	r5, #0
    8fc4:	dd0c      	ble.n	8fe0 <_vfprintf_r+0xb78>
    8fc6:	9b23      	ldr	r3, [sp, #140]	; 0x8c
    8fc8:	442a      	add	r2, r5
    8fca:	f8c7 a000 	str.w	sl, [r7]
    8fce:	3301      	adds	r3, #1
    8fd0:	607d      	str	r5, [r7, #4]
    8fd2:	2b07      	cmp	r3, #7
    8fd4:	9224      	str	r2, [sp, #144]	; 0x90
    8fd6:	bfd8      	it	le
    8fd8:	3708      	addle	r7, #8
    8fda:	9323      	str	r3, [sp, #140]	; 0x8c
    8fdc:	f300 85eb 	bgt.w	9bb6 <_vfprintf_r+0x174e>
    8fe0:	ea25 75e5 	bic.w	r5, r5, r5, asr #31
    8fe4:	1b64      	subs	r4, r4, r5
    8fe6:	2c00      	cmp	r4, #0
    8fe8:	f77f abe2 	ble.w	87b0 <_vfprintf_r+0x348>
    8fec:	9b23      	ldr	r3, [sp, #140]	; 0x8c
    8fee:	2c10      	cmp	r4, #16
    8ff0:	f340 8254 	ble.w	949c <_vfprintf_r+0x1034>
    8ff4:	9605      	str	r6, [sp, #20]
    8ff6:	2510      	movs	r5, #16
    8ff8:	464e      	mov	r6, r9
    8ffa:	f8dd a008 	ldr.w	sl, [sp, #8]
    8ffe:	f8dd 9038 	ldr.w	r9, [sp, #56]	; 0x38
    9002:	e003      	b.n	900c <_vfprintf_r+0xba4>
    9004:	3c10      	subs	r4, #16
    9006:	2c10      	cmp	r4, #16
    9008:	f340 8246 	ble.w	9498 <_vfprintf_r+0x1030>
    900c:	3301      	adds	r3, #1
    900e:	3210      	adds	r2, #16
    9010:	2b07      	cmp	r3, #7
    9012:	e9c7 9500 	strd	r9, r5, [r7]
    9016:	e9cd 3223 	strd	r3, r2, [sp, #140]	; 0x8c
    901a:	bfd8      	it	le
    901c:	3708      	addle	r7, #8
    901e:	ddf1      	ble.n	9004 <_vfprintf_r+0xb9c>
    9020:	aa22      	add	r2, sp, #136	; 0x88
    9022:	4631      	mov	r1, r6
    9024:	4650      	mov	r0, sl
    9026:	af25      	add	r7, sp, #148	; 0x94
    9028:	f004 f8ca 	bl	d1c0 <__sprint_r>
    902c:	2800      	cmp	r0, #0
    902e:	f47f af57 	bne.w	8ee0 <_vfprintf_r+0xa78>
    9032:	e9dd 3223 	ldrd	r3, r2, [sp, #140]	; 0x8c
    9036:	e7e5      	b.n	9004 <_vfprintf_r+0xb9c>
    9038:	ab4e      	add	r3, sp, #312	; 0x138
    903a:	9308      	str	r3, [sp, #32]
    903c:	e4a8      	b.n	8990 <_vfprintf_r+0x528>
    903e:	f01b 0f01 	tst.w	fp, #1
    9042:	f47f ae65 	bne.w	8d10 <_vfprintf_r+0x8a8>
    9046:	9b08      	ldr	r3, [sp, #32]
    9048:	3201      	adds	r2, #1
    904a:	603b      	str	r3, [r7, #0]
    904c:	2101      	movs	r1, #1
    904e:	9b23      	ldr	r3, [sp, #140]	; 0x8c
    9050:	9224      	str	r2, [sp, #144]	; 0x90
    9052:	3301      	adds	r3, #1
    9054:	6079      	str	r1, [r7, #4]
    9056:	2b07      	cmp	r3, #7
    9058:	9323      	str	r3, [sp, #140]	; 0x8c
    905a:	f77f ae89 	ble.w	8d70 <_vfprintf_r+0x908>
    905e:	9802      	ldr	r0, [sp, #8]
    9060:	aa22      	add	r2, sp, #136	; 0x88
    9062:	4649      	mov	r1, r9
    9064:	f004 f8ac 	bl	d1c0 <__sprint_r>
    9068:	2800      	cmp	r0, #0
    906a:	f47f ae4b 	bne.w	8d04 <_vfprintf_r+0x89c>
    906e:	e9dd 3223 	ldrd	r3, r2, [sp, #140]	; 0x8c
    9072:	af25      	add	r7, sp, #148	; 0x94
    9074:	e67d      	b.n	8d72 <_vfprintf_r+0x90a>
    9076:	990d      	ldr	r1, [sp, #52]	; 0x34
    9078:	1e4c      	subs	r4, r1, #1
    907a:	2c00      	cmp	r4, #0
    907c:	f77f ae79 	ble.w	8d72 <_vfprintf_r+0x90a>
    9080:	2c10      	cmp	r4, #16
    9082:	f340 82ac 	ble.w	95de <_vfprintf_r+0x1176>
    9086:	9605      	str	r6, [sp, #20]
    9088:	2510      	movs	r5, #16
    908a:	464e      	mov	r6, r9
    908c:	f8dd a008 	ldr.w	sl, [sp, #8]
    9090:	f8dd 9038 	ldr.w	r9, [sp, #56]	; 0x38
    9094:	e003      	b.n	909e <_vfprintf_r+0xc36>
    9096:	3c10      	subs	r4, #16
    9098:	2c10      	cmp	r4, #16
    909a:	f340 829e 	ble.w	95da <_vfprintf_r+0x1172>
    909e:	3301      	adds	r3, #1
    90a0:	3210      	adds	r2, #16
    90a2:	2b07      	cmp	r3, #7
    90a4:	e9c7 9500 	strd	r9, r5, [r7]
    90a8:	e9cd 3223 	strd	r3, r2, [sp, #140]	; 0x8c
    90ac:	bfd8      	it	le
    90ae:	3708      	addle	r7, #8
    90b0:	ddf1      	ble.n	9096 <_vfprintf_r+0xc2e>
    90b2:	aa22      	add	r2, sp, #136	; 0x88
    90b4:	4631      	mov	r1, r6
    90b6:	4650      	mov	r0, sl
    90b8:	f004 f882 	bl	d1c0 <__sprint_r>
    90bc:	2800      	cmp	r0, #0
    90be:	f47f af0f 	bne.w	8ee0 <_vfprintf_r+0xa78>
    90c2:	e9dd 3223 	ldrd	r3, r2, [sp, #140]	; 0x8c
    90c6:	af25      	add	r7, sp, #148	; 0x94
    90c8:	e7e5      	b.n	9096 <_vfprintf_r+0xc2e>
    90ca:	9b05      	ldr	r3, [sp, #20]
    90cc:	f013 0310 	ands.w	r3, r3, #16
    90d0:	f040 811a 	bne.w	9308 <_vfprintf_r+0xea0>
    90d4:	9a05      	ldr	r2, [sp, #20]
    90d6:	f012 0240 	ands.w	r2, r2, #64	; 0x40
    90da:	f000 828b 	beq.w	95f4 <_vfprintf_r+0x118c>
    90de:	9907      	ldr	r1, [sp, #28]
    90e0:	461e      	mov	r6, r3
    90e2:	2201      	movs	r2, #1
    90e4:	f851 4b04 	ldr.w	r4, [r1], #4
    90e8:	9107      	str	r1, [sp, #28]
    90ea:	b2a4      	uxth	r4, r4
    90ec:	e42b      	b.n	8946 <_vfprintf_r+0x4de>
    90ee:	f01b 0310 	ands.w	r3, fp, #16
    90f2:	d17d      	bne.n	91f0 <_vfprintf_r+0xd88>
    90f4:	f01b 0240 	ands.w	r2, fp, #64	; 0x40
    90f8:	f000 8295 	beq.w	9626 <_vfprintf_r+0x11be>
    90fc:	9a07      	ldr	r2, [sp, #28]
    90fe:	461e      	mov	r6, r3
    9100:	f852 4b04 	ldr.w	r4, [r2], #4
    9104:	9207      	str	r2, [sp, #28]
    9106:	b2a4      	uxth	r4, r4
    9108:	e419      	b.n	893e <_vfprintf_r+0x4d6>
    910a:	f853 4b04 	ldr.w	r4, [r3], #4
    910e:	f01b 0f10 	tst.w	fp, #16
    9112:	9307      	str	r3, [sp, #28]
    9114:	d153      	bne.n	91be <_vfprintf_r+0xd56>
    9116:	f01b 0f40 	tst.w	fp, #64	; 0x40
    911a:	d04c      	beq.n	91b6 <_vfprintf_r+0xd4e>
    911c:	b224      	sxth	r4, r4
    911e:	17e6      	asrs	r6, r4, #31
    9120:	4633      	mov	r3, r6
    9122:	f7ff bbae 	b.w	8882 <_vfprintf_r+0x41a>
    9126:	4264      	negs	r4, r4
    9128:	f04f 032d 	mov.w	r3, #45	; 0x2d
    912c:	f04f 0201 	mov.w	r2, #1
    9130:	f8cd b014 	str.w	fp, [sp, #20]
    9134:	eb66 0646 	sbc.w	r6, r6, r6, lsl #1
    9138:	f88d 306b 	strb.w	r3, [sp, #107]	; 0x6b
    913c:	e406      	b.n	894c <_vfprintf_r+0x4e4>
    913e:	f01b 0f01 	tst.w	fp, #1
    9142:	f43f ab35 	beq.w	87b0 <_vfprintf_r+0x348>
    9146:	e4ea      	b.n	8b1e <_vfprintf_r+0x6b6>
    9148:	f898 5000 	ldrb.w	r5, [r8]
    914c:	9307      	str	r3, [sp, #28]
    914e:	f7ff ba13 	b.w	8578 <_vfprintf_r+0x110>
    9152:	9b23      	ldr	r3, [sp, #140]	; 0x8c
    9154:	2001      	movs	r0, #1
    9156:	3201      	adds	r2, #1
    9158:	6078      	str	r0, [r7, #4]
    915a:	3301      	adds	r3, #1
    915c:	f643 3014 	movw	r0, #15124	; 0x3b14
    9160:	f2c0 0002 	movt	r0, #2
    9164:	2b07      	cmp	r3, #7
    9166:	6038      	str	r0, [r7, #0]
    9168:	bfd8      	it	le
    916a:	3708      	addle	r7, #8
    916c:	9224      	str	r2, [sp, #144]	; 0x90
    916e:	9323      	str	r3, [sp, #140]	; 0x8c
    9170:	f300 849c 	bgt.w	9aac <_vfprintf_r+0x1644>
    9174:	9b0d      	ldr	r3, [sp, #52]	; 0x34
    9176:	430b      	orrs	r3, r1
    9178:	f000 84bf 	beq.w	9afa <_vfprintf_r+0x1692>
    917c:	9b12      	ldr	r3, [sp, #72]	; 0x48
    917e:	9813      	ldr	r0, [sp, #76]	; 0x4c
    9180:	441a      	add	r2, r3
    9182:	e9c7 0300 	strd	r0, r3, [r7]
    9186:	9b23      	ldr	r3, [sp, #140]	; 0x8c
    9188:	9224      	str	r2, [sp, #144]	; 0x90
    918a:	3301      	adds	r3, #1
    918c:	9323      	str	r3, [sp, #140]	; 0x8c
    918e:	2b07      	cmp	r3, #7
    9190:	bfd8      	it	le
    9192:	3708      	addle	r7, #8
    9194:	f300 84a3 	bgt.w	9ade <_vfprintf_r+0x1676>
    9198:	2900      	cmp	r1, #0
    919a:	f2c0 851b 	blt.w	9bd4 <_vfprintf_r+0x176c>
    919e:	9908      	ldr	r1, [sp, #32]
    91a0:	3301      	adds	r3, #1
    91a2:	6039      	str	r1, [r7, #0]
    91a4:	2b07      	cmp	r3, #7
    91a6:	990d      	ldr	r1, [sp, #52]	; 0x34
    91a8:	6079      	str	r1, [r7, #4]
    91aa:	440a      	add	r2, r1
    91ac:	e9cd 3223 	strd	r3, r2, [sp, #140]	; 0x8c
    91b0:	f77f aafd 	ble.w	87ae <_vfprintf_r+0x346>
    91b4:	e5e8      	b.n	8d88 <_vfprintf_r+0x920>
    91b6:	f41b 7f00 	tst.w	fp, #512	; 0x200
    91ba:	f040 8331 	bne.w	9820 <_vfprintf_r+0x13b8>
    91be:	17e6      	asrs	r6, r4, #31
    91c0:	4633      	mov	r3, r6
    91c2:	f7ff bb5e 	b.w	8882 <_vfprintf_r+0x41a>
    91c6:	9b07      	ldr	r3, [sp, #28]
    91c8:	9804      	ldr	r0, [sp, #16]
    91ca:	f853 1b04 	ldr.w	r1, [r3], #4
    91ce:	17c2      	asrs	r2, r0, #31
    91d0:	9307      	str	r3, [sp, #28]
    91d2:	e9c1 0200 	strd	r0, r2, [r1]
    91d6:	f7ff b99f 	b.w	8518 <_vfprintf_r+0xb0>
    91da:	9b11      	ldr	r3, [sp, #68]	; 0x44
    91dc:	781b      	ldrb	r3, [r3, #0]
    91de:	2b00      	cmp	r3, #0
    91e0:	f43f aa50 	beq.w	8684 <_vfprintf_r+0x21c>
    91e4:	f898 5000 	ldrb.w	r5, [r8]
    91e8:	f44b 6b80 	orr.w	fp, fp, #1024	; 0x400
    91ec:	f7ff b9c4 	b.w	8578 <_vfprintf_r+0x110>
    91f0:	9b07      	ldr	r3, [sp, #28]
    91f2:	f853 4b04 	ldr.w	r4, [r3], #4
    91f6:	9307      	str	r3, [sp, #28]
    91f8:	f7ff bba1 	b.w	893e <_vfprintf_r+0x4d6>
    91fc:	eeb4 8b48 	vcmp.f64	d8, d8
    9200:	eef1 fa10 	vmrs	APSR_nzcv, fpscr
    9204:	f180 85b0 	bvs.w	9d68 <_vfprintf_r+0x1900>
    9208:	f025 0420 	bic.w	r4, r5, #32
    920c:	2c41      	cmp	r4, #65	; 0x41
    920e:	f040 8216 	bne.w	963e <_vfprintf_r+0x11d6>
    9212:	2d61      	cmp	r5, #97	; 0x61
    9214:	f04f 0330 	mov.w	r3, #48	; 0x30
    9218:	f88d 306c 	strb.w	r3, [sp, #108]	; 0x6c
    921c:	f04f 0378 	mov.w	r3, #120	; 0x78
    9220:	bf18      	it	ne
    9222:	2358      	movne	r3, #88	; 0x58
    9224:	f1ba 0f63 	cmp.w	sl, #99	; 0x63
    9228:	f88d 306d 	strb.w	r3, [sp, #109]	; 0x6d
    922c:	f300 834d 	bgt.w	98ca <_vfprintf_r+0x1462>
    9230:	2300      	movs	r3, #0
    9232:	9306      	str	r3, [sp, #24]
    9234:	ab35      	add	r3, sp, #212	; 0xd4
    9236:	9308      	str	r3, [sp, #32]
    9238:	ee18 3a90 	vmov	r3, s17
    923c:	2b00      	cmp	r3, #0
    923e:	f280 84f7 	bge.w	9c30 <_vfprintf_r+0x17c8>
    9242:	eeb1 0b48 	vneg.f64	d0, d8
    9246:	232d      	movs	r3, #45	; 0x2d
    9248:	9309      	str	r3, [sp, #36]	; 0x24
    924a:	a81c      	add	r0, sp, #112	; 0x70
    924c:	f003 fe38 	bl	cec0 <frexp>
    9250:	eef4 0b00 	vmov.f64	d16, #64	; 0x3e000000  0.125
    9254:	ee20 0b20 	vmul.f64	d0, d0, d16
    9258:	eeb5 0b40 	vcmp.f64	d0, #0.0
    925c:	eef1 fa10 	vmrs	APSR_nzcv, fpscr
    9260:	d101      	bne.n	9266 <_vfprintf_r+0xdfe>
    9262:	2301      	movs	r3, #1
    9264:	931c      	str	r3, [sp, #112]	; 0x70
    9266:	f643 20e4 	movw	r0, #15076	; 0x3ae4
    926a:	f2c0 0002 	movt	r0, #2
    926e:	f643 22f8 	movw	r2, #15096	; 0x3af8
    9272:	f2c0 0202 	movt	r2, #2
    9276:	2d61      	cmp	r5, #97	; 0x61
    9278:	bf18      	it	ne
    927a:	4610      	movne	r0, r2
    927c:	f10a 33ff 	add.w	r3, sl, #4294967295	; 0xffffffff
    9280:	9a08      	ldr	r2, [sp, #32]
    9282:	eef3 1b00 	vmov.f64	d17, #48	; 0x41800000  16.0
    9286:	e004      	b.n	9292 <_vfprintf_r+0xe2a>
    9288:	eeb5 0b40 	vcmp.f64	d0, #0.0
    928c:	eef1 fa10 	vmrs	APSR_nzcv, fpscr
    9290:	d014      	beq.n	92bc <_vfprintf_r+0xe54>
    9292:	ee20 0b21 	vmul.f64	d0, d0, d17
    9296:	4616      	mov	r6, r2
    9298:	4619      	mov	r1, r3
    929a:	f1b3 3fff 	cmp.w	r3, #4294967295	; 0xffffffff
    929e:	f103 33ff 	add.w	r3, r3, #4294967295	; 0xffffffff
    92a2:	eefd 7bc0 	vcvt.s32.f64	s15, d0
    92a6:	ee17 ca90 	vmov	ip, s15
    92aa:	eef8 0be7 	vcvt.f64.s32	d16, s15
    92ae:	f810 c00c 	ldrb.w	ip, [r0, ip]
    92b2:	ee30 0b60 	vsub.f64	d0, d0, d16
    92b6:	f802 cb01 	strb.w	ip, [r2], #1
    92ba:	d1e5      	bne.n	9288 <_vfprintf_r+0xe20>
    92bc:	eef6 0b00 	vmov.f64	d16, #96	; 0x3f000000  0.5
    92c0:	eeb4 0be0 	vcmpe.f64	d0, d16
    92c4:	eef1 fa10 	vmrs	APSR_nzcv, fpscr
    92c8:	f300 8531 	bgt.w	9d2e <_vfprintf_r+0x18c6>
    92cc:	eeb4 0b60 	vcmp.f64	d0, d16
    92d0:	eef1 fa10 	vmrs	APSR_nzcv, fpscr
    92d4:	d104      	bne.n	92e0 <_vfprintf_r+0xe78>
    92d6:	ee17 3a90 	vmov	r3, s15
    92da:	07db      	lsls	r3, r3, #31
    92dc:	f100 8527 	bmi.w	9d2e <_vfprintf_r+0x18c6>
    92e0:	2900      	cmp	r1, #0
    92e2:	bfa8      	it	ge
    92e4:	1c4b      	addge	r3, r1, #1
    92e6:	bfa8      	it	ge
    92e8:	2130      	movge	r1, #48	; 0x30
    92ea:	bfa8      	it	ge
    92ec:	189b      	addge	r3, r3, r2
    92ee:	db03      	blt.n	92f8 <_vfprintf_r+0xe90>
    92f0:	f802 1b01 	strb.w	r1, [r2], #1
    92f4:	4293      	cmp	r3, r2
    92f6:	d1fb      	bne.n	92f0 <_vfprintf_r+0xe88>
    92f8:	9b08      	ldr	r3, [sp, #32]
    92fa:	f04b 0b02 	orr.w	fp, fp, #2
    92fe:	1ad3      	subs	r3, r2, r3
    9300:	930d      	str	r3, [sp, #52]	; 0x34
    9302:	9b1c      	ldr	r3, [sp, #112]	; 0x70
    9304:	930b      	str	r3, [sp, #44]	; 0x2c
    9306:	e1f4      	b.n	96f2 <_vfprintf_r+0x128a>
    9308:	9b07      	ldr	r3, [sp, #28]
    930a:	2201      	movs	r2, #1
    930c:	f853 4b04 	ldr.w	r4, [r3], #4
    9310:	9307      	str	r3, [sp, #28]
    9312:	f7ff bb18 	b.w	8946 <_vfprintf_r+0x4de>
    9316:	f8cd b014 	str.w	fp, [sp, #20]
    931a:	f7ff bb8a 	b.w	8a32 <_vfprintf_r+0x5ca>
    931e:	f643 23e4 	movw	r3, #15076	; 0x3ae4
    9322:	f2c0 0302 	movt	r3, #2
    9326:	9314      	str	r3, [sp, #80]	; 0x50
    9328:	f01b 0620 	ands.w	r6, fp, #32
    932c:	d04a      	beq.n	93c4 <_vfprintf_r+0xf5c>
    932e:	9b07      	ldr	r3, [sp, #28]
    9330:	3307      	adds	r3, #7
    9332:	f023 0307 	bic.w	r3, r3, #7
    9336:	685e      	ldr	r6, [r3, #4]
    9338:	f853 4b08 	ldr.w	r4, [r3], #8
    933c:	9307      	str	r3, [sp, #28]
    933e:	ea54 0306 	orrs.w	r3, r4, r6
    9342:	f00b 0301 	and.w	r3, fp, #1
    9346:	bf08      	it	eq
    9348:	2300      	moveq	r3, #0
    934a:	2b00      	cmp	r3, #0
    934c:	d149      	bne.n	93e2 <_vfprintf_r+0xf7a>
    934e:	f42b 6380 	bic.w	r3, fp, #1024	; 0x400
    9352:	2202      	movs	r2, #2
    9354:	9305      	str	r3, [sp, #20]
    9356:	f7ff baf6 	b.w	8946 <_vfprintf_r+0x4de>
    935a:	f643 23f8 	movw	r3, #15096	; 0x3af8
    935e:	f2c0 0302 	movt	r3, #2
    9362:	9314      	str	r3, [sp, #80]	; 0x50
    9364:	e7e0      	b.n	9328 <_vfprintf_r+0xec0>
    9366:	9802      	ldr	r0, [sp, #8]
    9368:	aa22      	add	r2, sp, #136	; 0x88
    936a:	4649      	mov	r1, r9
    936c:	f003 ff28 	bl	d1c0 <__sprint_r>
    9370:	2800      	cmp	r0, #0
    9372:	f47f acc7 	bne.w	8d04 <_vfprintf_r+0x89c>
    9376:	9a24      	ldr	r2, [sp, #144]	; 0x90
    9378:	af25      	add	r7, sp, #148	; 0x94
    937a:	f7ff bbde 	b.w	8b3a <_vfprintf_r+0x6d2>
    937e:	f898 5001 	ldrb.w	r5, [r8, #1]
    9382:	f04b 0b20 	orr.w	fp, fp, #32
    9386:	f108 0801 	add.w	r8, r8, #1
    938a:	f7ff b8f5 	b.w	8578 <_vfprintf_r+0x110>
    938e:	f898 5001 	ldrb.w	r5, [r8, #1]
    9392:	f44b 7b00 	orr.w	fp, fp, #512	; 0x200
    9396:	f108 0801 	add.w	r8, r8, #1
    939a:	f7ff b8ed 	b.w	8578 <_vfprintf_r+0x110>
    939e:	4656      	mov	r6, sl
    93a0:	4619      	mov	r1, r3
    93a2:	2e06      	cmp	r6, #6
    93a4:	469a      	mov	sl, r3
    93a6:	bf28      	it	cs
    93a8:	2606      	movcs	r6, #6
    93aa:	9407      	str	r4, [sp, #28]
    93ac:	e9cd 6305 	strd	r6, r3, [sp, #20]
    93b0:	f643 330c 	movw	r3, #15116	; 0x3b0c
    93b4:	f2c0 0302 	movt	r3, #2
    93b8:	910f      	str	r1, [sp, #60]	; 0x3c
    93ba:	9308      	str	r3, [sp, #32]
    93bc:	e9cd 110b 	strd	r1, r1, [sp, #44]	; 0x2c
    93c0:	f7ff ba41 	b.w	8846 <_vfprintf_r+0x3de>
    93c4:	f01b 0310 	ands.w	r3, fp, #16
    93c8:	d042      	beq.n	9450 <_vfprintf_r+0xfe8>
    93ca:	9b07      	ldr	r3, [sp, #28]
    93cc:	f853 4b04 	ldr.w	r4, [r3], #4
    93d0:	9307      	str	r3, [sp, #28]
    93d2:	ea54 0306 	orrs.w	r3, r4, r6
    93d6:	f00b 0301 	and.w	r3, fp, #1
    93da:	bf08      	it	eq
    93dc:	2300      	moveq	r3, #0
    93de:	2b00      	cmp	r3, #0
    93e0:	d0b5      	beq.n	934e <_vfprintf_r+0xee6>
    93e2:	2330      	movs	r3, #48	; 0x30
    93e4:	f04b 0b02 	orr.w	fp, fp, #2
    93e8:	f88d 506d 	strb.w	r5, [sp, #109]	; 0x6d
    93ec:	f88d 306c 	strb.w	r3, [sp, #108]	; 0x6c
    93f0:	e7ad      	b.n	934e <_vfprintf_r+0xee6>
    93f2:	9802      	ldr	r0, [sp, #8]
    93f4:	aa22      	add	r2, sp, #136	; 0x88
    93f6:	4649      	mov	r1, r9
    93f8:	f003 fee2 	bl	d1c0 <__sprint_r>
    93fc:	2800      	cmp	r0, #0
    93fe:	f47f ac81 	bne.w	8d04 <_vfprintf_r+0x89c>
    9402:	e9dd 3223 	ldrd	r3, r2, [sp, #140]	; 0x8c
    9406:	af25      	add	r7, sp, #148	; 0x94
    9408:	e49d      	b.n	8d46 <_vfprintf_r+0x8de>
    940a:	9802      	ldr	r0, [sp, #8]
    940c:	aa22      	add	r2, sp, #136	; 0x88
    940e:	4649      	mov	r1, r9
    9410:	f003 fed6 	bl	d1c0 <__sprint_r>
    9414:	2800      	cmp	r0, #0
    9416:	f47f ac75 	bne.w	8d04 <_vfprintf_r+0x89c>
    941a:	e9dd 3223 	ldrd	r3, r2, [sp, #140]	; 0x8c
    941e:	af25      	add	r7, sp, #148	; 0x94
    9420:	e484      	b.n	8d2c <_vfprintf_r+0x8c4>
    9422:	f8db 0058 	ldr.w	r0, [fp, #88]	; 0x58
    9426:	f002 f935 	bl	b694 <__retarget_lock_release_recursive>
    942a:	f8bb 300c 	ldrh.w	r3, [fp, #12]
    942e:	e567      	b.n	8f00 <_vfprintf_r+0xa98>
    9430:	9802      	ldr	r0, [sp, #8]
    9432:	aa22      	add	r2, sp, #136	; 0x88
    9434:	4649      	mov	r1, r9
    9436:	f003 fec3 	bl	d1c0 <__sprint_r>
    943a:	2800      	cmp	r0, #0
    943c:	f47f ac62 	bne.w	8d04 <_vfprintf_r+0x89c>
    9440:	f89d 106b 	ldrb.w	r1, [sp, #107]	; 0x6b
    9444:	af25      	add	r7, sp, #148	; 0x94
    9446:	9a24      	ldr	r2, [sp, #144]	; 0x90
    9448:	f7ff b977 	b.w	873a <_vfprintf_r+0x2d2>
    944c:	46c3      	mov	fp, r8
    944e:	e548      	b.n	8ee2 <_vfprintf_r+0xa7a>
    9450:	f01b 0240 	ands.w	r2, fp, #64	; 0x40
    9454:	f000 80dc 	beq.w	9610 <_vfprintf_r+0x11a8>
    9458:	9a07      	ldr	r2, [sp, #28]
    945a:	461e      	mov	r6, r3
    945c:	f852 4b04 	ldr.w	r4, [r2], #4
    9460:	9207      	str	r2, [sp, #28]
    9462:	b2a4      	uxth	r4, r4
    9464:	e76b      	b.n	933e <_vfprintf_r+0xed6>
    9466:	9908      	ldr	r1, [sp, #32]
    9468:	3a02      	subs	r2, #2
    946a:	2330      	movs	r3, #48	; 0x30
    946c:	f8dd b014 	ldr.w	fp, [sp, #20]
    9470:	9208      	str	r2, [sp, #32]
    9472:	f801 3c01 	strb.w	r3, [r1, #-1]
    9476:	ab4e      	add	r3, sp, #312	; 0x138
    9478:	1a9b      	subs	r3, r3, r2
    947a:	9305      	str	r3, [sp, #20]
    947c:	f7ff ba88 	b.w	8990 <_vfprintf_r+0x528>
    9480:	9802      	ldr	r0, [sp, #8]
    9482:	aa22      	add	r2, sp, #136	; 0x88
    9484:	4649      	mov	r1, r9
    9486:	f003 fe9b 	bl	d1c0 <__sprint_r>
    948a:	2800      	cmp	r0, #0
    948c:	f47f ac3a 	bne.w	8d04 <_vfprintf_r+0x89c>
    9490:	9a24      	ldr	r2, [sp, #144]	; 0x90
    9492:	af25      	add	r7, sp, #148	; 0x94
    9494:	f7ff bb3e 	b.w	8b14 <_vfprintf_r+0x6ac>
    9498:	46b1      	mov	r9, r6
    949a:	9e05      	ldr	r6, [sp, #20]
    949c:	3301      	adds	r3, #1
    949e:	990e      	ldr	r1, [sp, #56]	; 0x38
    94a0:	4422      	add	r2, r4
    94a2:	607c      	str	r4, [r7, #4]
    94a4:	6039      	str	r1, [r7, #0]
    94a6:	2b07      	cmp	r3, #7
    94a8:	e9cd 3223 	strd	r3, r2, [sp, #140]	; 0x8c
    94ac:	f77f a97f 	ble.w	87ae <_vfprintf_r+0x346>
    94b0:	e46a      	b.n	8d88 <_vfprintf_r+0x920>
    94b2:	9b05      	ldr	r3, [sp, #20]
    94b4:	2200      	movs	r2, #0
    94b6:	9506      	str	r5, [sp, #24]
    94b8:	f50d 7b9c 	add.w	fp, sp, #312	; 0x138
    94bc:	f403 6380 	and.w	r3, r3, #1024	; 0x400
    94c0:	e9cd a709 	strd	sl, r7, [sp, #36]	; 0x24
    94c4:	f8cd 802c 	str.w	r8, [sp, #44]	; 0x2c
    94c8:	4615      	mov	r5, r2
    94ca:	f8dd 8044 	ldr.w	r8, [sp, #68]	; 0x44
    94ce:	469a      	mov	sl, r3
    94d0:	e00c      	b.n	94ec <_vfprintf_r+0x1084>
    94d2:	2300      	movs	r3, #0
    94d4:	4620      	mov	r0, r4
    94d6:	4631      	mov	r1, r6
    94d8:	220a      	movs	r2, #10
    94da:	f014 faaf 	bl	1da3c <__aeabi_uldivmod>
    94de:	2c0a      	cmp	r4, #10
    94e0:	f176 0300 	sbcs.w	r3, r6, #0
    94e4:	d321      	bcc.n	952a <_vfprintf_r+0x10c2>
    94e6:	4604      	mov	r4, r0
    94e8:	460e      	mov	r6, r1
    94ea:	46bb      	mov	fp, r7
    94ec:	4620      	mov	r0, r4
    94ee:	4631      	mov	r1, r6
    94f0:	220a      	movs	r2, #10
    94f2:	2300      	movs	r3, #0
    94f4:	f014 faa2 	bl	1da3c <__aeabi_uldivmod>
    94f8:	f10b 37ff 	add.w	r7, fp, #4294967295	; 0xffffffff
    94fc:	3230      	adds	r2, #48	; 0x30
    94fe:	3501      	adds	r5, #1
    9500:	f80b 2c01 	strb.w	r2, [fp, #-1]
    9504:	f1ba 0f00 	cmp.w	sl, #0
    9508:	d0e3      	beq.n	94d2 <_vfprintf_r+0x106a>
    950a:	f898 3000 	ldrb.w	r3, [r8]
    950e:	f1b3 02ff 	subs.w	r2, r3, #255	; 0xff
    9512:	bf18      	it	ne
    9514:	2201      	movne	r2, #1
    9516:	42ab      	cmp	r3, r5
    9518:	bf18      	it	ne
    951a:	2200      	movne	r2, #0
    951c:	2a00      	cmp	r2, #0
    951e:	d0d8      	beq.n	94d2 <_vfprintf_r+0x106a>
    9520:	2c0a      	cmp	r4, #10
    9522:	f176 0300 	sbcs.w	r3, r6, #0
    9526:	f080 8320 	bcs.w	9b6a <_vfprintf_r+0x1702>
    952a:	463a      	mov	r2, r7
    952c:	ab4e      	add	r3, sp, #312	; 0x138
    952e:	f8dd b014 	ldr.w	fp, [sp, #20]
    9532:	1a9b      	subs	r3, r3, r2
    9534:	9708      	str	r7, [sp, #32]
    9536:	f8cd 8044 	str.w	r8, [sp, #68]	; 0x44
    953a:	950d      	str	r5, [sp, #52]	; 0x34
    953c:	f8dd a024 	ldr.w	sl, [sp, #36]	; 0x24
    9540:	9f0a      	ldr	r7, [sp, #40]	; 0x28
    9542:	9d06      	ldr	r5, [sp, #24]
    9544:	f8dd 802c 	ldr.w	r8, [sp, #44]	; 0x2c
    9548:	9305      	str	r3, [sp, #20]
    954a:	f7ff ba21 	b.w	8990 <_vfprintf_r+0x528>
    954e:	9b07      	ldr	r3, [sp, #28]
    9550:	9904      	ldr	r1, [sp, #16]
    9552:	f853 2b04 	ldr.w	r2, [r3], #4
    9556:	6011      	str	r1, [r2, #0]
    9558:	9307      	str	r3, [sp, #28]
    955a:	f7fe bfdd 	b.w	8518 <_vfprintf_r+0xb0>
    955e:	9b24      	ldr	r3, [sp, #144]	; 0x90
    9560:	46cb      	mov	fp, r9
    9562:	2b00      	cmp	r3, #0
    9564:	f040 835a 	bne.w	9c1c <_vfprintf_r+0x17b4>
    9568:	2300      	movs	r3, #0
    956a:	9323      	str	r3, [sp, #140]	; 0x8c
    956c:	e4be      	b.n	8eec <_vfprintf_r+0xa84>
    956e:	9b23      	ldr	r3, [sp, #140]	; 0x8c
    9570:	2c10      	cmp	r4, #16
    9572:	f340 812d 	ble.w	97d0 <_vfprintf_r+0x1368>
    9576:	9605      	str	r6, [sp, #20]
    9578:	2510      	movs	r5, #16
    957a:	464e      	mov	r6, r9
    957c:	f8dd a008 	ldr.w	sl, [sp, #8]
    9580:	f8dd 9038 	ldr.w	r9, [sp, #56]	; 0x38
    9584:	e003      	b.n	958e <_vfprintf_r+0x1126>
    9586:	3c10      	subs	r4, #16
    9588:	2c10      	cmp	r4, #16
    958a:	f340 811f 	ble.w	97cc <_vfprintf_r+0x1364>
    958e:	3301      	adds	r3, #1
    9590:	3210      	adds	r2, #16
    9592:	2b07      	cmp	r3, #7
    9594:	e9c7 9500 	strd	r9, r5, [r7]
    9598:	e9cd 3223 	strd	r3, r2, [sp, #140]	; 0x8c
    959c:	bfd8      	it	le
    959e:	3708      	addle	r7, #8
    95a0:	ddf1      	ble.n	9586 <_vfprintf_r+0x111e>
    95a2:	aa22      	add	r2, sp, #136	; 0x88
    95a4:	4631      	mov	r1, r6
    95a6:	4650      	mov	r0, sl
    95a8:	af25      	add	r7, sp, #148	; 0x94
    95aa:	f003 fe09 	bl	d1c0 <__sprint_r>
    95ae:	2800      	cmp	r0, #0
    95b0:	f47f ac96 	bne.w	8ee0 <_vfprintf_r+0xa78>
    95b4:	e9dd 3223 	ldrd	r3, r2, [sp, #140]	; 0x8c
    95b8:	e7e5      	b.n	9586 <_vfprintf_r+0x111e>
    95ba:	9808      	ldr	r0, [sp, #32]
    95bc:	46b2      	mov	sl, r6
    95be:	9407      	str	r4, [sp, #28]
    95c0:	f003 fd1e 	bl	d000 <strlen>
    95c4:	9606      	str	r6, [sp, #24]
    95c6:	960f      	str	r6, [sp, #60]	; 0x3c
    95c8:	ea20 76e0 	bic.w	r6, r0, r0, asr #31
    95cc:	f89d 106b 	ldrb.w	r1, [sp, #107]	; 0x6b
    95d0:	9005      	str	r0, [sp, #20]
    95d2:	e9cd aa0b 	strd	sl, sl, [sp, #44]	; 0x2c
    95d6:	f7ff b936 	b.w	8846 <_vfprintf_r+0x3de>
    95da:	46b1      	mov	r9, r6
    95dc:	9e05      	ldr	r6, [sp, #20]
    95de:	3301      	adds	r3, #1
    95e0:	990e      	ldr	r1, [sp, #56]	; 0x38
    95e2:	4422      	add	r2, r4
    95e4:	2b07      	cmp	r3, #7
    95e6:	607c      	str	r4, [r7, #4]
    95e8:	6039      	str	r1, [r7, #0]
    95ea:	e9cd 3223 	strd	r3, r2, [sp, #140]	; 0x8c
    95ee:	f77f abbf 	ble.w	8d70 <_vfprintf_r+0x908>
    95f2:	e534      	b.n	905e <_vfprintf_r+0xbf6>
    95f4:	9b05      	ldr	r3, [sp, #20]
    95f6:	f413 7600 	ands.w	r6, r3, #512	; 0x200
    95fa:	9b07      	ldr	r3, [sp, #28]
    95fc:	f000 8126 	beq.w	984c <_vfprintf_r+0x13e4>
    9600:	f853 4b04 	ldr.w	r4, [r3], #4
    9604:	4616      	mov	r6, r2
    9606:	9307      	str	r3, [sp, #28]
    9608:	2201      	movs	r2, #1
    960a:	b2e4      	uxtb	r4, r4
    960c:	f7ff b99b 	b.w	8946 <_vfprintf_r+0x4de>
    9610:	9b07      	ldr	r3, [sp, #28]
    9612:	f41b 7600 	ands.w	r6, fp, #512	; 0x200
    9616:	f000 8115 	beq.w	9844 <_vfprintf_r+0x13dc>
    961a:	f853 4b04 	ldr.w	r4, [r3], #4
    961e:	4616      	mov	r6, r2
    9620:	9307      	str	r3, [sp, #28]
    9622:	b2e4      	uxtb	r4, r4
    9624:	e68b      	b.n	933e <_vfprintf_r+0xed6>
    9626:	9b07      	ldr	r3, [sp, #28]
    9628:	f41b 7600 	ands.w	r6, fp, #512	; 0x200
    962c:	f000 80fd 	beq.w	982a <_vfprintf_r+0x13c2>
    9630:	f853 4b04 	ldr.w	r4, [r3], #4
    9634:	4616      	mov	r6, r2
    9636:	9307      	str	r3, [sp, #28]
    9638:	b2e4      	uxtb	r4, r4
    963a:	f7ff b980 	b.w	893e <_vfprintf_r+0x4d6>
    963e:	f1ba 3fff 	cmp.w	sl, #4294967295	; 0xffffffff
    9642:	f000 810f 	beq.w	9864 <_vfprintf_r+0x13fc>
    9646:	4653      	mov	r3, sl
    9648:	2c47      	cmp	r4, #71	; 0x47
    964a:	bf08      	it	eq
    964c:	2b00      	cmpeq	r3, #0
    964e:	f040 810b 	bne.w	9868 <_vfprintf_r+0x1400>
    9652:	f44b 7380 	orr.w	r3, fp, #256	; 0x100
    9656:	9306      	str	r3, [sp, #24]
    9658:	ee18 3a90 	vmov	r3, s17
    965c:	2b00      	cmp	r3, #0
    965e:	f2c0 834f 	blt.w	9d00 <_vfprintf_r+0x1898>
    9662:	f04f 0a01 	mov.w	sl, #1
    9666:	eeb0 9b48 	vmov.f64	d9, d8
    966a:	4656      	mov	r6, sl
    966c:	2300      	movs	r3, #0
    966e:	9309      	str	r3, [sp, #36]	; 0x24
    9670:	ab20      	add	r3, sp, #128	; 0x80
    9672:	eeb0 0b49 	vmov.f64	d0, d9
    9676:	9301      	str	r3, [sp, #4]
    9678:	4632      	mov	r2, r6
    967a:	ab1d      	add	r3, sp, #116	; 0x74
    967c:	9802      	ldr	r0, [sp, #8]
    967e:	9300      	str	r3, [sp, #0]
    9680:	2102      	movs	r1, #2
    9682:	ab1c      	add	r3, sp, #112	; 0x70
    9684:	f000 fd30 	bl	a0e8 <_dtoa_r>
    9688:	2c47      	cmp	r4, #71	; 0x47
    968a:	9008      	str	r0, [sp, #32]
    968c:	d103      	bne.n	9696 <_vfprintf_r+0x122e>
    968e:	9b20      	ldr	r3, [sp, #128]	; 0x80
    9690:	f01b 0f01 	tst.w	fp, #1
    9694:	d012      	beq.n	96bc <_vfprintf_r+0x1254>
    9696:	9b08      	ldr	r3, [sp, #32]
    9698:	1999      	adds	r1, r3, r6
    969a:	eeb5 9b40 	vcmp.f64	d9, #0.0
    969e:	eef1 fa10 	vmrs	APSR_nzcv, fpscr
    96a2:	bf08      	it	eq
    96a4:	460b      	moveq	r3, r1
    96a6:	d009      	beq.n	96bc <_vfprintf_r+0x1254>
    96a8:	9b20      	ldr	r3, [sp, #128]	; 0x80
    96aa:	428b      	cmp	r3, r1
    96ac:	d206      	bcs.n	96bc <_vfprintf_r+0x1254>
    96ae:	2030      	movs	r0, #48	; 0x30
    96b0:	1c5a      	adds	r2, r3, #1
    96b2:	9220      	str	r2, [sp, #128]	; 0x80
    96b4:	7018      	strb	r0, [r3, #0]
    96b6:	9b20      	ldr	r3, [sp, #128]	; 0x80
    96b8:	4299      	cmp	r1, r3
    96ba:	d8f9      	bhi.n	96b0 <_vfprintf_r+0x1248>
    96bc:	9a08      	ldr	r2, [sp, #32]
    96be:	2c47      	cmp	r4, #71	; 0x47
    96c0:	eba3 0302 	sub.w	r3, r3, r2
    96c4:	930d      	str	r3, [sp, #52]	; 0x34
    96c6:	f040 812a 	bne.w	991e <_vfprintf_r+0x14b6>
    96ca:	9b1c      	ldr	r3, [sp, #112]	; 0x70
    96cc:	930b      	str	r3, [sp, #44]	; 0x2c
    96ce:	4553      	cmp	r3, sl
    96d0:	bfd8      	it	le
    96d2:	2200      	movle	r2, #0
    96d4:	bfc8      	it	gt
    96d6:	2201      	movgt	r2, #1
    96d8:	1cd9      	adds	r1, r3, #3
    96da:	bfa8      	it	ge
    96dc:	2300      	movge	r3, #0
    96de:	bfb8      	it	lt
    96e0:	2301      	movlt	r3, #1
    96e2:	4313      	orrs	r3, r2
    96e4:	f000 80fd 	beq.w	98e2 <_vfprintf_r+0x147a>
    96e8:	3d02      	subs	r5, #2
    96ea:	2300      	movs	r3, #0
    96ec:	f025 0420 	bic.w	r4, r5, #32
    96f0:	9306      	str	r3, [sp, #24]
    96f2:	9b0b      	ldr	r3, [sp, #44]	; 0x2c
    96f4:	f105 020f 	add.w	r2, r5, #15
    96f8:	2c41      	cmp	r4, #65	; 0x41
    96fa:	f103 33ff 	add.w	r3, r3, #4294967295	; 0xffffffff
    96fe:	b2d2      	uxtb	r2, r2
    9700:	931c      	str	r3, [sp, #112]	; 0x70
    9702:	d000      	beq.n	9706 <_vfprintf_r+0x129e>
    9704:	b2ea      	uxtb	r2, r5
    9706:	2b00      	cmp	r3, #0
    9708:	f88d 2078 	strb.w	r2, [sp, #120]	; 0x78
    970c:	bfa8      	it	ge
    970e:	222b      	movge	r2, #43	; 0x2b
    9710:	da03      	bge.n	971a <_vfprintf_r+0x12b2>
    9712:	9b0b      	ldr	r3, [sp, #44]	; 0x2c
    9714:	222d      	movs	r2, #45	; 0x2d
    9716:	f1c3 0301 	rsb	r3, r3, #1
    971a:	2b09      	cmp	r3, #9
    971c:	f88d 2079 	strb.w	r2, [sp, #121]	; 0x79
    9720:	f340 82f5 	ble.w	9d0e <_vfprintf_r+0x18a6>
    9724:	f10d 0e87 	add.w	lr, sp, #135	; 0x87
    9728:	f246 6667 	movw	r6, #26215	; 0x6667
    972c:	f2c6 6666 	movt	r6, #26214	; 0x6666
    9730:	4672      	mov	r2, lr
    9732:	f04f 0c0a 	mov.w	ip, #10
    9736:	4610      	mov	r0, r2
    9738:	fb86 2103 	smull	r2, r1, r6, r3
    973c:	17da      	asrs	r2, r3, #31
    973e:	461c      	mov	r4, r3
    9740:	2c63      	cmp	r4, #99	; 0x63
    9742:	ebc2 02a1 	rsb	r2, r2, r1, asr #2
    9746:	fb0c 3112 	mls	r1, ip, r2, r3
    974a:	4613      	mov	r3, r2
    974c:	f101 0230 	add.w	r2, r1, #48	; 0x30
    9750:	f800 2c01 	strb.w	r2, [r0, #-1]
    9754:	f100 32ff 	add.w	r2, r0, #4294967295	; 0xffffffff
    9758:	dced      	bgt.n	9736 <_vfprintf_r+0x12ce>
    975a:	3330      	adds	r3, #48	; 0x30
    975c:	1e81      	subs	r1, r0, #2
    975e:	458e      	cmp	lr, r1
    9760:	b2db      	uxtb	r3, r3
    9762:	f802 3c01 	strb.w	r3, [r2, #-1]
    9766:	f240 8356 	bls.w	9e16 <_vfprintf_r+0x19ae>
    976a:	f10d 017a 	add.w	r1, sp, #122	; 0x7a
    976e:	e001      	b.n	9774 <_vfprintf_r+0x130c>
    9770:	f812 3b01 	ldrb.w	r3, [r2], #1
    9774:	4596      	cmp	lr, r2
    9776:	f801 3b01 	strb.w	r3, [r1], #1
    977a:	d1f9      	bne.n	9770 <_vfprintf_r+0x1308>
    977c:	f10d 0389 	add.w	r3, sp, #137	; 0x89
    9780:	f10d 027a 	add.w	r2, sp, #122	; 0x7a
    9784:	1a1b      	subs	r3, r3, r0
    9786:	4413      	add	r3, r2
    9788:	aa1e      	add	r2, sp, #120	; 0x78
    978a:	1a9b      	subs	r3, r3, r2
    978c:	9315      	str	r3, [sp, #84]	; 0x54
    978e:	9b0d      	ldr	r3, [sp, #52]	; 0x34
    9790:	9a15      	ldr	r2, [sp, #84]	; 0x54
    9792:	2b01      	cmp	r3, #1
    9794:	441a      	add	r2, r3
    9796:	9205      	str	r2, [sp, #20]
    9798:	f340 8302 	ble.w	9da0 <_vfprintf_r+0x1938>
    979c:	9b05      	ldr	r3, [sp, #20]
    979e:	9a12      	ldr	r2, [sp, #72]	; 0x48
    97a0:	4413      	add	r3, r2
    97a2:	9305      	str	r3, [sp, #20]
    97a4:	9a05      	ldr	r2, [sp, #20]
    97a6:	f42b 6380 	bic.w	r3, fp, #1024	; 0x400
    97aa:	f443 7b80 	orr.w	fp, r3, #256	; 0x100
    97ae:	2300      	movs	r3, #0
    97b0:	930f      	str	r3, [sp, #60]	; 0x3c
    97b2:	ea22 76e2 	bic.w	r6, r2, r2, asr #31
    97b6:	e9cd 330b 	strd	r3, r3, [sp, #44]	; 0x2c
    97ba:	9b09      	ldr	r3, [sp, #36]	; 0x24
    97bc:	2b00      	cmp	r3, #0
    97be:	f040 80c7 	bne.w	9950 <_vfprintf_r+0x14e8>
    97c2:	f89d 106b 	ldrb.w	r1, [sp, #107]	; 0x6b
    97c6:	469a      	mov	sl, r3
    97c8:	f7ff b83d 	b.w	8846 <_vfprintf_r+0x3de>
    97cc:	46b1      	mov	r9, r6
    97ce:	9e05      	ldr	r6, [sp, #20]
    97d0:	3301      	adds	r3, #1
    97d2:	990e      	ldr	r1, [sp, #56]	; 0x38
    97d4:	2b07      	cmp	r3, #7
    97d6:	4422      	add	r2, r4
    97d8:	607c      	str	r4, [r7, #4]
    97da:	6039      	str	r1, [r7, #0]
    97dc:	bfd8      	it	le
    97de:	3708      	addle	r7, #8
    97e0:	e9cd 3223 	strd	r3, r2, [sp, #140]	; 0x8c
    97e4:	f77f abc6 	ble.w	8f74 <_vfprintf_r+0xb0c>
    97e8:	9802      	ldr	r0, [sp, #8]
    97ea:	aa22      	add	r2, sp, #136	; 0x88
    97ec:	4649      	mov	r1, r9
    97ee:	f003 fce7 	bl	d1c0 <__sprint_r>
    97f2:	2800      	cmp	r0, #0
    97f4:	f47f aa86 	bne.w	8d04 <_vfprintf_r+0x89c>
    97f8:	9a24      	ldr	r2, [sp, #144]	; 0x90
    97fa:	af25      	add	r7, sp, #148	; 0x94
    97fc:	f7ff bbba 	b.w	8f74 <_vfprintf_r+0xb0c>
    9800:	212d      	movs	r1, #45	; 0x2d
    9802:	f88d 106b 	strb.w	r1, [sp, #107]	; 0x6b
    9806:	f7ff b808 	b.w	881a <_vfprintf_r+0x3b2>
    980a:	9b0d      	ldr	r3, [sp, #52]	; 0x34
    980c:	9d08      	ldr	r5, [sp, #32]
    980e:	1b1c      	subs	r4, r3, r4
    9810:	441d      	add	r5, r3
    9812:	eba5 050a 	sub.w	r5, r5, sl
    9816:	42a5      	cmp	r5, r4
    9818:	bfa8      	it	ge
    981a:	4625      	movge	r5, r4
    981c:	f7ff bbe0 	b.w	8fe0 <_vfprintf_r+0xb78>
    9820:	b264      	sxtb	r4, r4
    9822:	17e6      	asrs	r6, r4, #31
    9824:	4633      	mov	r3, r6
    9826:	f7ff b82c 	b.w	8882 <_vfprintf_r+0x41a>
    982a:	f853 4b04 	ldr.w	r4, [r3], #4
    982e:	9307      	str	r3, [sp, #28]
    9830:	f7ff b885 	b.w	893e <_vfprintf_r+0x4d6>
    9834:	9b07      	ldr	r3, [sp, #28]
    9836:	9904      	ldr	r1, [sp, #16]
    9838:	f853 2b04 	ldr.w	r2, [r3], #4
    983c:	9307      	str	r3, [sp, #28]
    983e:	8011      	strh	r1, [r2, #0]
    9840:	f7fe be6a 	b.w	8518 <_vfprintf_r+0xb0>
    9844:	f853 4b04 	ldr.w	r4, [r3], #4
    9848:	9307      	str	r3, [sp, #28]
    984a:	e578      	b.n	933e <_vfprintf_r+0xed6>
    984c:	f853 4b04 	ldr.w	r4, [r3], #4
    9850:	2201      	movs	r2, #1
    9852:	9307      	str	r3, [sp, #28]
    9854:	f7ff b877 	b.w	8946 <_vfprintf_r+0x4de>
    9858:	f8db 0058 	ldr.w	r0, [fp, #88]	; 0x58
    985c:	f001 ff1a 	bl	b694 <__retarget_lock_release_recursive>
    9860:	f7fe bf2d 	b.w	86be <_vfprintf_r+0x256>
    9864:	f04f 0a06 	mov.w	sl, #6
    9868:	f44b 7380 	orr.w	r3, fp, #256	; 0x100
    986c:	9306      	str	r3, [sp, #24]
    986e:	ee18 3a90 	vmov	r3, s17
    9872:	2b00      	cmp	r3, #0
    9874:	f2c0 8246 	blt.w	9d04 <_vfprintf_r+0x189c>
    9878:	eeb0 9b48 	vmov.f64	d9, d8
    987c:	2300      	movs	r3, #0
    987e:	9309      	str	r3, [sp, #36]	; 0x24
    9880:	2c46      	cmp	r4, #70	; 0x46
    9882:	f040 81e0 	bne.w	9c46 <_vfprintf_r+0x17de>
    9886:	ab20      	add	r3, sp, #128	; 0x80
    9888:	4652      	mov	r2, sl
    988a:	9301      	str	r3, [sp, #4]
    988c:	eeb0 0b49 	vmov.f64	d0, d9
    9890:	ab1d      	add	r3, sp, #116	; 0x74
    9892:	9802      	ldr	r0, [sp, #8]
    9894:	9300      	str	r3, [sp, #0]
    9896:	2103      	movs	r1, #3
    9898:	ab1c      	add	r3, sp, #112	; 0x70
    989a:	f000 fc25 	bl	a0e8 <_dtoa_r>
    989e:	eeb5 9b40 	vcmp.f64	d9, #0.0
    98a2:	7802      	ldrb	r2, [r0, #0]
    98a4:	2301      	movs	r3, #1
    98a6:	9008      	str	r0, [sp, #32]
    98a8:	eef1 fa10 	vmrs	APSR_nzcv, fpscr
    98ac:	bf08      	it	eq
    98ae:	2300      	moveq	r3, #0
    98b0:	2a30      	cmp	r2, #48	; 0x30
    98b2:	f003 0301 	and.w	r3, r3, #1
    98b6:	bf18      	it	ne
    98b8:	2300      	movne	r3, #0
    98ba:	2b00      	cmp	r3, #0
    98bc:	f040 8275 	bne.w	9daa <_vfprintf_r+0x1942>
    98c0:	9b1c      	ldr	r3, [sp, #112]	; 0x70
    98c2:	9a08      	ldr	r2, [sp, #32]
    98c4:	4453      	add	r3, sl
    98c6:	18d1      	adds	r1, r2, r3
    98c8:	e6e7      	b.n	969a <_vfprintf_r+0x1232>
    98ca:	9802      	ldr	r0, [sp, #8]
    98cc:	f10a 0101 	add.w	r1, sl, #1
    98d0:	f001 ff84 	bl	b7dc <_malloc_r>
    98d4:	9008      	str	r0, [sp, #32]
    98d6:	2800      	cmp	r0, #0
    98d8:	f000 82ad 	beq.w	9e36 <_vfprintf_r+0x19ce>
    98dc:	9b08      	ldr	r3, [sp, #32]
    98de:	9306      	str	r3, [sp, #24]
    98e0:	e4aa      	b.n	9238 <_vfprintf_r+0xdd0>
    98e2:	9b0b      	ldr	r3, [sp, #44]	; 0x2c
    98e4:	9a0d      	ldr	r2, [sp, #52]	; 0x34
    98e6:	4293      	cmp	r3, r2
    98e8:	f2c0 8153 	blt.w	9b92 <_vfprintf_r+0x172a>
    98ec:	f01b 0f01 	tst.w	fp, #1
    98f0:	f000 8237 	beq.w	9d62 <_vfprintf_r+0x18fa>
    98f4:	9a12      	ldr	r2, [sp, #72]	; 0x48
    98f6:	4413      	add	r3, r2
    98f8:	9305      	str	r3, [sp, #20]
    98fa:	f41b 6f80 	tst.w	fp, #1024	; 0x400
    98fe:	d003      	beq.n	9908 <_vfprintf_r+0x14a0>
    9900:	9b0b      	ldr	r3, [sp, #44]	; 0x2c
    9902:	2b00      	cmp	r3, #0
    9904:	f300 81cb 	bgt.w	9c9e <_vfprintf_r+0x1836>
    9908:	9b05      	ldr	r3, [sp, #20]
    990a:	2567      	movs	r5, #103	; 0x67
    990c:	ea23 76e3 	bic.w	r6, r3, r3, asr #31
    9910:	2300      	movs	r3, #0
    9912:	f8dd b018 	ldr.w	fp, [sp, #24]
    9916:	930f      	str	r3, [sp, #60]	; 0x3c
    9918:	9306      	str	r3, [sp, #24]
    991a:	930c      	str	r3, [sp, #48]	; 0x30
    991c:	e74d      	b.n	97ba <_vfprintf_r+0x1352>
    991e:	2c46      	cmp	r4, #70	; 0x46
    9920:	f040 8281 	bne.w	9e26 <_vfprintf_r+0x19be>
    9924:	9a1c      	ldr	r2, [sp, #112]	; 0x70
    9926:	f00b 0301 	and.w	r3, fp, #1
    992a:	920b      	str	r2, [sp, #44]	; 0x2c
    992c:	2a00      	cmp	r2, #0
    992e:	f340 824b 	ble.w	9dc8 <_vfprintf_r+0x1960>
    9932:	ea53 030a 	orrs.w	r3, r3, sl
    9936:	f040 81dc 	bne.w	9cf2 <_vfprintf_r+0x188a>
    993a:	9b0b      	ldr	r3, [sp, #44]	; 0x2c
    993c:	2566      	movs	r5, #102	; 0x66
    993e:	9305      	str	r3, [sp, #20]
    9940:	f41b 6f80 	tst.w	fp, #1024	; 0x400
    9944:	f040 81ac 	bne.w	9ca0 <_vfprintf_r+0x1838>
    9948:	9b05      	ldr	r3, [sp, #20]
    994a:	ea23 76e3 	bic.w	r6, r3, r3, asr #31
    994e:	e7df      	b.n	9910 <_vfprintf_r+0x14a8>
    9950:	212d      	movs	r1, #45	; 0x2d
    9952:	f04f 0a00 	mov.w	sl, #0
    9956:	f88d 106b 	strb.w	r1, [sp, #107]	; 0x6b
    995a:	f7fe bf77 	b.w	884c <_vfprintf_r+0x3e4>
    995e:	990c      	ldr	r1, [sp, #48]	; 0x30
    9960:	9b0f      	ldr	r3, [sp, #60]	; 0x3c
    9962:	2b00      	cmp	r3, #0
    9964:	bfd8      	it	le
    9966:	2900      	cmple	r1, #0
    9968:	f340 8258 	ble.w	9e1c <_vfprintf_r+0x19b4>
    996c:	9908      	ldr	r1, [sp, #32]
    996e:	980d      	ldr	r0, [sp, #52]	; 0x34
    9970:	960b      	str	r6, [sp, #44]	; 0x2c
    9972:	4656      	mov	r6, sl
    9974:	4401      	add	r1, r0
    9976:	f8dd a038 	ldr.w	sl, [sp, #56]	; 0x38
    997a:	e9cd 1b09 	strd	r1, fp, [sp, #36]	; 0x24
    997e:	46cb      	mov	fp, r9
    9980:	f8dd 9008 	ldr.w	r9, [sp, #8]
    9984:	f8cd 803c 	str.w	r8, [sp, #60]	; 0x3c
    9988:	4698      	mov	r8, r3
    998a:	f1b8 0f00 	cmp.w	r8, #0
    998e:	d03c      	beq.n	9a0a <_vfprintf_r+0x15a2>
    9990:	f108 38ff 	add.w	r8, r8, #4294967295	; 0xffffffff
    9994:	9823      	ldr	r0, [sp, #140]	; 0x8c
    9996:	9b16      	ldr	r3, [sp, #88]	; 0x58
    9998:	3001      	adds	r0, #1
    999a:	9917      	ldr	r1, [sp, #92]	; 0x5c
    999c:	2807      	cmp	r0, #7
    999e:	441a      	add	r2, r3
    99a0:	e9c7 1300 	strd	r1, r3, [r7]
    99a4:	bfd8      	it	le
    99a6:	3708      	addle	r7, #8
    99a8:	9224      	str	r2, [sp, #144]	; 0x90
    99aa:	9023      	str	r0, [sp, #140]	; 0x8c
    99ac:	dc66      	bgt.n	9a7c <_vfprintf_r+0x1614>
    99ae:	9911      	ldr	r1, [sp, #68]	; 0x44
    99b0:	9b09      	ldr	r3, [sp, #36]	; 0x24
    99b2:	9305      	str	r3, [sp, #20]
    99b4:	7808      	ldrb	r0, [r1, #0]
    99b6:	1b9c      	subs	r4, r3, r6
    99b8:	4284      	cmp	r4, r0
    99ba:	bfa8      	it	ge
    99bc:	4604      	movge	r4, r0
    99be:	2c00      	cmp	r4, #0
    99c0:	dd0a      	ble.n	99d8 <_vfprintf_r+0x1570>
    99c2:	9823      	ldr	r0, [sp, #140]	; 0x8c
    99c4:	4422      	add	r2, r4
    99c6:	e9c7 6400 	strd	r6, r4, [r7]
    99ca:	3001      	adds	r0, #1
    99cc:	9224      	str	r2, [sp, #144]	; 0x90
    99ce:	2807      	cmp	r0, #7
    99d0:	9023      	str	r0, [sp, #140]	; 0x8c
    99d2:	dc5e      	bgt.n	9a92 <_vfprintf_r+0x162a>
    99d4:	7808      	ldrb	r0, [r1, #0]
    99d6:	3708      	adds	r7, #8
    99d8:	ea24 74e4 	bic.w	r4, r4, r4, asr #31
    99dc:	1b04      	subs	r4, r0, r4
    99de:	2c00      	cmp	r4, #0
    99e0:	dc1a      	bgt.n	9a18 <_vfprintf_r+0x15b0>
    99e2:	990c      	ldr	r1, [sp, #48]	; 0x30
    99e4:	4643      	mov	r3, r8
    99e6:	4406      	add	r6, r0
    99e8:	2900      	cmp	r1, #0
    99ea:	bfd8      	it	le
    99ec:	2b00      	cmple	r3, #0
    99ee:	dccc      	bgt.n	998a <_vfprintf_r+0x1522>
    99f0:	46b2      	mov	sl, r6
    99f2:	46d9      	mov	r9, fp
    99f4:	9e0b      	ldr	r6, [sp, #44]	; 0x2c
    99f6:	f8dd b028 	ldr.w	fp, [sp, #40]	; 0x28
    99fa:	f8dd 803c 	ldr.w	r8, [sp, #60]	; 0x3c
    99fe:	9b05      	ldr	r3, [sp, #20]
    9a00:	459a      	cmp	sl, r3
    9a02:	bf28      	it	cs
    9a04:	469a      	movcs	sl, r3
    9a06:	f7ff babd 	b.w	8f84 <_vfprintf_r+0xb1c>
    9a0a:	9b11      	ldr	r3, [sp, #68]	; 0x44
    9a0c:	3b01      	subs	r3, #1
    9a0e:	9311      	str	r3, [sp, #68]	; 0x44
    9a10:	9b0c      	ldr	r3, [sp, #48]	; 0x30
    9a12:	3b01      	subs	r3, #1
    9a14:	930c      	str	r3, [sp, #48]	; 0x30
    9a16:	e7bd      	b.n	9994 <_vfprintf_r+0x152c>
    9a18:	9823      	ldr	r0, [sp, #140]	; 0x8c
    9a1a:	2c10      	cmp	r4, #16
    9a1c:	dd22      	ble.n	9a64 <_vfprintf_r+0x15fc>
    9a1e:	4653      	mov	r3, sl
    9a20:	2510      	movs	r5, #16
    9a22:	46b2      	mov	sl, r6
    9a24:	461e      	mov	r6, r3
    9a26:	e002      	b.n	9a2e <_vfprintf_r+0x15c6>
    9a28:	3c10      	subs	r4, #16
    9a2a:	2c10      	cmp	r4, #16
    9a2c:	dd17      	ble.n	9a5e <_vfprintf_r+0x15f6>
    9a2e:	3001      	adds	r0, #1
    9a30:	3210      	adds	r2, #16
    9a32:	2807      	cmp	r0, #7
    9a34:	e9c7 6500 	strd	r6, r5, [r7]
    9a38:	e9cd 0223 	strd	r0, r2, [sp, #140]	; 0x8c
    9a3c:	bfd8      	it	le
    9a3e:	3708      	addle	r7, #8
    9a40:	ddf2      	ble.n	9a28 <_vfprintf_r+0x15c0>
    9a42:	aa22      	add	r2, sp, #136	; 0x88
    9a44:	4659      	mov	r1, fp
    9a46:	4648      	mov	r0, r9
    9a48:	af25      	add	r7, sp, #148	; 0x94
    9a4a:	f003 fbb9 	bl	d1c0 <__sprint_r>
    9a4e:	2800      	cmp	r0, #0
    9a50:	f47f aa47 	bne.w	8ee2 <_vfprintf_r+0xa7a>
    9a54:	3c10      	subs	r4, #16
    9a56:	e9dd 0223 	ldrd	r0, r2, [sp, #140]	; 0x8c
    9a5a:	2c10      	cmp	r4, #16
    9a5c:	dce7      	bgt.n	9a2e <_vfprintf_r+0x15c6>
    9a5e:	4633      	mov	r3, r6
    9a60:	4656      	mov	r6, sl
    9a62:	469a      	mov	sl, r3
    9a64:	3001      	adds	r0, #1
    9a66:	4422      	add	r2, r4
    9a68:	2807      	cmp	r0, #7
    9a6a:	e9c7 a400 	strd	sl, r4, [r7]
    9a6e:	e9cd 0223 	strd	r0, r2, [sp, #140]	; 0x8c
    9a72:	dc54      	bgt.n	9b1e <_vfprintf_r+0x16b6>
    9a74:	9b11      	ldr	r3, [sp, #68]	; 0x44
    9a76:	3708      	adds	r7, #8
    9a78:	7818      	ldrb	r0, [r3, #0]
    9a7a:	e7b2      	b.n	99e2 <_vfprintf_r+0x157a>
    9a7c:	aa22      	add	r2, sp, #136	; 0x88
    9a7e:	4659      	mov	r1, fp
    9a80:	4648      	mov	r0, r9
    9a82:	f003 fb9d 	bl	d1c0 <__sprint_r>
    9a86:	2800      	cmp	r0, #0
    9a88:	f47f aa2b 	bne.w	8ee2 <_vfprintf_r+0xa7a>
    9a8c:	9a24      	ldr	r2, [sp, #144]	; 0x90
    9a8e:	af25      	add	r7, sp, #148	; 0x94
    9a90:	e78d      	b.n	99ae <_vfprintf_r+0x1546>
    9a92:	aa22      	add	r2, sp, #136	; 0x88
    9a94:	4659      	mov	r1, fp
    9a96:	4648      	mov	r0, r9
    9a98:	f003 fb92 	bl	d1c0 <__sprint_r>
    9a9c:	2800      	cmp	r0, #0
    9a9e:	f47f aa20 	bne.w	8ee2 <_vfprintf_r+0xa7a>
    9aa2:	9b11      	ldr	r3, [sp, #68]	; 0x44
    9aa4:	af25      	add	r7, sp, #148	; 0x94
    9aa6:	9a24      	ldr	r2, [sp, #144]	; 0x90
    9aa8:	7818      	ldrb	r0, [r3, #0]
    9aaa:	e795      	b.n	99d8 <_vfprintf_r+0x1570>
    9aac:	9802      	ldr	r0, [sp, #8]
    9aae:	aa22      	add	r2, sp, #136	; 0x88
    9ab0:	4649      	mov	r1, r9
    9ab2:	f003 fb85 	bl	d1c0 <__sprint_r>
    9ab6:	2800      	cmp	r0, #0
    9ab8:	f47f a924 	bne.w	8d04 <_vfprintf_r+0x89c>
    9abc:	991c      	ldr	r1, [sp, #112]	; 0x70
    9abe:	af25      	add	r7, sp, #148	; 0x94
    9ac0:	9a24      	ldr	r2, [sp, #144]	; 0x90
    9ac2:	f7ff bb57 	b.w	9174 <_vfprintf_r+0xd0c>
    9ac6:	9802      	ldr	r0, [sp, #8]
    9ac8:	aa22      	add	r2, sp, #136	; 0x88
    9aca:	4649      	mov	r1, r9
    9acc:	f003 fb78 	bl	d1c0 <__sprint_r>
    9ad0:	2800      	cmp	r0, #0
    9ad2:	f47f a917 	bne.w	8d04 <_vfprintf_r+0x89c>
    9ad6:	9a24      	ldr	r2, [sp, #144]	; 0x90
    9ad8:	af25      	add	r7, sp, #148	; 0x94
    9ada:	f7ff ba44 	b.w	8f66 <_vfprintf_r+0xafe>
    9ade:	9802      	ldr	r0, [sp, #8]
    9ae0:	aa22      	add	r2, sp, #136	; 0x88
    9ae2:	4649      	mov	r1, r9
    9ae4:	f003 fb6c 	bl	d1c0 <__sprint_r>
    9ae8:	2800      	cmp	r0, #0
    9aea:	f47f a90b 	bne.w	8d04 <_vfprintf_r+0x89c>
    9aee:	991c      	ldr	r1, [sp, #112]	; 0x70
    9af0:	af25      	add	r7, sp, #148	; 0x94
    9af2:	e9dd 3223 	ldrd	r3, r2, [sp, #140]	; 0x8c
    9af6:	f7ff bb4f 	b.w	9198 <_vfprintf_r+0xd30>
    9afa:	f01b 0f01 	tst.w	fp, #1
    9afe:	f43e ae57 	beq.w	87b0 <_vfprintf_r+0x348>
    9b02:	9b12      	ldr	r3, [sp, #72]	; 0x48
    9b04:	9913      	ldr	r1, [sp, #76]	; 0x4c
    9b06:	441a      	add	r2, r3
    9b08:	e9c7 1300 	strd	r1, r3, [r7]
    9b0c:	9b23      	ldr	r3, [sp, #140]	; 0x8c
    9b0e:	9224      	str	r2, [sp, #144]	; 0x90
    9b10:	3301      	adds	r3, #1
    9b12:	9323      	str	r3, [sp, #140]	; 0x8c
    9b14:	2b07      	cmp	r3, #7
    9b16:	dce2      	bgt.n	9ade <_vfprintf_r+0x1676>
    9b18:	3708      	adds	r7, #8
    9b1a:	f7ff bb40 	b.w	919e <_vfprintf_r+0xd36>
    9b1e:	aa22      	add	r2, sp, #136	; 0x88
    9b20:	4659      	mov	r1, fp
    9b22:	4648      	mov	r0, r9
    9b24:	f003 fb4c 	bl	d1c0 <__sprint_r>
    9b28:	2800      	cmp	r0, #0
    9b2a:	f47f a9da 	bne.w	8ee2 <_vfprintf_r+0xa7a>
    9b2e:	9b11      	ldr	r3, [sp, #68]	; 0x44
    9b30:	af25      	add	r7, sp, #148	; 0x94
    9b32:	9a24      	ldr	r2, [sp, #144]	; 0x90
    9b34:	7818      	ldrb	r0, [r3, #0]
    9b36:	e754      	b.n	99e2 <_vfprintf_r+0x157a>
    9b38:	9802      	ldr	r0, [sp, #8]
    9b3a:	aa22      	add	r2, sp, #136	; 0x88
    9b3c:	4649      	mov	r1, r9
    9b3e:	f003 fb3f 	bl	d1c0 <__sprint_r>
    9b42:	2800      	cmp	r0, #0
    9b44:	f47f a8de 	bne.w	8d04 <_vfprintf_r+0x89c>
    9b48:	9c1c      	ldr	r4, [sp, #112]	; 0x70
    9b4a:	af25      	add	r7, sp, #148	; 0x94
    9b4c:	9a24      	ldr	r2, [sp, #144]	; 0x90
    9b4e:	f7ff ba2f 	b.w	8fb0 <_vfprintf_r+0xb48>
    9b52:	4656      	mov	r6, sl
    9b54:	f8cd a014 	str.w	sl, [sp, #20]
    9b58:	f89d 106b 	ldrb.w	r1, [sp, #107]	; 0x6b
    9b5c:	4682      	mov	sl, r0
    9b5e:	9407      	str	r4, [sp, #28]
    9b60:	900f      	str	r0, [sp, #60]	; 0x3c
    9b62:	e9cd 000b 	strd	r0, r0, [sp, #44]	; 0x2c
    9b66:	f7fe be6e 	b.w	8846 <_vfprintf_r+0x3de>
    9b6a:	9b16      	ldr	r3, [sp, #88]	; 0x58
    9b6c:	9917      	ldr	r1, [sp, #92]	; 0x5c
    9b6e:	1aff      	subs	r7, r7, r3
    9b70:	461a      	mov	r2, r3
    9b72:	4638      	mov	r0, r7
    9b74:	f003 fab2 	bl	d0dc <strncpy>
    9b78:	f898 3001 	ldrb.w	r3, [r8, #1]
    9b7c:	b10b      	cbz	r3, 9b82 <_vfprintf_r+0x171a>
    9b7e:	f108 0801 	add.w	r8, r8, #1
    9b82:	4620      	mov	r0, r4
    9b84:	4631      	mov	r1, r6
    9b86:	220a      	movs	r2, #10
    9b88:	2300      	movs	r3, #0
    9b8a:	2500      	movs	r5, #0
    9b8c:	f013 ff56 	bl	1da3c <__aeabi_uldivmod>
    9b90:	e4a9      	b.n	94e6 <_vfprintf_r+0x107e>
    9b92:	9b0d      	ldr	r3, [sp, #52]	; 0x34
    9b94:	9a12      	ldr	r2, [sp, #72]	; 0x48
    9b96:	189a      	adds	r2, r3, r2
    9b98:	9b0b      	ldr	r3, [sp, #44]	; 0x2c
    9b9a:	9205      	str	r2, [sp, #20]
    9b9c:	2b00      	cmp	r3, #0
    9b9e:	bfc8      	it	gt
    9ba0:	2567      	movgt	r5, #103	; 0x67
    9ba2:	f73f aecd 	bgt.w	9940 <_vfprintf_r+0x14d8>
    9ba6:	f1c3 0301 	rsb	r3, r3, #1
    9baa:	2567      	movs	r5, #103	; 0x67
    9bac:	441a      	add	r2, r3
    9bae:	9205      	str	r2, [sp, #20]
    9bb0:	ea22 76e2 	bic.w	r6, r2, r2, asr #31
    9bb4:	e6ac      	b.n	9910 <_vfprintf_r+0x14a8>
    9bb6:	9802      	ldr	r0, [sp, #8]
    9bb8:	aa22      	add	r2, sp, #136	; 0x88
    9bba:	4649      	mov	r1, r9
    9bbc:	f003 fb00 	bl	d1c0 <__sprint_r>
    9bc0:	2800      	cmp	r0, #0
    9bc2:	f47f a89f 	bne.w	8d04 <_vfprintf_r+0x89c>
    9bc6:	9c1c      	ldr	r4, [sp, #112]	; 0x70
    9bc8:	af25      	add	r7, sp, #148	; 0x94
    9bca:	9b0d      	ldr	r3, [sp, #52]	; 0x34
    9bcc:	9a24      	ldr	r2, [sp, #144]	; 0x90
    9bce:	1b1c      	subs	r4, r3, r4
    9bd0:	f7ff ba06 	b.w	8fe0 <_vfprintf_r+0xb78>
    9bd4:	424c      	negs	r4, r1
    9bd6:	3110      	adds	r1, #16
    9bd8:	da4a      	bge.n	9c70 <_vfprintf_r+0x1808>
    9bda:	9605      	str	r6, [sp, #20]
    9bdc:	2510      	movs	r5, #16
    9bde:	464e      	mov	r6, r9
    9be0:	f8dd a008 	ldr.w	sl, [sp, #8]
    9be4:	f8dd 9038 	ldr.w	r9, [sp, #56]	; 0x38
    9be8:	e002      	b.n	9bf0 <_vfprintf_r+0x1788>
    9bea:	3c10      	subs	r4, #16
    9bec:	2c10      	cmp	r4, #16
    9bee:	dd3d      	ble.n	9c6c <_vfprintf_r+0x1804>
    9bf0:	3301      	adds	r3, #1
    9bf2:	3210      	adds	r2, #16
    9bf4:	2b07      	cmp	r3, #7
    9bf6:	e9c7 9500 	strd	r9, r5, [r7]
    9bfa:	e9cd 3223 	strd	r3, r2, [sp, #140]	; 0x8c
    9bfe:	bfd8      	it	le
    9c00:	3708      	addle	r7, #8
    9c02:	ddf2      	ble.n	9bea <_vfprintf_r+0x1782>
    9c04:	aa22      	add	r2, sp, #136	; 0x88
    9c06:	4631      	mov	r1, r6
    9c08:	4650      	mov	r0, sl
    9c0a:	f003 fad9 	bl	d1c0 <__sprint_r>
    9c0e:	2800      	cmp	r0, #0
    9c10:	f47f a966 	bne.w	8ee0 <_vfprintf_r+0xa78>
    9c14:	e9dd 3223 	ldrd	r3, r2, [sp, #140]	; 0x8c
    9c18:	af25      	add	r7, sp, #148	; 0x94
    9c1a:	e7e6      	b.n	9bea <_vfprintf_r+0x1782>
    9c1c:	9802      	ldr	r0, [sp, #8]
    9c1e:	aa22      	add	r2, sp, #136	; 0x88
    9c20:	4649      	mov	r1, r9
    9c22:	f003 facd 	bl	d1c0 <__sprint_r>
    9c26:	2800      	cmp	r0, #0
    9c28:	f43f ac9e 	beq.w	9568 <_vfprintf_r+0x1100>
    9c2c:	f7ff b95e 	b.w	8eec <_vfprintf_r+0xa84>
    9c30:	2300      	movs	r3, #0
    9c32:	eeb0 0b48 	vmov.f64	d0, d8
    9c36:	9309      	str	r3, [sp, #36]	; 0x24
    9c38:	f7ff bb07 	b.w	924a <_vfprintf_r+0xde2>
    9c3c:	f04f 33ff 	mov.w	r3, #4294967295	; 0xffffffff
    9c40:	9304      	str	r3, [sp, #16]
    9c42:	f7ff b960 	b.w	8f06 <_vfprintf_r+0xa9e>
    9c46:	2c45      	cmp	r4, #69	; 0x45
    9c48:	f040 80e3 	bne.w	9e12 <_vfprintf_r+0x19aa>
    9c4c:	f10a 0601 	add.w	r6, sl, #1
    9c50:	ab20      	add	r3, sp, #128	; 0x80
    9c52:	eeb0 0b49 	vmov.f64	d0, d9
    9c56:	9301      	str	r3, [sp, #4]
    9c58:	9802      	ldr	r0, [sp, #8]
    9c5a:	ab1d      	add	r3, sp, #116	; 0x74
    9c5c:	4632      	mov	r2, r6
    9c5e:	9300      	str	r3, [sp, #0]
    9c60:	2102      	movs	r1, #2
    9c62:	ab1c      	add	r3, sp, #112	; 0x70
    9c64:	f000 fa40 	bl	a0e8 <_dtoa_r>
    9c68:	9008      	str	r0, [sp, #32]
    9c6a:	e514      	b.n	9696 <_vfprintf_r+0x122e>
    9c6c:	46b1      	mov	r9, r6
    9c6e:	9e05      	ldr	r6, [sp, #20]
    9c70:	3301      	adds	r3, #1
    9c72:	990e      	ldr	r1, [sp, #56]	; 0x38
    9c74:	4422      	add	r2, r4
    9c76:	2b07      	cmp	r3, #7
    9c78:	607c      	str	r4, [r7, #4]
    9c7a:	6039      	str	r1, [r7, #0]
    9c7c:	e9cd 3223 	strd	r3, r2, [sp, #140]	; 0x8c
    9c80:	f77f af4a 	ble.w	9b18 <_vfprintf_r+0x16b0>
    9c84:	9802      	ldr	r0, [sp, #8]
    9c86:	aa22      	add	r2, sp, #136	; 0x88
    9c88:	4649      	mov	r1, r9
    9c8a:	f003 fa99 	bl	d1c0 <__sprint_r>
    9c8e:	2800      	cmp	r0, #0
    9c90:	f47f a838 	bne.w	8d04 <_vfprintf_r+0x89c>
    9c94:	e9dd 3223 	ldrd	r3, r2, [sp, #140]	; 0x8c
    9c98:	af25      	add	r7, sp, #148	; 0x94
    9c9a:	f7ff ba80 	b.w	919e <_vfprintf_r+0xd36>
    9c9e:	2567      	movs	r5, #103	; 0x67
    9ca0:	9911      	ldr	r1, [sp, #68]	; 0x44
    9ca2:	780b      	ldrb	r3, [r1, #0]
    9ca4:	2bff      	cmp	r3, #255	; 0xff
    9ca6:	f000 80c2 	beq.w	9e2e <_vfprintf_r+0x19c6>
    9caa:	2400      	movs	r4, #0
    9cac:	9a0b      	ldr	r2, [sp, #44]	; 0x2c
    9cae:	4620      	mov	r0, r4
    9cb0:	e003      	b.n	9cba <_vfprintf_r+0x1852>
    9cb2:	3001      	adds	r0, #1
    9cb4:	3101      	adds	r1, #1
    9cb6:	2bff      	cmp	r3, #255	; 0xff
    9cb8:	d008      	beq.n	9ccc <_vfprintf_r+0x1864>
    9cba:	4293      	cmp	r3, r2
    9cbc:	da06      	bge.n	9ccc <_vfprintf_r+0x1864>
    9cbe:	1ad2      	subs	r2, r2, r3
    9cc0:	784b      	ldrb	r3, [r1, #1]
    9cc2:	2b00      	cmp	r3, #0
    9cc4:	d1f5      	bne.n	9cb2 <_vfprintf_r+0x184a>
    9cc6:	780b      	ldrb	r3, [r1, #0]
    9cc8:	3401      	adds	r4, #1
    9cca:	e7f4      	b.n	9cb6 <_vfprintf_r+0x184e>
    9ccc:	920b      	str	r2, [sp, #44]	; 0x2c
    9cce:	9111      	str	r1, [sp, #68]	; 0x44
    9cd0:	900c      	str	r0, [sp, #48]	; 0x30
    9cd2:	940f      	str	r4, [sp, #60]	; 0x3c
    9cd4:	9a0f      	ldr	r2, [sp, #60]	; 0x3c
    9cd6:	9b0c      	ldr	r3, [sp, #48]	; 0x30
    9cd8:	9916      	ldr	r1, [sp, #88]	; 0x58
    9cda:	4413      	add	r3, r2
    9cdc:	9a05      	ldr	r2, [sp, #20]
    9cde:	f8dd b018 	ldr.w	fp, [sp, #24]
    9ce2:	fb01 2303 	mla	r3, r1, r3, r2
    9ce6:	2200      	movs	r2, #0
    9ce8:	9305      	str	r3, [sp, #20]
    9cea:	9206      	str	r2, [sp, #24]
    9cec:	ea23 76e3 	bic.w	r6, r3, r3, asr #31
    9cf0:	e563      	b.n	97ba <_vfprintf_r+0x1352>
    9cf2:	9b12      	ldr	r3, [sp, #72]	; 0x48
    9cf4:	2566      	movs	r5, #102	; 0x66
    9cf6:	18d6      	adds	r6, r2, r3
    9cf8:	eb06 030a 	add.w	r3, r6, sl
    9cfc:	9305      	str	r3, [sp, #20]
    9cfe:	e61f      	b.n	9940 <_vfprintf_r+0x14d8>
    9d00:	f04f 0a01 	mov.w	sl, #1
    9d04:	232d      	movs	r3, #45	; 0x2d
    9d06:	eeb1 9b48 	vneg.f64	d9, d8
    9d0a:	9309      	str	r3, [sp, #36]	; 0x24
    9d0c:	e5b8      	b.n	9880 <_vfprintf_r+0x1418>
    9d0e:	f10d 027a 	add.w	r2, sp, #122	; 0x7a
    9d12:	2c41      	cmp	r4, #65	; 0x41
    9d14:	d004      	beq.n	9d20 <_vfprintf_r+0x18b8>
    9d16:	2230      	movs	r2, #48	; 0x30
    9d18:	f88d 207a 	strb.w	r2, [sp, #122]	; 0x7a
    9d1c:	f10d 027b 	add.w	r2, sp, #123	; 0x7b
    9d20:	3330      	adds	r3, #48	; 0x30
    9d22:	f802 3b01 	strb.w	r3, [r2], #1
    9d26:	ab1e      	add	r3, sp, #120	; 0x78
    9d28:	1ad3      	subs	r3, r2, r3
    9d2a:	9315      	str	r3, [sp, #84]	; 0x54
    9d2c:	e52f      	b.n	978e <_vfprintf_r+0x1326>
    9d2e:	9620      	str	r6, [sp, #128]	; 0x80
    9d30:	4613      	mov	r3, r2
    9d32:	7bc6      	ldrb	r6, [r0, #15]
    9d34:	f812 1c01 	ldrb.w	r1, [r2, #-1]
    9d38:	42b1      	cmp	r1, r6
    9d3a:	d10a      	bne.n	9d52 <_vfprintf_r+0x18ea>
    9d3c:	f04f 0c30 	mov.w	ip, #48	; 0x30
    9d40:	f803 cc01 	strb.w	ip, [r3, #-1]
    9d44:	9b20      	ldr	r3, [sp, #128]	; 0x80
    9d46:	1e59      	subs	r1, r3, #1
    9d48:	9120      	str	r1, [sp, #128]	; 0x80
    9d4a:	f813 1c01 	ldrb.w	r1, [r3, #-1]
    9d4e:	428e      	cmp	r6, r1
    9d50:	d0f6      	beq.n	9d40 <_vfprintf_r+0x18d8>
    9d52:	2939      	cmp	r1, #57	; 0x39
    9d54:	d05b      	beq.n	9e0e <_vfprintf_r+0x19a6>
    9d56:	3101      	adds	r1, #1
    9d58:	b2c9      	uxtb	r1, r1
    9d5a:	f803 1c01 	strb.w	r1, [r3, #-1]
    9d5e:	f7ff bacb 	b.w	92f8 <_vfprintf_r+0xe90>
    9d62:	9b0b      	ldr	r3, [sp, #44]	; 0x2c
    9d64:	9305      	str	r3, [sp, #20]
    9d66:	e5c8      	b.n	98fa <_vfprintf_r+0x1492>
    9d68:	ee18 3a90 	vmov	r3, s17
    9d6c:	f89d 106b 	ldrb.w	r1, [sp, #107]	; 0x6b
    9d70:	2b00      	cmp	r3, #0
    9d72:	da02      	bge.n	9d7a <_vfprintf_r+0x1912>
    9d74:	212d      	movs	r1, #45	; 0x2d
    9d76:	f88d 106b 	strb.w	r1, [sp, #107]	; 0x6b
    9d7a:	2300      	movs	r3, #0
    9d7c:	f643 22dc 	movw	r2, #15068	; 0x3adc
    9d80:	f2c0 0202 	movt	r2, #2
    9d84:	4618      	mov	r0, r3
    9d86:	9306      	str	r3, [sp, #24]
    9d88:	f02b 0b80 	bic.w	fp, fp, #128	; 0x80
    9d8c:	f643 23e0 	movw	r3, #15072	; 0x3ae0
    9d90:	f2c0 0302 	movt	r3, #2
    9d94:	2603      	movs	r6, #3
    9d96:	f7fe bd4d 	b.w	8834 <_vfprintf_r+0x3cc>
    9d9a:	46cb      	mov	fp, r9
    9d9c:	f7ff b8a6 	b.w	8eec <_vfprintf_r+0xa84>
    9da0:	f01b 0f01 	tst.w	fp, #1
    9da4:	f43f acfe 	beq.w	97a4 <_vfprintf_r+0x133c>
    9da8:	e4f8      	b.n	979c <_vfprintf_r+0x1334>
    9daa:	f1ca 0301 	rsb	r3, sl, #1
    9dae:	931c      	str	r3, [sp, #112]	; 0x70
    9db0:	e587      	b.n	98c2 <_vfprintf_r+0x145a>
    9db2:	9b07      	ldr	r3, [sp, #28]
    9db4:	f898 5001 	ldrb.w	r5, [r8, #1]
    9db8:	4690      	mov	r8, r2
    9dba:	f853 2b04 	ldr.w	r2, [r3], #4
    9dbe:	9307      	str	r3, [sp, #28]
    9dc0:	ea42 7ae2 	orr.w	sl, r2, r2, asr #31
    9dc4:	f7fe bbd8 	b.w	8578 <_vfprintf_r+0x110>
    9dc8:	ea53 030a 	orrs.w	r3, r3, sl
    9dcc:	d103      	bne.n	9dd6 <_vfprintf_r+0x196e>
    9dce:	2601      	movs	r6, #1
    9dd0:	2566      	movs	r5, #102	; 0x66
    9dd2:	9605      	str	r6, [sp, #20]
    9dd4:	e59c      	b.n	9910 <_vfprintf_r+0x14a8>
    9dd6:	9b12      	ldr	r3, [sp, #72]	; 0x48
    9dd8:	2566      	movs	r5, #102	; 0x66
    9dda:	1c5e      	adds	r6, r3, #1
    9ddc:	eb06 030a 	add.w	r3, r6, sl
    9de0:	9305      	str	r3, [sp, #20]
    9de2:	ea23 76e3 	bic.w	r6, r3, r3, asr #31
    9de6:	e593      	b.n	9910 <_vfprintf_r+0x14a8>
    9de8:	f8db 3064 	ldr.w	r3, [fp, #100]	; 0x64
    9dec:	07dc      	lsls	r4, r3, #31
    9dee:	f53f af25 	bmi.w	9c3c <_vfprintf_r+0x17d4>
    9df2:	f8bb 300c 	ldrh.w	r3, [fp, #12]
    9df6:	0598      	lsls	r0, r3, #22
    9df8:	f53f af20 	bmi.w	9c3c <_vfprintf_r+0x17d4>
    9dfc:	f8db 0058 	ldr.w	r0, [fp, #88]	; 0x58
    9e00:	f04f 33ff 	mov.w	r3, #4294967295	; 0xffffffff
    9e04:	9304      	str	r3, [sp, #16]
    9e06:	f001 fc45 	bl	b694 <__retarget_lock_release_recursive>
    9e0a:	f7ff b87c 	b.w	8f06 <_vfprintf_r+0xa9e>
    9e0e:	7a81      	ldrb	r1, [r0, #10]
    9e10:	e7a3      	b.n	9d5a <_vfprintf_r+0x18f2>
    9e12:	4656      	mov	r6, sl
    9e14:	e42c      	b.n	9670 <_vfprintf_r+0x1208>
    9e16:	2302      	movs	r3, #2
    9e18:	9315      	str	r3, [sp, #84]	; 0x54
    9e1a:	e4b8      	b.n	978e <_vfprintf_r+0x1326>
    9e1c:	9b08      	ldr	r3, [sp, #32]
    9e1e:	990d      	ldr	r1, [sp, #52]	; 0x34
    9e20:	440b      	add	r3, r1
    9e22:	9305      	str	r3, [sp, #20]
    9e24:	e5eb      	b.n	99fe <_vfprintf_r+0x1596>
    9e26:	2300      	movs	r3, #0
    9e28:	9306      	str	r3, [sp, #24]
    9e2a:	f7ff ba6a 	b.w	9302 <_vfprintf_r+0xe9a>
    9e2e:	2300      	movs	r3, #0
    9e30:	930f      	str	r3, [sp, #60]	; 0x3c
    9e32:	930c      	str	r3, [sp, #48]	; 0x30
    9e34:	e74e      	b.n	9cd4 <_vfprintf_r+0x186c>
    9e36:	f8b9 300c 	ldrh.w	r3, [r9, #12]
    9e3a:	46cb      	mov	fp, r9
    9e3c:	f043 0340 	orr.w	r3, r3, #64	; 0x40
    9e40:	f8a9 300c 	strh.w	r3, [r9, #12]
    9e44:	f7ff b852 	b.w	8eec <_vfprintf_r+0xa84>

00009e48 <vfprintf>:
vfprintf():
    9e48:	f245 4ce8 	movw	ip, #21736	; 0x54e8
    9e4c:	f2c0 0c03 	movt	ip, #3
    9e50:	b500      	push	{lr}
    9e52:	468e      	mov	lr, r1
    9e54:	4613      	mov	r3, r2
    9e56:	4601      	mov	r1, r0
    9e58:	4672      	mov	r2, lr
    9e5a:	f8dc 0000 	ldr.w	r0, [ip]
    9e5e:	f85d eb04 	ldr.w	lr, [sp], #4
    9e62:	f7fe bb01 	b.w	8468 <_vfprintf_r>
    9e66:	bf00      	nop

00009e68 <__sbprintf>:
__sbprintf():
    9e68:	b5f0      	push	{r4, r5, r6, r7, lr}
    9e6a:	461f      	mov	r7, r3
    9e6c:	898b      	ldrh	r3, [r1, #12]
    9e6e:	f2ad 4d6c 	subw	sp, sp, #1132	; 0x46c
    9e72:	4615      	mov	r5, r2
    9e74:	f023 0302 	bic.w	r3, r3, #2
    9e78:	4606      	mov	r6, r0
    9e7a:	a816      	add	r0, sp, #88	; 0x58
    9e7c:	460c      	mov	r4, r1
    9e7e:	f8ad 300c 	strh.w	r3, [sp, #12]
    9e82:	6e4b      	ldr	r3, [r1, #100]	; 0x64
    9e84:	9319      	str	r3, [sp, #100]	; 0x64
    9e86:	89cb      	ldrh	r3, [r1, #14]
    9e88:	f8ad 300e 	strh.w	r3, [sp, #14]
    9e8c:	69cb      	ldr	r3, [r1, #28]
    9e8e:	9307      	str	r3, [sp, #28]
    9e90:	6a4b      	ldr	r3, [r1, #36]	; 0x24
    9e92:	9309      	str	r3, [sp, #36]	; 0x24
    9e94:	ab1a      	add	r3, sp, #104	; 0x68
    9e96:	9300      	str	r3, [sp, #0]
    9e98:	9304      	str	r3, [sp, #16]
    9e9a:	f44f 6380 	mov.w	r3, #1024	; 0x400
    9e9e:	9302      	str	r3, [sp, #8]
    9ea0:	9305      	str	r3, [sp, #20]
    9ea2:	2300      	movs	r3, #0
    9ea4:	9306      	str	r3, [sp, #24]
    9ea6:	f001 fbe5 	bl	b674 <__retarget_lock_init_recursive>
    9eaa:	462a      	mov	r2, r5
    9eac:	463b      	mov	r3, r7
    9eae:	4669      	mov	r1, sp
    9eb0:	4630      	mov	r0, r6
    9eb2:	f7fe fad9 	bl	8468 <_vfprintf_r>
    9eb6:	1e05      	subs	r5, r0, #0
    9eb8:	db08      	blt.n	9ecc <__sbprintf+0x64>
    9eba:	4669      	mov	r1, sp
    9ebc:	4630      	mov	r0, r6
    9ebe:	f001 f843 	bl	af48 <_fflush_r>
    9ec2:	f04f 33ff 	mov.w	r3, #4294967295	; 0xffffffff
    9ec6:	2800      	cmp	r0, #0
    9ec8:	bf18      	it	ne
    9eca:	461d      	movne	r5, r3
    9ecc:	f8bd 300c 	ldrh.w	r3, [sp, #12]
    9ed0:	065b      	lsls	r3, r3, #25
    9ed2:	d503      	bpl.n	9edc <__sbprintf+0x74>
    9ed4:	89a3      	ldrh	r3, [r4, #12]
    9ed6:	f043 0340 	orr.w	r3, r3, #64	; 0x40
    9eda:	81a3      	strh	r3, [r4, #12]
    9edc:	9816      	ldr	r0, [sp, #88]	; 0x58
    9ede:	f001 fbcd 	bl	b67c <__retarget_lock_close_recursive>
    9ee2:	4628      	mov	r0, r5
    9ee4:	f20d 4d6c 	addw	sp, sp, #1132	; 0x46c
    9ee8:	bdf0      	pop	{r4, r5, r6, r7, pc}
    9eea:	bf00      	nop

00009eec <__swsetup_r>:
__swsetup_r():
    9eec:	b538      	push	{r3, r4, r5, lr}
    9eee:	f245 43e8 	movw	r3, #21736	; 0x54e8
    9ef2:	f2c0 0303 	movt	r3, #3
    9ef6:	4605      	mov	r5, r0
    9ef8:	460c      	mov	r4, r1
    9efa:	6818      	ldr	r0, [r3, #0]
    9efc:	b108      	cbz	r0, 9f02 <__swsetup_r+0x16>
    9efe:	6b83      	ldr	r3, [r0, #56]	; 0x38
    9f00:	b303      	cbz	r3, 9f44 <__swsetup_r+0x58>
    9f02:	89a3      	ldrh	r3, [r4, #12]
    9f04:	f9b4 c00c 	ldrsh.w	ip, [r4, #12]
    9f08:	071a      	lsls	r2, r3, #28
    9f0a:	d522      	bpl.n	9f52 <__swsetup_r+0x66>
    9f0c:	6920      	ldr	r0, [r4, #16]
    9f0e:	b368      	cbz	r0, 9f6c <__swsetup_r+0x80>
    9f10:	f013 0101 	ands.w	r1, r3, #1
    9f14:	d106      	bne.n	9f24 <__swsetup_r+0x38>
    9f16:	079a      	lsls	r2, r3, #30
    9f18:	d400      	bmi.n	9f1c <__swsetup_r+0x30>
    9f1a:	6961      	ldr	r1, [r4, #20]
    9f1c:	60a1      	str	r1, [r4, #8]
    9f1e:	b140      	cbz	r0, 9f32 <__swsetup_r+0x46>
    9f20:	2000      	movs	r0, #0
    9f22:	bd38      	pop	{r3, r4, r5, pc}
    9f24:	2100      	movs	r1, #0
    9f26:	60a1      	str	r1, [r4, #8]
    9f28:	6961      	ldr	r1, [r4, #20]
    9f2a:	4249      	negs	r1, r1
    9f2c:	61a1      	str	r1, [r4, #24]
    9f2e:	2800      	cmp	r0, #0
    9f30:	d1f6      	bne.n	9f20 <__swsetup_r+0x34>
    9f32:	061b      	lsls	r3, r3, #24
    9f34:	d5f5      	bpl.n	9f22 <__swsetup_r+0x36>
    9f36:	f04c 0c40 	orr.w	ip, ip, #64	; 0x40
    9f3a:	f04f 30ff 	mov.w	r0, #4294967295	; 0xffffffff
    9f3e:	f8a4 c00c 	strh.w	ip, [r4, #12]
    9f42:	bd38      	pop	{r3, r4, r5, pc}
    9f44:	f001 f8b0 	bl	b0a8 <__sinit>
    9f48:	89a3      	ldrh	r3, [r4, #12]
    9f4a:	f9b4 c00c 	ldrsh.w	ip, [r4, #12]
    9f4e:	071a      	lsls	r2, r3, #28
    9f50:	d4dc      	bmi.n	9f0c <__swsetup_r+0x20>
    9f52:	06d8      	lsls	r0, r3, #27
    9f54:	d52c      	bpl.n	9fb0 <__swsetup_r+0xc4>
    9f56:	0759      	lsls	r1, r3, #29
    9f58:	d416      	bmi.n	9f88 <__swsetup_r+0x9c>
    9f5a:	6920      	ldr	r0, [r4, #16]
    9f5c:	f04c 0c08 	orr.w	ip, ip, #8
    9f60:	f8a4 c00c 	strh.w	ip, [r4, #12]
    9f64:	fa1f f38c 	uxth.w	r3, ip
    9f68:	2800      	cmp	r0, #0
    9f6a:	d1d1      	bne.n	9f10 <__swsetup_r+0x24>
    9f6c:	f403 7120 	and.w	r1, r3, #640	; 0x280
    9f70:	f5b1 7f00 	cmp.w	r1, #512	; 0x200
    9f74:	d0cc      	beq.n	9f10 <__swsetup_r+0x24>
    9f76:	4628      	mov	r0, r5
    9f78:	4621      	mov	r1, r4
    9f7a:	f001 fb8d 	bl	b698 <__smakebuf_r>
    9f7e:	f9b4 c00c 	ldrsh.w	ip, [r4, #12]
    9f82:	89a3      	ldrh	r3, [r4, #12]
    9f84:	6920      	ldr	r0, [r4, #16]
    9f86:	e7c3      	b.n	9f10 <__swsetup_r+0x24>
    9f88:	6b21      	ldr	r1, [r4, #48]	; 0x30
    9f8a:	b151      	cbz	r1, 9fa2 <__swsetup_r+0xb6>
    9f8c:	f104 0340 	add.w	r3, r4, #64	; 0x40
    9f90:	4299      	cmp	r1, r3
    9f92:	d004      	beq.n	9f9e <__swsetup_r+0xb2>
    9f94:	4628      	mov	r0, r5
    9f96:	f001 fa15 	bl	b3c4 <_free_r>
    9f9a:	f9b4 c00c 	ldrsh.w	ip, [r4, #12]
    9f9e:	2300      	movs	r3, #0
    9fa0:	6323      	str	r3, [r4, #48]	; 0x30
    9fa2:	6920      	ldr	r0, [r4, #16]
    9fa4:	2300      	movs	r3, #0
    9fa6:	f02c 0c24 	bic.w	ip, ip, #36	; 0x24
    9faa:	e9c4 0300 	strd	r0, r3, [r4]
    9fae:	e7d5      	b.n	9f5c <__swsetup_r+0x70>
    9fb0:	2309      	movs	r3, #9
    9fb2:	f04c 0c40 	orr.w	ip, ip, #64	; 0x40
    9fb6:	602b      	str	r3, [r5, #0]
    9fb8:	f04f 30ff 	mov.w	r0, #4294967295	; 0xffffffff
    9fbc:	f8a4 c00c 	strh.w	ip, [r4, #12]
    9fc0:	bd38      	pop	{r3, r4, r5, pc}
    9fc2:	bf00      	nop

00009fc4 <quorem>:
quorem():
    9fc4:	6903      	ldr	r3, [r0, #16]
    9fc6:	e92d 4ff0 	stmdb	sp!, {r4, r5, r6, r7, r8, r9, sl, fp, lr}
    9fca:	690d      	ldr	r5, [r1, #16]
    9fcc:	b083      	sub	sp, #12
    9fce:	42ab      	cmp	r3, r5
    9fd0:	bfb8      	it	lt
    9fd2:	2000      	movlt	r0, #0
    9fd4:	f2c0 8083 	blt.w	a0de <quorem+0x11a>
    9fd8:	3d01      	subs	r5, #1
    9fda:	f101 0414 	add.w	r4, r1, #20
    9fde:	f100 0814 	add.w	r8, r0, #20
    9fe2:	468a      	mov	sl, r1
    9fe4:	00a9      	lsls	r1, r5, #2
    9fe6:	4681      	mov	r9, r0
    9fe8:	f854 3025 	ldr.w	r3, [r4, r5, lsl #2]
    9fec:	1867      	adds	r7, r4, r1
    9fee:	f858 2025 	ldr.w	r2, [r8, r5, lsl #2]
    9ff2:	3301      	adds	r3, #1
    9ff4:	9100      	str	r1, [sp, #0]
    9ff6:	429a      	cmp	r2, r3
    9ff8:	4441      	add	r1, r8
    9ffa:	9101      	str	r1, [sp, #4]
    9ffc:	fbb2 f6f3 	udiv	r6, r2, r3
    a000:	d339      	bcc.n	a076 <quorem+0xb2>
    a002:	f04f 0c00 	mov.w	ip, #0
    a006:	46a6      	mov	lr, r4
    a008:	4640      	mov	r0, r8
    a00a:	4662      	mov	r2, ip
    a00c:	f85e 3b04 	ldr.w	r3, [lr], #4
    a010:	f8d0 b000 	ldr.w	fp, [r0]
    a014:	4577      	cmp	r7, lr
    a016:	b299      	uxth	r1, r3
    a018:	ea4f 4313 	mov.w	r3, r3, lsr #16
    a01c:	fb06 c101 	mla	r1, r6, r1, ip
    a020:	ea4f 4c11 	mov.w	ip, r1, lsr #16
    a024:	fb06 cc03 	mla	ip, r6, r3, ip
    a028:	b28b      	uxth	r3, r1
    a02a:	eba2 0203 	sub.w	r2, r2, r3
    a02e:	fa12 f38b 	uxtah	r3, r2, fp
    a032:	fa1f f28c 	uxth.w	r2, ip
    a036:	ea4f 4c1c 	mov.w	ip, ip, lsr #16
    a03a:	ebc2 421b 	rsb	r2, r2, fp, lsr #16
    a03e:	eb02 4223 	add.w	r2, r2, r3, asr #16
    a042:	b29b      	uxth	r3, r3
    a044:	ea43 4302 	orr.w	r3, r3, r2, lsl #16
    a048:	ea4f 4222 	mov.w	r2, r2, asr #16
    a04c:	f840 3b04 	str.w	r3, [r0], #4
    a050:	d2dc      	bcs.n	a00c <quorem+0x48>
    a052:	9b00      	ldr	r3, [sp, #0]
    a054:	f858 3003 	ldr.w	r3, [r8, r3]
    a058:	b96b      	cbnz	r3, a076 <quorem+0xb2>
    a05a:	9b01      	ldr	r3, [sp, #4]
    a05c:	3b04      	subs	r3, #4
    a05e:	4598      	cmp	r8, r3
    a060:	d303      	bcc.n	a06a <quorem+0xa6>
    a062:	e006      	b.n	a072 <quorem+0xae>
    a064:	3d01      	subs	r5, #1
    a066:	4598      	cmp	r8, r3
    a068:	d203      	bcs.n	a072 <quorem+0xae>
    a06a:	f853 2904 	ldr.w	r2, [r3], #-4
    a06e:	2a00      	cmp	r2, #0
    a070:	d0f8      	beq.n	a064 <quorem+0xa0>
    a072:	f8c9 5010 	str.w	r5, [r9, #16]
    a076:	4651      	mov	r1, sl
    a078:	4648      	mov	r0, r9
    a07a:	f002 fcc1 	bl	ca00 <__mcmp>
    a07e:	2800      	cmp	r0, #0
    a080:	db2c      	blt.n	a0dc <quorem+0x118>
    a082:	3601      	adds	r6, #1
    a084:	4640      	mov	r0, r8
    a086:	f04f 0c00 	mov.w	ip, #0
    a08a:	f854 3b04 	ldr.w	r3, [r4], #4
    a08e:	6802      	ldr	r2, [r0, #0]
    a090:	42a7      	cmp	r7, r4
    a092:	b299      	uxth	r1, r3
    a094:	ea4f 4313 	mov.w	r3, r3, lsr #16
    a098:	ebac 0101 	sub.w	r1, ip, r1
    a09c:	ebc3 4c12 	rsb	ip, r3, r2, lsr #16
    a0a0:	fa11 f382 	uxtah	r3, r1, r2
    a0a4:	eb0c 4c23 	add.w	ip, ip, r3, asr #16
    a0a8:	b29b      	uxth	r3, r3
    a0aa:	ea43 430c 	orr.w	r3, r3, ip, lsl #16
    a0ae:	ea4f 4c2c 	mov.w	ip, ip, asr #16
    a0b2:	f840 3b04 	str.w	r3, [r0], #4
    a0b6:	d2e8      	bcs.n	a08a <quorem+0xc6>
    a0b8:	f858 2025 	ldr.w	r2, [r8, r5, lsl #2]
    a0bc:	eb08 0385 	add.w	r3, r8, r5, lsl #2
    a0c0:	b962      	cbnz	r2, a0dc <quorem+0x118>
    a0c2:	3b04      	subs	r3, #4
    a0c4:	4598      	cmp	r8, r3
    a0c6:	d303      	bcc.n	a0d0 <quorem+0x10c>
    a0c8:	e006      	b.n	a0d8 <quorem+0x114>
    a0ca:	3d01      	subs	r5, #1
    a0cc:	4598      	cmp	r8, r3
    a0ce:	d203      	bcs.n	a0d8 <quorem+0x114>
    a0d0:	f853 2904 	ldr.w	r2, [r3], #-4
    a0d4:	2a00      	cmp	r2, #0
    a0d6:	d0f8      	beq.n	a0ca <quorem+0x106>
    a0d8:	f8c9 5010 	str.w	r5, [r9, #16]
    a0dc:	4630      	mov	r0, r6
    a0de:	b003      	add	sp, #12
    a0e0:	e8bd 8ff0 	ldmia.w	sp!, {r4, r5, r6, r7, r8, r9, sl, fp, pc}
    a0e4:	0000      	movs	r0, r0
	...

0000a0e8 <_dtoa_r>:
_dtoa_r():
    a0e8:	e92d 4ff0 	stmdb	sp!, {r4, r5, r6, r7, r8, r9, sl, fp, lr}
    a0ec:	ec57 6b10 	vmov	r6, r7, d0
    a0f0:	4604      	mov	r4, r0
    a0f2:	ed2d 8b02 	vpush	{d8}
    a0f6:	b08f      	sub	sp, #60	; 0x3c
    a0f8:	9102      	str	r1, [sp, #8]
    a0fa:	6c01      	ldr	r1, [r0, #64]	; 0x40
    a0fc:	9d1a      	ldr	r5, [sp, #104]	; 0x68
    a0fe:	e9cd 3205 	strd	r3, r2, [sp, #20]
    a102:	ed8d 0b00 	vstr	d0, [sp]
    a106:	b141      	cbz	r1, a11a <_dtoa_r+0x32>
    a108:	6c42      	ldr	r2, [r0, #68]	; 0x44
    a10a:	2301      	movs	r3, #1
    a10c:	604a      	str	r2, [r1, #4]
    a10e:	4093      	lsls	r3, r2
    a110:	608b      	str	r3, [r1, #8]
    a112:	f002 f9a9 	bl	c468 <_Bfree>
    a116:	2300      	movs	r3, #0
    a118:	6423      	str	r3, [r4, #64]	; 0x40
    a11a:	f1b7 0800 	subs.w	r8, r7, #0
    a11e:	f2c0 80a6 	blt.w	a26e <_dtoa_r+0x186>
    a122:	2300      	movs	r3, #0
    a124:	602b      	str	r3, [r5, #0]
    a126:	2300      	movs	r3, #0
    a128:	f6c7 73f0 	movt	r3, #32752	; 0x7ff0
    a12c:	ea33 0308 	bics.w	r3, r3, r8
    a130:	f000 80aa 	beq.w	a288 <_dtoa_r+0x1a0>
    a134:	ed9d 8b00 	vldr	d8, [sp]
    a138:	eeb5 8b40 	vcmp.f64	d8, #0.0
    a13c:	eef1 fa10 	vmrs	APSR_nzcv, fpscr
    a140:	d10f      	bne.n	a162 <_dtoa_r+0x7a>
    a142:	9a05      	ldr	r2, [sp, #20]
    a144:	2301      	movs	r3, #1
    a146:	6013      	str	r3, [r2, #0]
    a148:	9b1b      	ldr	r3, [sp, #108]	; 0x6c
    a14a:	2b00      	cmp	r3, #0
    a14c:	f000 821f 	beq.w	a58e <_dtoa_r+0x4a6>
    a150:	4ec1      	ldr	r6, [pc, #772]	; (a458 <_dtoa_r+0x370>)
    a152:	601e      	str	r6, [r3, #0]
    a154:	3e01      	subs	r6, #1
    a156:	4630      	mov	r0, r6
    a158:	b00f      	add	sp, #60	; 0x3c
    a15a:	ecbd 8b02 	vpop	{d8}
    a15e:	e8bd 8ff0 	ldmia.w	sp!, {r4, r5, r6, r7, r8, r9, sl, fp, pc}
    a162:	eeb0 0b48 	vmov.f64	d0, d8
    a166:	aa0c      	add	r2, sp, #48	; 0x30
    a168:	a90d      	add	r1, sp, #52	; 0x34
    a16a:	4620      	mov	r0, r4
    a16c:	f002 fdac 	bl	ccc8 <__d2b>
    a170:	ea5f 5318 	movs.w	r3, r8, lsr #20
    a174:	4683      	mov	fp, r0
    a176:	f040 80a1 	bne.w	a2bc <_dtoa_r+0x1d4>
    a17a:	e9dd 130c 	ldrd	r1, r3, [sp, #48]	; 0x30
    a17e:	440b      	add	r3, r1
    a180:	f203 4232 	addw	r2, r3, #1074	; 0x432
    a184:	2a20      	cmp	r2, #32
    a186:	f340 820c 	ble.w	a5a2 <_dtoa_r+0x4ba>
    a18a:	f1c2 0240 	rsb	r2, r2, #64	; 0x40
    a18e:	fa08 f802 	lsl.w	r8, r8, r2
    a192:	f203 4212 	addw	r2, r3, #1042	; 0x412
    a196:	40d6      	lsrs	r6, r2
    a198:	ea48 0206 	orr.w	r2, r8, r6
    a19c:	ee07 2a10 	vmov	s14, r2
    a1a0:	eeb8 7b47 	vcvt.f64.u32	d7, s14
    a1a4:	1e58      	subs	r0, r3, #1
    a1a6:	2701      	movs	r7, #1
    a1a8:	ee17 5a90 	vmov	r5, s15
    a1ac:	ec53 2b17 	vmov	r2, r3, d7
    a1b0:	f1a5 73f8 	sub.w	r3, r5, #32505856	; 0x1f00000
    a1b4:	ec43 2b30 	vmov	d16, r2, r3
    a1b8:	eef7 1b08 	vmov.f64	d17, #120	; 0x3fc00000  1.5
    a1bc:	eddf 4ba0 	vldr	d20, [pc, #640]	; a440 <_dtoa_r+0x358>
    a1c0:	ee07 0a90 	vmov	s15, r0
    a1c4:	ee70 1be1 	vsub.f64	d17, d16, d17
    a1c8:	eddf 0b9f 	vldr	d16, [pc, #636]	; a448 <_dtoa_r+0x360>
    a1cc:	eef8 3be7 	vcvt.f64.s32	d19, s15
    a1d0:	eddf 2b9f 	vldr	d18, [pc, #636]	; a450 <_dtoa_r+0x368>
    a1d4:	eee1 0ba4 	vfma.f64	d16, d17, d20
    a1d8:	eee3 0ba2 	vfma.f64	d16, d19, d18
    a1dc:	eef5 0bc0 	vcmpe.f64	d16, #0.0
    a1e0:	eefd 7be0 	vcvt.s32.f64	s15, d16
    a1e4:	eef1 fa10 	vmrs	APSR_nzcv, fpscr
    a1e8:	ee17 8a90 	vmov	r8, s15
    a1ec:	f100 81c4 	bmi.w	a578 <_dtoa_r+0x490>
    a1f0:	f1b8 0f16 	cmp.w	r8, #22
    a1f4:	f200 81b3 	bhi.w	a55e <_dtoa_r+0x476>
    a1f8:	f643 4388 	movw	r3, #15496	; 0x3c88
    a1fc:	f2c0 0302 	movt	r3, #2
    a200:	eb03 03c8 	add.w	r3, r3, r8, lsl #3
    a204:	edd3 0b00 	vldr	d16, [r3]
    a208:	eeb4 8be0 	vcmpe.f64	d8, d16
    a20c:	eef1 fa10 	vmrs	APSR_nzcv, fpscr
    a210:	d56e      	bpl.n	a2f0 <_dtoa_r+0x208>
    a212:	2300      	movs	r3, #0
    a214:	930a      	str	r3, [sp, #40]	; 0x28
    a216:	1a0b      	subs	r3, r1, r0
    a218:	f108 38ff 	add.w	r8, r8, #4294967295	; 0xffffffff
    a21c:	f1b3 0901 	subs.w	r9, r3, #1
    a220:	f100 81a4 	bmi.w	a56c <_dtoa_r+0x484>
    a224:	2300      	movs	r3, #0
    a226:	9307      	str	r3, [sp, #28]
    a228:	f1b8 0f00 	cmp.w	r8, #0
    a22c:	da68      	bge.n	a300 <_dtoa_r+0x218>
    a22e:	9b07      	ldr	r3, [sp, #28]
    a230:	f8cd 8010 	str.w	r8, [sp, #16]
    a234:	eba3 0308 	sub.w	r3, r3, r8
    a238:	9307      	str	r3, [sp, #28]
    a23a:	f1c8 0300 	rsb	r3, r8, #0
    a23e:	9309      	str	r3, [sp, #36]	; 0x24
    a240:	9b02      	ldr	r3, [sp, #8]
    a242:	f04f 0800 	mov.w	r8, #0
    a246:	2b09      	cmp	r3, #9
    a248:	d862      	bhi.n	a310 <_dtoa_r+0x228>
    a24a:	2b05      	cmp	r3, #5
    a24c:	bfd8      	it	le
    a24e:	2501      	movle	r5, #1
    a250:	dd02      	ble.n	a258 <_dtoa_r+0x170>
    a252:	2500      	movs	r5, #0
    a254:	3b04      	subs	r3, #4
    a256:	9302      	str	r3, [sp, #8]
    a258:	9b02      	ldr	r3, [sp, #8]
    a25a:	3b02      	subs	r3, #2
    a25c:	2b03      	cmp	r3, #3
    a25e:	f200 84ab 	bhi.w	abb8 <_dtoa_r+0xad0>
    a262:	e8df f013 	tbh	[pc, r3, lsl #1]
    a266:	035b035e 	cmpeq	fp, #2013265921	; 0x78000001
    a26a:	03360352 	teqeq	r6, #1207959553	; 0x48000001
    a26e:	f028 4800 	bic.w	r8, r8, #2147483648	; 0x80000000
    a272:	2301      	movs	r3, #1
    a274:	602b      	str	r3, [r5, #0]
    a276:	2300      	movs	r3, #0
    a278:	f6c7 73f0 	movt	r3, #32752	; 0x7ff0
    a27c:	f8cd 8004 	str.w	r8, [sp, #4]
    a280:	ea33 0308 	bics.w	r3, r3, r8
    a284:	f47f af56 	bne.w	a134 <_dtoa_r+0x4c>
    a288:	9a05      	ldr	r2, [sp, #20]
    a28a:	f3c8 0813 	ubfx	r8, r8, #0, #20
    a28e:	f242 730f 	movw	r3, #9999	; 0x270f
    a292:	6013      	str	r3, [r2, #0]
    a294:	ea58 0306 	orrs.w	r3, r8, r6
    a298:	d01f      	beq.n	a2da <_dtoa_r+0x1f2>
    a29a:	9b1b      	ldr	r3, [sp, #108]	; 0x6c
    a29c:	f643 3638 	movw	r6, #15160	; 0x3b38
    a2a0:	f2c0 0602 	movt	r6, #2
    a2a4:	2b00      	cmp	r3, #0
    a2a6:	f43f af56 	beq.w	a156 <_dtoa_r+0x6e>
    a2aa:	1cf3      	adds	r3, r6, #3
    a2ac:	9a1b      	ldr	r2, [sp, #108]	; 0x6c
    a2ae:	4630      	mov	r0, r6
    a2b0:	6013      	str	r3, [r2, #0]
    a2b2:	b00f      	add	sp, #60	; 0x3c
    a2b4:	ecbd 8b02 	vpop	{d8}
    a2b8:	e8bd 8ff0 	ldmia.w	sp!, {r4, r5, r6, r7, r8, r9, sl, fp, pc}
    a2bc:	ee18 5a90 	vmov	r5, s17
    a2c0:	f2a3 30ff 	subw	r0, r3, #1023	; 0x3ff
    a2c4:	ec53 2b18 	vmov	r2, r3, d8
    a2c8:	990c      	ldr	r1, [sp, #48]	; 0x30
    a2ca:	2700      	movs	r7, #0
    a2cc:	f3c5 0513 	ubfx	r5, r5, #0, #20
    a2d0:	f045 537f 	orr.w	r3, r5, #1069547520	; 0x3fc00000
    a2d4:	f443 1340 	orr.w	r3, r3, #3145728	; 0x300000
    a2d8:	e76c      	b.n	a1b4 <_dtoa_r+0xcc>
    a2da:	9b1b      	ldr	r3, [sp, #108]	; 0x6c
    a2dc:	f643 363c 	movw	r6, #15164	; 0x3b3c
    a2e0:	f2c0 0602 	movt	r6, #2
    a2e4:	2b00      	cmp	r3, #0
    a2e6:	f43f af36 	beq.w	a156 <_dtoa_r+0x6e>
    a2ea:	f106 0308 	add.w	r3, r6, #8
    a2ee:	e7dd      	b.n	a2ac <_dtoa_r+0x1c4>
    a2f0:	1a0b      	subs	r3, r1, r0
    a2f2:	f1b3 0901 	subs.w	r9, r3, #1
    a2f6:	f100 8445 	bmi.w	ab84 <_dtoa_r+0xa9c>
    a2fa:	2300      	movs	r3, #0
    a2fc:	930a      	str	r3, [sp, #40]	; 0x28
    a2fe:	9307      	str	r3, [sp, #28]
    a300:	2300      	movs	r3, #0
    a302:	9309      	str	r3, [sp, #36]	; 0x24
    a304:	9b02      	ldr	r3, [sp, #8]
    a306:	44c1      	add	r9, r8
    a308:	f8cd 8010 	str.w	r8, [sp, #16]
    a30c:	2b09      	cmp	r3, #9
    a30e:	d99c      	bls.n	a24a <_dtoa_r+0x162>
    a310:	f04f 3aff 	mov.w	sl, #4294967295	; 0xffffffff
    a314:	2300      	movs	r3, #0
    a316:	2501      	movs	r5, #1
    a318:	9302      	str	r3, [sp, #8]
    a31a:	9508      	str	r5, [sp, #32]
    a31c:	9306      	str	r3, [sp, #24]
    a31e:	2100      	movs	r1, #0
    a320:	f8cd a02c 	str.w	sl, [sp, #44]	; 0x2c
    a324:	6461      	str	r1, [r4, #68]	; 0x44
    a326:	4620      	mov	r0, r4
    a328:	f002 f878 	bl	c41c <_Balloc>
    a32c:	9003      	str	r0, [sp, #12]
    a32e:	2800      	cmp	r0, #0
    a330:	f000 854f 	beq.w	add2 <_dtoa_r+0xcea>
    a334:	9b03      	ldr	r3, [sp, #12]
    a336:	f1ba 0f0e 	cmp.w	sl, #14
    a33a:	f005 0501 	and.w	r5, r5, #1
    a33e:	6423      	str	r3, [r4, #64]	; 0x40
    a340:	bf88      	it	hi
    a342:	2500      	movhi	r5, #0
    a344:	2d00      	cmp	r5, #0
    a346:	f000 80dd 	beq.w	a504 <_dtoa_r+0x41c>
    a34a:	9904      	ldr	r1, [sp, #16]
    a34c:	2900      	cmp	r1, #0
    a34e:	f340 825a 	ble.w	a806 <_dtoa_r+0x71e>
    a352:	f001 020f 	and.w	r2, r1, #15
    a356:	f643 4388 	movw	r3, #15496	; 0x3c88
    a35a:	f2c0 0302 	movt	r3, #2
    a35e:	05cd      	lsls	r5, r1, #23
    a360:	eb03 03c2 	add.w	r3, r3, r2, lsl #3
    a364:	edd3 0b00 	vldr	d16, [r3]
    a368:	ea4f 1321 	mov.w	r3, r1, asr #4
    a36c:	f140 82ad 	bpl.w	a8ca <_dtoa_r+0x7e2>
    a370:	f643 4260 	movw	r2, #15456	; 0x3c60
    a374:	f2c0 0202 	movt	r2, #2
    a378:	f003 030f 	and.w	r3, r3, #15
    a37c:	2103      	movs	r1, #3
    a37e:	edd2 1b08 	vldr	d17, [r2, #32]
    a382:	eec8 2b21 	vdiv.f64	d18, d8, d17
    a386:	b16b      	cbz	r3, a3a4 <_dtoa_r+0x2bc>
    a388:	f643 4260 	movw	r2, #15456	; 0x3c60
    a38c:	f2c0 0202 	movt	r2, #2
    a390:	07d8      	lsls	r0, r3, #31
    a392:	d504      	bpl.n	a39e <_dtoa_r+0x2b6>
    a394:	edd2 1b00 	vldr	d17, [r2]
    a398:	3101      	adds	r1, #1
    a39a:	ee60 0ba1 	vmul.f64	d16, d16, d17
    a39e:	3208      	adds	r2, #8
    a3a0:	105b      	asrs	r3, r3, #1
    a3a2:	d1f5      	bne.n	a390 <_dtoa_r+0x2a8>
    a3a4:	eec2 1ba0 	vdiv.f64	d17, d18, d16
    a3a8:	9b0a      	ldr	r3, [sp, #40]	; 0x28
    a3aa:	b13b      	cbz	r3, a3bc <_dtoa_r+0x2d4>
    a3ac:	eef7 0b00 	vmov.f64	d16, #112	; 0x3f800000  1.0
    a3b0:	eef4 1be0 	vcmpe.f64	d17, d16
    a3b4:	eef1 fa10 	vmrs	APSR_nzcv, fpscr
    a3b8:	f100 83c6 	bmi.w	ab48 <_dtoa_r+0xa60>
    a3bc:	ee07 1a90 	vmov	s15, r1
    a3c0:	eef8 0be7 	vcvt.f64.s32	d16, s15
    a3c4:	eeb1 7b0c 	vmov.f64	d7, #28	; 0x40e00000  7.0
    a3c8:	eea0 7ba1 	vfma.f64	d7, d16, d17
    a3cc:	ee17 1a90 	vmov	r1, s15
    a3d0:	ec53 2b17 	vmov	r2, r3, d7
    a3d4:	f1a1 7350 	sub.w	r3, r1, #54525952	; 0x3400000
    a3d8:	f1ba 0f00 	cmp.w	sl, #0
    a3dc:	d07e      	beq.n	a4dc <_dtoa_r+0x3f4>
    a3de:	9904      	ldr	r1, [sp, #16]
    a3e0:	4650      	mov	r0, sl
    a3e2:	9d08      	ldr	r5, [sp, #32]
    a3e4:	2d00      	cmp	r5, #0
    a3e6:	f000 829f 	beq.w	a928 <_dtoa_r+0x840>
    a3ea:	eefd 7be1 	vcvt.s32.f64	s15, d17
    a3ee:	f643 4588 	movw	r5, #15496	; 0x3c88
    a3f2:	f2c0 0502 	movt	r5, #2
    a3f6:	eef6 3b00 	vmov.f64	d19, #96	; 0x3f000000  0.5
    a3fa:	eb05 05c0 	add.w	r5, r5, r0, lsl #3
    a3fe:	eef8 0be7 	vcvt.f64.s32	d16, s15
    a402:	ed55 2b02 	vldr	d18, [r5, #-8]
    a406:	ee71 0be0 	vsub.f64	d16, d17, d16
    a40a:	eec3 1ba2 	vdiv.f64	d17, d19, d18
    a40e:	ec43 2b32 	vmov	d18, r2, r3
    a412:	ee17 2a90 	vmov	r2, s15
    a416:	9b03      	ldr	r3, [sp, #12]
    a418:	3230      	adds	r2, #48	; 0x30
    a41a:	f803 2b01 	strb.w	r2, [r3], #1
    a41e:	ee71 1be2 	vsub.f64	d17, d17, d18
    a422:	eef4 1be0 	vcmpe.f64	d17, d16
    a426:	eef1 fa10 	vmrs	APSR_nzcv, fpscr
    a42a:	f300 844d 	bgt.w	acc8 <_dtoa_r+0xbe0>
    a42e:	2500      	movs	r5, #0
    a430:	eef7 4b00 	vmov.f64	d20, #112	; 0x3f800000  1.0
    a434:	eef2 3b04 	vmov.f64	d19, #36	; 0x41200000  10.0
    a438:	e028      	b.n	a48c <_dtoa_r+0x3a4>
    a43a:	bf00      	nop
    a43c:	f3af 8000 	nop.w
    a440:	636f4361 	cmnvs	pc, #-2080374783	; 0x84000001
    a444:	3fd287a7 	svccc	0x00d287a7
    a448:	8b60c8b3 	blhi	183c71c <_stack+0x17bc71c>
    a44c:	3fc68a28 	svccc	0x00c68a28
    a450:	509f79fb 			; <UNDEFINED> instruction: 0x509f79fb
    a454:	3fd34413 	svccc	0x00d34413
    a458:	00023b15 	andeq	r3, r2, r5, lsl fp
    a45c:	3501      	adds	r5, #1
    a45e:	4285      	cmp	r5, r0
    a460:	da50      	bge.n	a504 <_dtoa_r+0x41c>
    a462:	ee60 0ba3 	vmul.f64	d16, d16, d19
    a466:	ee61 1ba3 	vmul.f64	d17, d17, d19
    a46a:	eefd 7be0 	vcvt.s32.f64	s15, d16
    a46e:	eef8 2be7 	vcvt.f64.s32	d18, s15
    a472:	ee17 2a90 	vmov	r2, s15
    a476:	ee70 0be2 	vsub.f64	d16, d16, d18
    a47a:	3230      	adds	r2, #48	; 0x30
    a47c:	f803 2b01 	strb.w	r2, [r3], #1
    a480:	eef4 0be1 	vcmpe.f64	d16, d17
    a484:	eef1 fa10 	vmrs	APSR_nzcv, fpscr
    a488:	f100 841e 	bmi.w	acc8 <_dtoa_r+0xbe0>
    a48c:	ee74 2be0 	vsub.f64	d18, d20, d16
    a490:	eef4 2be1 	vcmpe.f64	d18, d17
    a494:	eef1 fa10 	vmrs	APSR_nzcv, fpscr
    a498:	d5e0      	bpl.n	a45c <_dtoa_r+0x374>
    a49a:	9d03      	ldr	r5, [sp, #12]
    a49c:	e002      	b.n	a4a4 <_dtoa_r+0x3bc>
    a49e:	429d      	cmp	r5, r3
    a4a0:	f000 83f3 	beq.w	ac8a <_dtoa_r+0xba2>
    a4a4:	4618      	mov	r0, r3
    a4a6:	f813 2d01 	ldrb.w	r2, [r3, #-1]!
    a4aa:	2a39      	cmp	r2, #57	; 0x39
    a4ac:	d0f7      	beq.n	a49e <_dtoa_r+0x3b6>
    a4ae:	3201      	adds	r2, #1
    a4b0:	9503      	str	r5, [sp, #12]
    a4b2:	b2d2      	uxtb	r2, r2
    a4b4:	701a      	strb	r2, [r3, #0]
    a4b6:	9e03      	ldr	r6, [sp, #12]
    a4b8:	1c4b      	adds	r3, r1, #1
    a4ba:	e9cd 0303 	strd	r0, r3, [sp, #12]
    a4be:	e18b      	b.n	a7d8 <_dtoa_r+0x6f0>
    a4c0:	ee07 1a90 	vmov	s15, r1
    a4c4:	eef8 0be7 	vcvt.f64.s32	d16, s15
    a4c8:	eeb1 7b0c 	vmov.f64	d7, #28	; 0x40e00000  7.0
    a4cc:	eea1 7ba0 	vfma.f64	d7, d17, d16
    a4d0:	ee17 1a90 	vmov	r1, s15
    a4d4:	ec53 2b17 	vmov	r2, r3, d7
    a4d8:	f1a1 7350 	sub.w	r3, r1, #54525952	; 0x3400000
    a4dc:	eef1 0b04 	vmov.f64	d16, #20	; 0x40a00000  5.0
    a4e0:	ec43 2b32 	vmov	d18, r2, r3
    a4e4:	ee71 0be0 	vsub.f64	d16, d17, d16
    a4e8:	eef4 0be2 	vcmpe.f64	d16, d18
    a4ec:	eef1 fa10 	vmrs	APSR_nzcv, fpscr
    a4f0:	f300 835f 	bgt.w	abb2 <_dtoa_r+0xaca>
    a4f4:	eef1 2b62 	vneg.f64	d18, d18
    a4f8:	eef4 0be2 	vcmpe.f64	d16, d18
    a4fc:	eef1 fa10 	vmrs	APSR_nzcv, fpscr
    a500:	f100 82e5 	bmi.w	aace <_dtoa_r+0x9e6>
    a504:	9b0d      	ldr	r3, [sp, #52]	; 0x34
    a506:	9904      	ldr	r1, [sp, #16]
    a508:	43da      	mvns	r2, r3
    a50a:	290e      	cmp	r1, #14
    a50c:	ea4f 72d2 	mov.w	r2, r2, lsr #31
    a510:	bfc8      	it	gt
    a512:	2200      	movgt	r2, #0
    a514:	2a00      	cmp	r2, #0
    a516:	f040 81a0 	bne.w	a85a <_dtoa_r+0x772>
    a51a:	9a08      	ldr	r2, [sp, #32]
    a51c:	2a00      	cmp	r2, #0
    a51e:	d047      	beq.n	a5b0 <_dtoa_r+0x4c8>
    a520:	9a02      	ldr	r2, [sp, #8]
    a522:	2a01      	cmp	r2, #1
    a524:	f340 8331 	ble.w	ab8a <_dtoa_r+0xaa2>
    a528:	9b09      	ldr	r3, [sp, #36]	; 0x24
    a52a:	f10a 37ff 	add.w	r7, sl, #4294967295	; 0xffffffff
    a52e:	42bb      	cmp	r3, r7
    a530:	bfa8      	it	ge
    a532:	1bdf      	subge	r7, r3, r7
    a534:	da04      	bge.n	a540 <_dtoa_r+0x458>
    a536:	9b09      	ldr	r3, [sp, #36]	; 0x24
    a538:	9709      	str	r7, [sp, #36]	; 0x24
    a53a:	1afb      	subs	r3, r7, r3
    a53c:	2700      	movs	r7, #0
    a53e:	4498      	add	r8, r3
    a540:	f1ba 0f00 	cmp.w	sl, #0
    a544:	f2c0 82dd 	blt.w	ab02 <_dtoa_r+0xa1a>
    a548:	9b07      	ldr	r3, [sp, #28]
    a54a:	44d1      	add	r9, sl
    a54c:	461e      	mov	r6, r3
    a54e:	4453      	add	r3, sl
    a550:	9307      	str	r3, [sp, #28]
    a552:	2101      	movs	r1, #1
    a554:	4620      	mov	r0, r4
    a556:	f002 f88f 	bl	c678 <__i2b>
    a55a:	4605      	mov	r5, r0
    a55c:	e02b      	b.n	a5b6 <_dtoa_r+0x4ce>
    a55e:	2301      	movs	r3, #1
    a560:	930a      	str	r3, [sp, #40]	; 0x28
    a562:	1a0b      	subs	r3, r1, r0
    a564:	f1b3 0901 	subs.w	r9, r3, #1
    a568:	f57f ae5c 	bpl.w	a224 <_dtoa_r+0x13c>
    a56c:	f1c3 0301 	rsb	r3, r3, #1
    a570:	f04f 0900 	mov.w	r9, #0
    a574:	9307      	str	r3, [sp, #28]
    a576:	e657      	b.n	a228 <_dtoa_r+0x140>
    a578:	eef8 1be7 	vcvt.f64.s32	d17, s15
    a57c:	eef4 1b60 	vcmp.f64	d17, d16
    a580:	eef1 fa10 	vmrs	APSR_nzcv, fpscr
    a584:	f43f ae34 	beq.w	a1f0 <_dtoa_r+0x108>
    a588:	f108 38ff 	add.w	r8, r8, #4294967295	; 0xffffffff
    a58c:	e630      	b.n	a1f0 <_dtoa_r+0x108>
    a58e:	f643 3614 	movw	r6, #15124	; 0x3b14
    a592:	f2c0 0602 	movt	r6, #2
    a596:	4630      	mov	r0, r6
    a598:	b00f      	add	sp, #60	; 0x3c
    a59a:	ecbd 8b02 	vpop	{d8}
    a59e:	e8bd 8ff0 	ldmia.w	sp!, {r4, r5, r6, r7, r8, r9, sl, fp, pc}
    a5a2:	f1c2 0220 	rsb	r2, r2, #32
    a5a6:	fa06 f202 	lsl.w	r2, r6, r2
    a5aa:	ee07 2a10 	vmov	s14, r2
    a5ae:	e5f7      	b.n	a1a0 <_dtoa_r+0xb8>
    a5b0:	9f09      	ldr	r7, [sp, #36]	; 0x24
    a5b2:	e9dd 6507 	ldrd	r6, r5, [sp, #28]
    a5b6:	464b      	mov	r3, r9
    a5b8:	2e00      	cmp	r6, #0
    a5ba:	bfc8      	it	gt
    a5bc:	2b00      	cmpgt	r3, #0
    a5be:	dd09      	ble.n	a5d4 <_dtoa_r+0x4ec>
    a5c0:	454e      	cmp	r6, r9
    a5c2:	4633      	mov	r3, r6
    a5c4:	9a07      	ldr	r2, [sp, #28]
    a5c6:	bfa8      	it	ge
    a5c8:	464b      	movge	r3, r9
    a5ca:	1af6      	subs	r6, r6, r3
    a5cc:	eba9 0903 	sub.w	r9, r9, r3
    a5d0:	1ad2      	subs	r2, r2, r3
    a5d2:	9207      	str	r2, [sp, #28]
    a5d4:	9b09      	ldr	r3, [sp, #36]	; 0x24
    a5d6:	b153      	cbz	r3, a5ee <_dtoa_r+0x506>
    a5d8:	9b08      	ldr	r3, [sp, #32]
    a5da:	2b00      	cmp	r3, #0
    a5dc:	f000 82e2 	beq.w	aba4 <_dtoa_r+0xabc>
    a5e0:	2f00      	cmp	r7, #0
    a5e2:	f300 8277 	bgt.w	aad4 <_dtoa_r+0x9ec>
    a5e6:	9b09      	ldr	r3, [sp, #36]	; 0x24
    a5e8:	1bda      	subs	r2, r3, r7
    a5ea:	f040 8284 	bne.w	aaf6 <_dtoa_r+0xa0e>
    a5ee:	2101      	movs	r1, #1
    a5f0:	4620      	mov	r0, r4
    a5f2:	f002 f841 	bl	c678 <__i2b>
    a5f6:	f1b8 0f00 	cmp.w	r8, #0
    a5fa:	4607      	mov	r7, r0
    a5fc:	f300 8150 	bgt.w	a8a0 <_dtoa_r+0x7b8>
    a600:	9b02      	ldr	r3, [sp, #8]
    a602:	2b01      	cmp	r3, #1
    a604:	f340 8293 	ble.w	ab2e <_dtoa_r+0xa46>
    a608:	2300      	movs	r3, #0
    a60a:	9309      	str	r3, [sp, #36]	; 0x24
    a60c:	2301      	movs	r3, #1
    a60e:	f1b8 0f00 	cmp.w	r8, #0
    a612:	f040 8151 	bne.w	a8b8 <_dtoa_r+0x7d0>
    a616:	444b      	add	r3, r9
    a618:	f013 031f 	ands.w	r3, r3, #31
    a61c:	f000 80f1 	beq.w	a802 <_dtoa_r+0x71a>
    a620:	f1c3 0220 	rsb	r2, r3, #32
    a624:	2a04      	cmp	r2, #4
    a626:	f340 83cf 	ble.w	adc8 <_dtoa_r+0xce0>
    a62a:	f1c3 031c 	rsb	r3, r3, #28
    a62e:	9a07      	ldr	r2, [sp, #28]
    a630:	441e      	add	r6, r3
    a632:	4499      	add	r9, r3
    a634:	441a      	add	r2, r3
    a636:	9207      	str	r2, [sp, #28]
    a638:	9b07      	ldr	r3, [sp, #28]
    a63a:	2b00      	cmp	r3, #0
    a63c:	dd05      	ble.n	a64a <_dtoa_r+0x562>
    a63e:	4659      	mov	r1, fp
    a640:	461a      	mov	r2, r3
    a642:	4620      	mov	r0, r4
    a644:	f002 f966 	bl	c914 <__lshift>
    a648:	4683      	mov	fp, r0
    a64a:	f1b9 0f00 	cmp.w	r9, #0
    a64e:	dd05      	ble.n	a65c <_dtoa_r+0x574>
    a650:	4639      	mov	r1, r7
    a652:	464a      	mov	r2, r9
    a654:	4620      	mov	r0, r4
    a656:	f002 f95d 	bl	c914 <__lshift>
    a65a:	4607      	mov	r7, r0
    a65c:	9b0a      	ldr	r3, [sp, #40]	; 0x28
    a65e:	2b00      	cmp	r3, #0
    a660:	d17e      	bne.n	a760 <_dtoa_r+0x678>
    a662:	9a02      	ldr	r2, [sp, #8]
    a664:	f1ba 0f00 	cmp.w	sl, #0
    a668:	bfd8      	it	le
    a66a:	2301      	movle	r3, #1
    a66c:	bfc8      	it	gt
    a66e:	2300      	movgt	r3, #0
    a670:	2a02      	cmp	r2, #2
    a672:	bfd8      	it	le
    a674:	2300      	movle	r3, #0
    a676:	2b00      	cmp	r3, #0
    a678:	f040 809a 	bne.w	a7b0 <_dtoa_r+0x6c8>
    a67c:	9b08      	ldr	r3, [sp, #32]
    a67e:	2b00      	cmp	r3, #0
    a680:	f000 81b1 	beq.w	a9e6 <_dtoa_r+0x8fe>
    a684:	2e00      	cmp	r6, #0
    a686:	dd05      	ble.n	a694 <_dtoa_r+0x5ac>
    a688:	4629      	mov	r1, r5
    a68a:	4632      	mov	r2, r6
    a68c:	4620      	mov	r0, r4
    a68e:	f002 f941 	bl	c914 <__lshift>
    a692:	4605      	mov	r5, r0
    a694:	9b09      	ldr	r3, [sp, #36]	; 0x24
    a696:	46a9      	mov	r9, r5
    a698:	2b00      	cmp	r3, #0
    a69a:	f040 831a 	bne.w	acd2 <_dtoa_r+0xbea>
    a69e:	9b00      	ldr	r3, [sp, #0]
    a6a0:	9a03      	ldr	r2, [sp, #12]
    a6a2:	f003 0301 	and.w	r3, r3, #1
    a6a6:	9300      	str	r3, [sp, #0]
    a6a8:	4690      	mov	r8, r2
    a6aa:	1e53      	subs	r3, r2, #1
    a6ac:	4453      	add	r3, sl
    a6ae:	9309      	str	r3, [sp, #36]	; 0x24
    a6b0:	4639      	mov	r1, r7
    a6b2:	4658      	mov	r0, fp
    a6b4:	f7ff fc86 	bl	9fc4 <quorem>
    a6b8:	4629      	mov	r1, r5
    a6ba:	4682      	mov	sl, r0
    a6bc:	4658      	mov	r0, fp
    a6be:	f002 f99f 	bl	ca00 <__mcmp>
    a6c2:	464a      	mov	r2, r9
    a6c4:	4639      	mov	r1, r7
    a6c6:	4606      	mov	r6, r0
    a6c8:	4620      	mov	r0, r4
    a6ca:	f002 f9bb 	bl	ca44 <__mdiff>
    a6ce:	68c2      	ldr	r2, [r0, #12]
    a6d0:	4601      	mov	r1, r0
    a6d2:	f10a 0330 	add.w	r3, sl, #48	; 0x30
    a6d6:	2a00      	cmp	r2, #0
    a6d8:	f040 8217 	bne.w	ab0a <_dtoa_r+0xa22>
    a6dc:	e9cd 0307 	strd	r0, r3, [sp, #28]
    a6e0:	4658      	mov	r0, fp
    a6e2:	f002 f98d 	bl	ca00 <__mcmp>
    a6e6:	9907      	ldr	r1, [sp, #28]
    a6e8:	9006      	str	r0, [sp, #24]
    a6ea:	4620      	mov	r0, r4
    a6ec:	f001 febc 	bl	c468 <_Bfree>
    a6f0:	9b02      	ldr	r3, [sp, #8]
    a6f2:	9a06      	ldr	r2, [sp, #24]
    a6f4:	ea42 0103 	orr.w	r1, r2, r3
    a6f8:	9b00      	ldr	r3, [sp, #0]
    a6fa:	430b      	orrs	r3, r1
    a6fc:	9b08      	ldr	r3, [sp, #32]
    a6fe:	f000 8328 	beq.w	ad52 <_dtoa_r+0xc6a>
    a702:	2e00      	cmp	r6, #0
    a704:	f2c0 82c5 	blt.w	ac92 <_dtoa_r+0xbaa>
    a708:	9902      	ldr	r1, [sp, #8]
    a70a:	430e      	orrs	r6, r1
    a70c:	9900      	ldr	r1, [sp, #0]
    a70e:	4331      	orrs	r1, r6
    a710:	f000 82bf 	beq.w	ac92 <_dtoa_r+0xbaa>
    a714:	2a00      	cmp	r2, #0
    a716:	f300 8306 	bgt.w	ad26 <_dtoa_r+0xc3e>
    a71a:	9a09      	ldr	r2, [sp, #36]	; 0x24
    a71c:	f108 0601 	add.w	r6, r8, #1
    a720:	46b2      	mov	sl, r6
    a722:	f888 3000 	strb.w	r3, [r8]
    a726:	4542      	cmp	r2, r8
    a728:	f000 830b 	beq.w	ad42 <_dtoa_r+0xc5a>
    a72c:	4659      	mov	r1, fp
    a72e:	2300      	movs	r3, #0
    a730:	220a      	movs	r2, #10
    a732:	4620      	mov	r0, r4
    a734:	f001 fea2 	bl	c47c <__multadd>
    a738:	4629      	mov	r1, r5
    a73a:	4683      	mov	fp, r0
    a73c:	2300      	movs	r3, #0
    a73e:	220a      	movs	r2, #10
    a740:	4620      	mov	r0, r4
    a742:	454d      	cmp	r5, r9
    a744:	f000 81e8 	beq.w	ab18 <_dtoa_r+0xa30>
    a748:	f001 fe98 	bl	c47c <__multadd>
    a74c:	4649      	mov	r1, r9
    a74e:	4605      	mov	r5, r0
    a750:	2300      	movs	r3, #0
    a752:	220a      	movs	r2, #10
    a754:	4620      	mov	r0, r4
    a756:	f001 fe91 	bl	c47c <__multadd>
    a75a:	46b0      	mov	r8, r6
    a75c:	4681      	mov	r9, r0
    a75e:	e7a7      	b.n	a6b0 <_dtoa_r+0x5c8>
    a760:	4639      	mov	r1, r7
    a762:	4658      	mov	r0, fp
    a764:	f002 f94c 	bl	ca00 <__mcmp>
    a768:	2800      	cmp	r0, #0
    a76a:	f6bf af7a 	bge.w	a662 <_dtoa_r+0x57a>
    a76e:	4659      	mov	r1, fp
    a770:	2300      	movs	r3, #0
    a772:	220a      	movs	r2, #10
    a774:	4620      	mov	r0, r4
    a776:	f001 fe81 	bl	c47c <__multadd>
    a77a:	9b04      	ldr	r3, [sp, #16]
    a77c:	4683      	mov	fp, r0
    a77e:	f103 38ff 	add.w	r8, r3, #4294967295	; 0xffffffff
    a782:	9b08      	ldr	r3, [sp, #32]
    a784:	2b00      	cmp	r3, #0
    a786:	f040 82e9 	bne.w	ad5c <_dtoa_r+0xc74>
    a78a:	9a0b      	ldr	r2, [sp, #44]	; 0x2c
    a78c:	9902      	ldr	r1, [sp, #8]
    a78e:	2a00      	cmp	r2, #0
    a790:	4613      	mov	r3, r2
    a792:	bfd8      	it	le
    a794:	2301      	movle	r3, #1
    a796:	bfc8      	it	gt
    a798:	2300      	movgt	r3, #0
    a79a:	2902      	cmp	r1, #2
    a79c:	4692      	mov	sl, r2
    a79e:	bfd8      	it	le
    a7a0:	2300      	movle	r3, #0
    a7a2:	2b00      	cmp	r3, #0
    a7a4:	f000 8122 	beq.w	a9ec <_dtoa_r+0x904>
    a7a8:	f8cd 8010 	str.w	r8, [sp, #16]
    a7ac:	f8dd a02c 	ldr.w	sl, [sp, #44]	; 0x2c
    a7b0:	f1ba 0f00 	cmp.w	sl, #0
    a7b4:	f000 80ff 	beq.w	a9b6 <_dtoa_r+0x8ce>
    a7b8:	9b06      	ldr	r3, [sp, #24]
    a7ba:	9e03      	ldr	r6, [sp, #12]
    a7bc:	ea6f 0803 	mvn.w	r8, r3
    a7c0:	4639      	mov	r1, r7
    a7c2:	4620      	mov	r0, r4
    a7c4:	f001 fe50 	bl	c468 <_Bfree>
    a7c8:	f108 0301 	add.w	r3, r8, #1
    a7cc:	9304      	str	r3, [sp, #16]
    a7ce:	b11d      	cbz	r5, a7d8 <_dtoa_r+0x6f0>
    a7d0:	4629      	mov	r1, r5
    a7d2:	4620      	mov	r0, r4
    a7d4:	f001 fe48 	bl	c468 <_Bfree>
    a7d8:	4659      	mov	r1, fp
    a7da:	4620      	mov	r0, r4
    a7dc:	f001 fe44 	bl	c468 <_Bfree>
    a7e0:	9a03      	ldr	r2, [sp, #12]
    a7e2:	2300      	movs	r3, #0
    a7e4:	7013      	strb	r3, [r2, #0]
    a7e6:	e9dd 1304 	ldrd	r1, r3, [sp, #16]
    a7ea:	6019      	str	r1, [r3, #0]
    a7ec:	9b1b      	ldr	r3, [sp, #108]	; 0x6c
    a7ee:	2b00      	cmp	r3, #0
    a7f0:	f43f acb1 	beq.w	a156 <_dtoa_r+0x6e>
    a7f4:	4630      	mov	r0, r6
    a7f6:	601a      	str	r2, [r3, #0]
    a7f8:	b00f      	add	sp, #60	; 0x3c
    a7fa:	ecbd 8b02 	vpop	{d8}
    a7fe:	e8bd 8ff0 	ldmia.w	sp!, {r4, r5, r6, r7, r8, r9, sl, fp, pc}
    a802:	231c      	movs	r3, #28
    a804:	e713      	b.n	a62e <_dtoa_r+0x546>
    a806:	f000 8143 	beq.w	aa90 <_dtoa_r+0x9a8>
    a80a:	9b04      	ldr	r3, [sp, #16]
    a80c:	f643 4288 	movw	r2, #15496	; 0x3c88
    a810:	f2c0 0202 	movt	r2, #2
    a814:	425b      	negs	r3, r3
    a816:	f003 010f 	and.w	r1, r3, #15
    a81a:	111b      	asrs	r3, r3, #4
    a81c:	eb02 02c1 	add.w	r2, r2, r1, lsl #3
    a820:	edd2 2b00 	vldr	d18, [r2]
    a824:	ee68 2b22 	vmul.f64	d18, d8, d18
    a828:	eef0 1b62 	vmov.f64	d17, d18
    a82c:	f000 82b5 	beq.w	ad9a <_dtoa_r+0xcb2>
    a830:	f643 4260 	movw	r2, #15456	; 0x3c60
    a834:	f2c0 0202 	movt	r2, #2
    a838:	2000      	movs	r0, #0
    a83a:	2102      	movs	r1, #2
    a83c:	07de      	lsls	r6, r3, #31
    a83e:	d505      	bpl.n	a84c <_dtoa_r+0x764>
    a840:	edd2 0b00 	vldr	d16, [r2]
    a844:	3101      	adds	r1, #1
    a846:	4628      	mov	r0, r5
    a848:	ee61 1ba0 	vmul.f64	d17, d17, d16
    a84c:	3208      	adds	r2, #8
    a84e:	105b      	asrs	r3, r3, #1
    a850:	d1f4      	bne.n	a83c <_dtoa_r+0x754>
    a852:	2800      	cmp	r0, #0
    a854:	fe42 1ba1 	vseleq.f64	d17, d18, d17
    a858:	e5a6      	b.n	a3a8 <_dtoa_r+0x2c0>
    a85a:	f643 4388 	movw	r3, #15496	; 0x3c88
    a85e:	f2c0 0302 	movt	r3, #2
    a862:	eb03 03c1 	add.w	r3, r3, r1, lsl #3
    a866:	9a06      	ldr	r2, [sp, #24]
    a868:	f1ba 0f00 	cmp.w	sl, #0
    a86c:	edd3 1b00 	vldr	d17, [r3]
    a870:	bfc8      	it	gt
    a872:	2300      	movgt	r3, #0
    a874:	bfd8      	it	le
    a876:	2301      	movle	r3, #1
    a878:	ea13 73d2 	ands.w	r3, r3, r2, lsr #31
    a87c:	f000 81ba 	beq.w	abf4 <_dtoa_r+0xb0c>
    a880:	f1ba 0f00 	cmp.w	sl, #0
    a884:	f040 8123 	bne.w	aace <_dtoa_r+0x9e6>
    a888:	eef1 0b04 	vmov.f64	d16, #20	; 0x40a00000  5.0
    a88c:	4657      	mov	r7, sl
    a88e:	4655      	mov	r5, sl
    a890:	ee61 1ba0 	vmul.f64	d17, d17, d16
    a894:	eeb4 8be1 	vcmpe.f64	d8, d17
    a898:	eef1 fa10 	vmrs	APSR_nzcv, fpscr
    a89c:	d98c      	bls.n	a7b8 <_dtoa_r+0x6d0>
    a89e:	e098      	b.n	a9d2 <_dtoa_r+0x8ea>
    a8a0:	4601      	mov	r1, r0
    a8a2:	4642      	mov	r2, r8
    a8a4:	4620      	mov	r0, r4
    a8a6:	f001 ffd3 	bl	c850 <__pow5mult>
    a8aa:	9b02      	ldr	r3, [sp, #8]
    a8ac:	4607      	mov	r7, r0
    a8ae:	2b01      	cmp	r3, #1
    a8b0:	f340 80f2 	ble.w	aa98 <_dtoa_r+0x9b0>
    a8b4:	2300      	movs	r3, #0
    a8b6:	9309      	str	r3, [sp, #36]	; 0x24
    a8b8:	693b      	ldr	r3, [r7, #16]
    a8ba:	eb07 0383 	add.w	r3, r7, r3, lsl #2
    a8be:	6918      	ldr	r0, [r3, #16]
    a8c0:	f001 fe8e 	bl	c5e0 <__hi0bits>
    a8c4:	f1c0 0320 	rsb	r3, r0, #32
    a8c8:	e6a5      	b.n	a616 <_dtoa_r+0x52e>
    a8ca:	eef0 2b48 	vmov.f64	d18, d8
    a8ce:	2102      	movs	r1, #2
    a8d0:	e559      	b.n	a386 <_dtoa_r+0x29e>
    a8d2:	2301      	movs	r3, #1
    a8d4:	9308      	str	r3, [sp, #32]
    a8d6:	9b06      	ldr	r3, [sp, #24]
    a8d8:	9a04      	ldr	r2, [sp, #16]
    a8da:	4413      	add	r3, r2
    a8dc:	930b      	str	r3, [sp, #44]	; 0x2c
    a8de:	f103 0a01 	add.w	sl, r3, #1
    a8e2:	4656      	mov	r6, sl
    a8e4:	2e01      	cmp	r6, #1
    a8e6:	bfb8      	it	lt
    a8e8:	2601      	movlt	r6, #1
    a8ea:	2100      	movs	r1, #0
    a8ec:	2e17      	cmp	r6, #23
    a8ee:	6461      	str	r1, [r4, #68]	; 0x44
    a8f0:	f77f ad19 	ble.w	a326 <_dtoa_r+0x23e>
    a8f4:	2201      	movs	r2, #1
    a8f6:	2304      	movs	r3, #4
    a8f8:	005b      	lsls	r3, r3, #1
    a8fa:	4611      	mov	r1, r2
    a8fc:	f103 0014 	add.w	r0, r3, #20
    a900:	3201      	adds	r2, #1
    a902:	42b0      	cmp	r0, r6
    a904:	d9f8      	bls.n	a8f8 <_dtoa_r+0x810>
    a906:	6461      	str	r1, [r4, #68]	; 0x44
    a908:	e50d      	b.n	a326 <_dtoa_r+0x23e>
    a90a:	2301      	movs	r3, #1
    a90c:	9308      	str	r3, [sp, #32]
    a90e:	9e06      	ldr	r6, [sp, #24]
    a910:	2e00      	cmp	r6, #0
    a912:	f340 8107 	ble.w	ab24 <_dtoa_r+0xa3c>
    a916:	46b2      	mov	sl, r6
    a918:	960b      	str	r6, [sp, #44]	; 0x2c
    a91a:	e7e6      	b.n	a8ea <_dtoa_r+0x802>
    a91c:	2300      	movs	r3, #0
    a91e:	9308      	str	r3, [sp, #32]
    a920:	e7d9      	b.n	a8d6 <_dtoa_r+0x7ee>
    a922:	2300      	movs	r3, #0
    a924:	9308      	str	r3, [sp, #32]
    a926:	e7f2      	b.n	a90e <_dtoa_r+0x826>
    a928:	eefd 7be1 	vcvt.s32.f64	s15, d17
    a92c:	f643 4588 	movw	r5, #15496	; 0x3c88
    a930:	f2c0 0502 	movt	r5, #2
    a934:	2801      	cmp	r0, #1
    a936:	eb05 05c0 	add.w	r5, r5, r0, lsl #3
    a93a:	eef2 2b04 	vmov.f64	d18, #36	; 0x41200000  10.0
    a93e:	eef8 0be7 	vcvt.f64.s32	d16, s15
    a942:	ed55 3b02 	vldr	d19, [r5, #-8]
    a946:	9d03      	ldr	r5, [sp, #12]
    a948:	ee71 0be0 	vsub.f64	d16, d17, d16
    a94c:	ec43 2b31 	vmov	d17, r2, r3
    a950:	ee17 3a90 	vmov	r3, s15
    a954:	ee63 3ba1 	vmul.f64	d19, d19, d17
    a958:	f103 0330 	add.w	r3, r3, #48	; 0x30
    a95c:	f805 3b01 	strb.w	r3, [r5], #1
    a960:	9b03      	ldr	r3, [sp, #12]
    a962:	4403      	add	r3, r0
    a964:	f000 8213 	beq.w	ad8e <_dtoa_r+0xca6>
    a968:	ee60 0ba2 	vmul.f64	d16, d16, d18
    a96c:	eefd 7be0 	vcvt.s32.f64	s15, d16
    a970:	ee17 2a90 	vmov	r2, s15
    a974:	eef8 1be7 	vcvt.f64.s32	d17, s15
    a978:	3230      	adds	r2, #48	; 0x30
    a97a:	f805 2b01 	strb.w	r2, [r5], #1
    a97e:	ee70 0be1 	vsub.f64	d16, d16, d17
    a982:	429d      	cmp	r5, r3
    a984:	d1f0      	bne.n	a968 <_dtoa_r+0x880>
    a986:	eef6 1b00 	vmov.f64	d17, #96	; 0x3f000000  0.5
    a98a:	ee73 2ba1 	vadd.f64	d18, d19, d17
    a98e:	eef4 0be2 	vcmpe.f64	d16, d18
    a992:	eef1 fa10 	vmrs	APSR_nzcv, fpscr
    a996:	f73f ad80 	bgt.w	a49a <_dtoa_r+0x3b2>
    a99a:	ee71 1be3 	vsub.f64	d17, d17, d19
    a99e:	eef4 0be1 	vcmpe.f64	d16, d17
    a9a2:	eef1 fa10 	vmrs	APSR_nzcv, fpscr
    a9a6:	f57f adad 	bpl.w	a504 <_dtoa_r+0x41c>
    a9aa:	4618      	mov	r0, r3
    a9ac:	f813 2d01 	ldrb.w	r2, [r3, #-1]!
    a9b0:	2a30      	cmp	r2, #48	; 0x30
    a9b2:	d0fa      	beq.n	a9aa <_dtoa_r+0x8c2>
    a9b4:	e57f      	b.n	a4b6 <_dtoa_r+0x3ce>
    a9b6:	4639      	mov	r1, r7
    a9b8:	4653      	mov	r3, sl
    a9ba:	2205      	movs	r2, #5
    a9bc:	4620      	mov	r0, r4
    a9be:	f001 fd5d 	bl	c47c <__multadd>
    a9c2:	4607      	mov	r7, r0
    a9c4:	4639      	mov	r1, r7
    a9c6:	4658      	mov	r0, fp
    a9c8:	f002 f81a 	bl	ca00 <__mcmp>
    a9cc:	2800      	cmp	r0, #0
    a9ce:	f77f aef3 	ble.w	a7b8 <_dtoa_r+0x6d0>
    a9d2:	9803      	ldr	r0, [sp, #12]
    a9d4:	9b04      	ldr	r3, [sp, #16]
    a9d6:	4606      	mov	r6, r0
    a9d8:	f103 0801 	add.w	r8, r3, #1
    a9dc:	2331      	movs	r3, #49	; 0x31
    a9de:	f800 3b01 	strb.w	r3, [r0], #1
    a9e2:	9003      	str	r0, [sp, #12]
    a9e4:	e6ec      	b.n	a7c0 <_dtoa_r+0x6d8>
    a9e6:	9b04      	ldr	r3, [sp, #16]
    a9e8:	3301      	adds	r3, #1
    a9ea:	9304      	str	r3, [sp, #16]
    a9ec:	f8dd 800c 	ldr.w	r8, [sp, #12]
    a9f0:	2601      	movs	r6, #1
    a9f2:	e007      	b.n	aa04 <_dtoa_r+0x91c>
    a9f4:	4659      	mov	r1, fp
    a9f6:	2300      	movs	r3, #0
    a9f8:	220a      	movs	r2, #10
    a9fa:	4620      	mov	r0, r4
    a9fc:	f001 fd3e 	bl	c47c <__multadd>
    aa00:	3601      	adds	r6, #1
    aa02:	4683      	mov	fp, r0
    aa04:	4639      	mov	r1, r7
    aa06:	4658      	mov	r0, fp
    aa08:	f7ff fadc 	bl	9fc4 <quorem>
    aa0c:	4556      	cmp	r6, sl
    aa0e:	f100 0330 	add.w	r3, r0, #48	; 0x30
    aa12:	f808 3b01 	strb.w	r3, [r8], #1
    aa16:	dbed      	blt.n	a9f4 <_dtoa_r+0x90c>
    aa18:	f1ba 0f00 	cmp.w	sl, #0
    aa1c:	f04f 0201 	mov.w	r2, #1
    aa20:	bfd8      	it	le
    aa22:	4692      	movle	sl, r2
    aa24:	9a03      	ldr	r2, [sp, #12]
    aa26:	2600      	movs	r6, #0
    aa28:	4492      	add	sl, r2
    aa2a:	4659      	mov	r1, fp
    aa2c:	2201      	movs	r2, #1
    aa2e:	4620      	mov	r0, r4
    aa30:	9302      	str	r3, [sp, #8]
    aa32:	f001 ff6f 	bl	c914 <__lshift>
    aa36:	4639      	mov	r1, r7
    aa38:	4683      	mov	fp, r0
    aa3a:	f001 ffe1 	bl	ca00 <__mcmp>
    aa3e:	2800      	cmp	r0, #0
    aa40:	f340 810d 	ble.w	ac5e <_dtoa_r+0xb76>
    aa44:	f81a 3c01 	ldrb.w	r3, [sl, #-1]
    aa48:	9a03      	ldr	r2, [sp, #12]
    aa4a:	f10a 3aff 	add.w	sl, sl, #4294967295	; 0xffffffff
    aa4e:	e004      	b.n	aa5a <_dtoa_r+0x972>
    aa50:	4552      	cmp	r2, sl
    aa52:	f000 810f 	beq.w	ac74 <_dtoa_r+0xb8c>
    aa56:	f81a 3d01 	ldrb.w	r3, [sl, #-1]!
    aa5a:	f10a 0801 	add.w	r8, sl, #1
    aa5e:	2b39      	cmp	r3, #57	; 0x39
    aa60:	d0f6      	beq.n	aa50 <_dtoa_r+0x968>
    aa62:	3301      	adds	r3, #1
    aa64:	f88a 3000 	strb.w	r3, [sl]
    aa68:	4639      	mov	r1, r7
    aa6a:	4620      	mov	r0, r4
    aa6c:	f001 fcfc 	bl	c468 <_Bfree>
    aa70:	2d00      	cmp	r5, #0
    aa72:	f000 8106 	beq.w	ac82 <_dtoa_r+0xb9a>
    aa76:	2e00      	cmp	r6, #0
    aa78:	bf18      	it	ne
    aa7a:	42ae      	cmpne	r6, r5
    aa7c:	f000 8190 	beq.w	ada0 <_dtoa_r+0xcb8>
    aa80:	4631      	mov	r1, r6
    aa82:	4620      	mov	r0, r4
    aa84:	9e03      	ldr	r6, [sp, #12]
    aa86:	f8cd 800c 	str.w	r8, [sp, #12]
    aa8a:	f001 fced 	bl	c468 <_Bfree>
    aa8e:	e69f      	b.n	a7d0 <_dtoa_r+0x6e8>
    aa90:	eef0 1b48 	vmov.f64	d17, d8
    aa94:	2102      	movs	r1, #2
    aa96:	e487      	b.n	a3a8 <_dtoa_r+0x2c0>
    aa98:	9b00      	ldr	r3, [sp, #0]
    aa9a:	2b00      	cmp	r3, #0
    aa9c:	f47f af0a 	bne.w	a8b4 <_dtoa_r+0x7cc>
    aaa0:	e9dd 0100 	ldrd	r0, r1, [sp]
    aaa4:	460a      	mov	r2, r1
    aaa6:	f3c1 0313 	ubfx	r3, r1, #0, #20
    aaaa:	2b00      	cmp	r3, #0
    aaac:	f040 8189 	bne.w	adc2 <_dtoa_r+0xcda>
    aab0:	2300      	movs	r3, #0
    aab2:	f6c7 73f0 	movt	r3, #32752	; 0x7ff0
    aab6:	4013      	ands	r3, r2
    aab8:	2b00      	cmp	r3, #0
    aaba:	f000 8148 	beq.w	ad4e <_dtoa_r+0xc66>
    aabe:	9b07      	ldr	r3, [sp, #28]
    aac0:	f109 0901 	add.w	r9, r9, #1
    aac4:	3301      	adds	r3, #1
    aac6:	9307      	str	r3, [sp, #28]
    aac8:	2301      	movs	r3, #1
    aaca:	9309      	str	r3, [sp, #36]	; 0x24
    aacc:	e59e      	b.n	a60c <_dtoa_r+0x524>
    aace:	2700      	movs	r7, #0
    aad0:	463d      	mov	r5, r7
    aad2:	e671      	b.n	a7b8 <_dtoa_r+0x6d0>
    aad4:	4629      	mov	r1, r5
    aad6:	463a      	mov	r2, r7
    aad8:	4620      	mov	r0, r4
    aada:	f001 feb9 	bl	c850 <__pow5mult>
    aade:	465a      	mov	r2, fp
    aae0:	4601      	mov	r1, r0
    aae2:	4605      	mov	r5, r0
    aae4:	4620      	mov	r0, r4
    aae6:	f001 fdf7 	bl	c6d8 <__multiply>
    aaea:	4659      	mov	r1, fp
    aaec:	4683      	mov	fp, r0
    aaee:	4620      	mov	r0, r4
    aaf0:	f001 fcba 	bl	c468 <_Bfree>
    aaf4:	e577      	b.n	a5e6 <_dtoa_r+0x4fe>
    aaf6:	4659      	mov	r1, fp
    aaf8:	4620      	mov	r0, r4
    aafa:	f001 fea9 	bl	c850 <__pow5mult>
    aafe:	4683      	mov	fp, r0
    ab00:	e575      	b.n	a5ee <_dtoa_r+0x506>
    ab02:	9b07      	ldr	r3, [sp, #28]
    ab04:	eba3 060a 	sub.w	r6, r3, sl
    ab08:	e523      	b.n	a552 <_dtoa_r+0x46a>
    ab0a:	4620      	mov	r0, r4
    ab0c:	9306      	str	r3, [sp, #24]
    ab0e:	f001 fcab 	bl	c468 <_Bfree>
    ab12:	9b06      	ldr	r3, [sp, #24]
    ab14:	2201      	movs	r2, #1
    ab16:	e5f4      	b.n	a702 <_dtoa_r+0x61a>
    ab18:	f001 fcb0 	bl	c47c <__multadd>
    ab1c:	46b0      	mov	r8, r6
    ab1e:	4605      	mov	r5, r0
    ab20:	4681      	mov	r9, r0
    ab22:	e5c5      	b.n	a6b0 <_dtoa_r+0x5c8>
    ab24:	2301      	movs	r3, #1
    ab26:	9306      	str	r3, [sp, #24]
    ab28:	469a      	mov	sl, r3
    ab2a:	f7ff bbf8 	b.w	a31e <_dtoa_r+0x236>
    ab2e:	e9dd 0100 	ldrd	r0, r1, [sp]
    ab32:	2800      	cmp	r0, #0
    ab34:	f47f ad68 	bne.w	a608 <_dtoa_r+0x520>
    ab38:	460a      	mov	r2, r1
    ab3a:	f3c1 0313 	ubfx	r3, r1, #0, #20
    ab3e:	2b00      	cmp	r3, #0
    ab40:	d0b6      	beq.n	aab0 <_dtoa_r+0x9c8>
    ab42:	9b00      	ldr	r3, [sp, #0]
    ab44:	9309      	str	r3, [sp, #36]	; 0x24
    ab46:	e561      	b.n	a60c <_dtoa_r+0x524>
    ab48:	f1ba 0f00 	cmp.w	sl, #0
    ab4c:	f43f acb8 	beq.w	a4c0 <_dtoa_r+0x3d8>
    ab50:	980b      	ldr	r0, [sp, #44]	; 0x2c
    ab52:	2800      	cmp	r0, #0
    ab54:	f77f acd6 	ble.w	a504 <_dtoa_r+0x41c>
    ab58:	3101      	adds	r1, #1
    ab5a:	eef2 2b04 	vmov.f64	d18, #36	; 0x41200000  10.0
    ab5e:	ee07 1a90 	vmov	s15, r1
    ab62:	9b04      	ldr	r3, [sp, #16]
    ab64:	ee61 1ba2 	vmul.f64	d17, d17, d18
    ab68:	eef8 0be7 	vcvt.f64.s32	d16, s15
    ab6c:	eeb1 7b0c 	vmov.f64	d7, #28	; 0x40e00000  7.0
    ab70:	1e59      	subs	r1, r3, #1
    ab72:	eea1 7ba0 	vfma.f64	d7, d17, d16
    ab76:	ee17 5a90 	vmov	r5, s15
    ab7a:	ec53 2b17 	vmov	r2, r3, d7
    ab7e:	f1a5 7350 	sub.w	r3, r5, #54525952	; 0x3400000
    ab82:	e42e      	b.n	a3e2 <_dtoa_r+0x2fa>
    ab84:	2200      	movs	r2, #0
    ab86:	920a      	str	r2, [sp, #40]	; 0x28
    ab88:	e4f0      	b.n	a56c <_dtoa_r+0x484>
    ab8a:	f203 4333 	addw	r3, r3, #1075	; 0x433
    ab8e:	b917      	cbnz	r7, ab96 <_dtoa_r+0xaae>
    ab90:	9b0c      	ldr	r3, [sp, #48]	; 0x30
    ab92:	f1c3 0336 	rsb	r3, r3, #54	; 0x36
    ab96:	9a07      	ldr	r2, [sp, #28]
    ab98:	4499      	add	r9, r3
    ab9a:	9f09      	ldr	r7, [sp, #36]	; 0x24
    ab9c:	4616      	mov	r6, r2
    ab9e:	441a      	add	r2, r3
    aba0:	9207      	str	r2, [sp, #28]
    aba2:	e4d6      	b.n	a552 <_dtoa_r+0x46a>
    aba4:	4659      	mov	r1, fp
    aba6:	9a09      	ldr	r2, [sp, #36]	; 0x24
    aba8:	4620      	mov	r0, r4
    abaa:	f001 fe51 	bl	c850 <__pow5mult>
    abae:	4683      	mov	fp, r0
    abb0:	e51d      	b.n	a5ee <_dtoa_r+0x506>
    abb2:	2700      	movs	r7, #0
    abb4:	463d      	mov	r5, r7
    abb6:	e70c      	b.n	a9d2 <_dtoa_r+0x8ea>
    abb8:	2100      	movs	r1, #0
    abba:	4620      	mov	r0, r4
    abbc:	6461      	str	r1, [r4, #68]	; 0x44
    abbe:	f001 fc2d 	bl	c41c <_Balloc>
    abc2:	9003      	str	r0, [sp, #12]
    abc4:	2800      	cmp	r0, #0
    abc6:	f000 8104 	beq.w	add2 <_dtoa_r+0xcea>
    abca:	9a04      	ldr	r2, [sp, #16]
    abcc:	9b03      	ldr	r3, [sp, #12]
    abce:	6423      	str	r3, [r4, #64]	; 0x40
    abd0:	2a0e      	cmp	r2, #14
    abd2:	9b0d      	ldr	r3, [sp, #52]	; 0x34
    abd4:	f300 810a 	bgt.w	adec <_dtoa_r+0xd04>
    abd8:	2b00      	cmp	r3, #0
    abda:	f2c0 8107 	blt.w	adec <_dtoa_r+0xd04>
    abde:	9a04      	ldr	r2, [sp, #16]
    abe0:	f643 4388 	movw	r3, #15496	; 0x3c88
    abe4:	f2c0 0302 	movt	r3, #2
    abe8:	f04f 3aff 	mov.w	sl, #4294967295	; 0xffffffff
    abec:	eb03 03c2 	add.w	r3, r3, r2, lsl #3
    abf0:	edd3 1b00 	vldr	d17, [r3]
    abf4:	eec8 0b21 	vdiv.f64	d16, d8, d17
    abf8:	9b03      	ldr	r3, [sp, #12]
    abfa:	f1ba 0f01 	cmp.w	sl, #1
    abfe:	eef2 2b04 	vmov.f64	d18, #36	; 0x41200000  10.0
    ac02:	eefd 7be0 	vcvt.s32.f64	s15, d16
    ac06:	eef8 0be7 	vcvt.f64.s32	d16, s15
    ac0a:	ee17 2a90 	vmov	r2, s15
    ac0e:	eea0 8be1 	vfms.f64	d8, d16, d17
    ac12:	f102 0230 	add.w	r2, r2, #48	; 0x30
    ac16:	f803 2b01 	strb.w	r2, [r3], #1
    ac1a:	f04f 0201 	mov.w	r2, #1
    ac1e:	d111      	bne.n	ac44 <_dtoa_r+0xb5c>
    ac20:	e06d      	b.n	acfe <_dtoa_r+0xc16>
    ac22:	eec8 0b21 	vdiv.f64	d16, d8, d17
    ac26:	3201      	adds	r2, #1
    ac28:	4552      	cmp	r2, sl
    ac2a:	eefd 7be0 	vcvt.s32.f64	s15, d16
    ac2e:	eef8 0be7 	vcvt.f64.s32	d16, s15
    ac32:	ee17 1a90 	vmov	r1, s15
    ac36:	eea0 8be1 	vfms.f64	d8, d16, d17
    ac3a:	f101 0130 	add.w	r1, r1, #48	; 0x30
    ac3e:	f803 1b01 	strb.w	r1, [r3], #1
    ac42:	d05c      	beq.n	acfe <_dtoa_r+0xc16>
    ac44:	ee28 8b22 	vmul.f64	d8, d8, d18
    ac48:	eeb5 8b40 	vcmp.f64	d8, #0.0
    ac4c:	eef1 fa10 	vmrs	APSR_nzcv, fpscr
    ac50:	d1e7      	bne.n	ac22 <_dtoa_r+0xb3a>
    ac52:	e9dd 6203 	ldrd	r6, r2, [sp, #12]
    ac56:	3201      	adds	r2, #1
    ac58:	e9cd 3203 	strd	r3, r2, [sp, #12]
    ac5c:	e5bc      	b.n	a7d8 <_dtoa_r+0x6f0>
    ac5e:	d103      	bne.n	ac68 <_dtoa_r+0xb80>
    ac60:	9b02      	ldr	r3, [sp, #8]
    ac62:	07d8      	lsls	r0, r3, #31
    ac64:	f53f aeee 	bmi.w	aa44 <_dtoa_r+0x95c>
    ac68:	46d0      	mov	r8, sl
    ac6a:	f81a 3d01 	ldrb.w	r3, [sl, #-1]!
    ac6e:	2b30      	cmp	r3, #48	; 0x30
    ac70:	d0fa      	beq.n	ac68 <_dtoa_r+0xb80>
    ac72:	e6f9      	b.n	aa68 <_dtoa_r+0x980>
    ac74:	9a03      	ldr	r2, [sp, #12]
    ac76:	9b04      	ldr	r3, [sp, #16]
    ac78:	3301      	adds	r3, #1
    ac7a:	9304      	str	r3, [sp, #16]
    ac7c:	2331      	movs	r3, #49	; 0x31
    ac7e:	7013      	strb	r3, [r2, #0]
    ac80:	e6f2      	b.n	aa68 <_dtoa_r+0x980>
    ac82:	9e03      	ldr	r6, [sp, #12]
    ac84:	f8cd 800c 	str.w	r8, [sp, #12]
    ac88:	e5a6      	b.n	a7d8 <_dtoa_r+0x6f0>
    ac8a:	3101      	adds	r1, #1
    ac8c:	2231      	movs	r2, #49	; 0x31
    ac8e:	9503      	str	r5, [sp, #12]
    ac90:	e410      	b.n	a4b4 <_dtoa_r+0x3cc>
    ac92:	2a00      	cmp	r2, #0
    ac94:	dd10      	ble.n	acb8 <_dtoa_r+0xbd0>
    ac96:	4659      	mov	r1, fp
    ac98:	2201      	movs	r2, #1
    ac9a:	4620      	mov	r0, r4
    ac9c:	9302      	str	r3, [sp, #8]
    ac9e:	f001 fe39 	bl	c914 <__lshift>
    aca2:	4639      	mov	r1, r7
    aca4:	4683      	mov	fp, r0
    aca6:	f001 feab 	bl	ca00 <__mcmp>
    acaa:	9b02      	ldr	r3, [sp, #8]
    acac:	2800      	cmp	r0, #0
    acae:	dd70      	ble.n	ad92 <_dtoa_r+0xcaa>
    acb0:	2b39      	cmp	r3, #57	; 0x39
    acb2:	d03c      	beq.n	ad2e <_dtoa_r+0xc46>
    acb4:	f10a 0331 	add.w	r3, sl, #49	; 0x31
    acb8:	f808 3b01 	strb.w	r3, [r8], #1
    acbc:	462e      	mov	r6, r5
    acbe:	9b04      	ldr	r3, [sp, #16]
    acc0:	464d      	mov	r5, r9
    acc2:	3301      	adds	r3, #1
    acc4:	9304      	str	r3, [sp, #16]
    acc6:	e6cf      	b.n	aa68 <_dtoa_r+0x980>
    acc8:	9e03      	ldr	r6, [sp, #12]
    acca:	1c4a      	adds	r2, r1, #1
    accc:	e9cd 3203 	strd	r3, r2, [sp, #12]
    acd0:	e582      	b.n	a7d8 <_dtoa_r+0x6f0>
    acd2:	6869      	ldr	r1, [r5, #4]
    acd4:	4620      	mov	r0, r4
    acd6:	f001 fba1 	bl	c41c <_Balloc>
    acda:	4606      	mov	r6, r0
    acdc:	2800      	cmp	r0, #0
    acde:	d063      	beq.n	ada8 <_dtoa_r+0xcc0>
    ace0:	692b      	ldr	r3, [r5, #16]
    ace2:	f105 010c 	add.w	r1, r5, #12
    ace6:	300c      	adds	r0, #12
    ace8:	3302      	adds	r3, #2
    acea:	009a      	lsls	r2, r3, #2
    acec:	f001 e8c8 	blx	be80 <memcpy>
    acf0:	4631      	mov	r1, r6
    acf2:	2201      	movs	r2, #1
    acf4:	4620      	mov	r0, r4
    acf6:	f001 fe0d 	bl	c914 <__lshift>
    acfa:	4681      	mov	r9, r0
    acfc:	e4cf      	b.n	a69e <_dtoa_r+0x5b6>
    acfe:	ee38 8b08 	vadd.f64	d8, d8, d8
    ad02:	eeb4 8be1 	vcmpe.f64	d8, d17
    ad06:	eef1 fa10 	vmrs	APSR_nzcv, fpscr
    ad0a:	dc08      	bgt.n	ad1e <_dtoa_r+0xc36>
    ad0c:	eeb4 8b61 	vcmp.f64	d8, d17
    ad10:	eef1 fa10 	vmrs	APSR_nzcv, fpscr
    ad14:	d19d      	bne.n	ac52 <_dtoa_r+0xb6a>
    ad16:	ee17 2a90 	vmov	r2, s15
    ad1a:	07d7      	lsls	r7, r2, #31
    ad1c:	d599      	bpl.n	ac52 <_dtoa_r+0xb6a>
    ad1e:	e9dd 5103 	ldrd	r5, r1, [sp, #12]
    ad22:	f7ff bbbf 	b.w	a4a4 <_dtoa_r+0x3bc>
    ad26:	2b39      	cmp	r3, #57	; 0x39
    ad28:	bf18      	it	ne
    ad2a:	3301      	addne	r3, #1
    ad2c:	d1c4      	bne.n	acb8 <_dtoa_r+0xbd0>
    ad2e:	46c2      	mov	sl, r8
    ad30:	9b04      	ldr	r3, [sp, #16]
    ad32:	462e      	mov	r6, r5
    ad34:	464d      	mov	r5, r9
    ad36:	3301      	adds	r3, #1
    ad38:	9304      	str	r3, [sp, #16]
    ad3a:	2339      	movs	r3, #57	; 0x39
    ad3c:	f80a 3b01 	strb.w	r3, [sl], #1
    ad40:	e682      	b.n	aa48 <_dtoa_r+0x960>
    ad42:	9a04      	ldr	r2, [sp, #16]
    ad44:	462e      	mov	r6, r5
    ad46:	464d      	mov	r5, r9
    ad48:	3201      	adds	r2, #1
    ad4a:	9204      	str	r2, [sp, #16]
    ad4c:	e66d      	b.n	aa2a <_dtoa_r+0x942>
    ad4e:	9309      	str	r3, [sp, #36]	; 0x24
    ad50:	e45c      	b.n	a60c <_dtoa_r+0x524>
    ad52:	2b39      	cmp	r3, #57	; 0x39
    ad54:	d0eb      	beq.n	ad2e <_dtoa_r+0xc46>
    ad56:	2e00      	cmp	r6, #0
    ad58:	dcac      	bgt.n	acb4 <_dtoa_r+0xbcc>
    ad5a:	e7ad      	b.n	acb8 <_dtoa_r+0xbd0>
    ad5c:	4629      	mov	r1, r5
    ad5e:	2300      	movs	r3, #0
    ad60:	220a      	movs	r2, #10
    ad62:	4620      	mov	r0, r4
    ad64:	f001 fb8a 	bl	c47c <__multadd>
    ad68:	9a0b      	ldr	r2, [sp, #44]	; 0x2c
    ad6a:	9902      	ldr	r1, [sp, #8]
    ad6c:	4605      	mov	r5, r0
    ad6e:	2a00      	cmp	r2, #0
    ad70:	4613      	mov	r3, r2
    ad72:	bfd8      	it	le
    ad74:	2301      	movle	r3, #1
    ad76:	bfc8      	it	gt
    ad78:	2300      	movgt	r3, #0
    ad7a:	2902      	cmp	r1, #2
    ad7c:	4692      	mov	sl, r2
    ad7e:	bfd8      	it	le
    ad80:	2300      	movle	r3, #0
    ad82:	f8cd 8010 	str.w	r8, [sp, #16]
    ad86:	2b00      	cmp	r3, #0
    ad88:	f47f ad10 	bne.w	a7ac <_dtoa_r+0x6c4>
    ad8c:	e47a      	b.n	a684 <_dtoa_r+0x59c>
    ad8e:	462b      	mov	r3, r5
    ad90:	e5f9      	b.n	a986 <_dtoa_r+0x89e>
    ad92:	d191      	bne.n	acb8 <_dtoa_r+0xbd0>
    ad94:	07de      	lsls	r6, r3, #31
    ad96:	d58f      	bpl.n	acb8 <_dtoa_r+0xbd0>
    ad98:	e78a      	b.n	acb0 <_dtoa_r+0xbc8>
    ad9a:	2102      	movs	r1, #2
    ad9c:	f7ff bb04 	b.w	a3a8 <_dtoa_r+0x2c0>
    ada0:	9e03      	ldr	r6, [sp, #12]
    ada2:	f8cd 800c 	str.w	r8, [sp, #12]
    ada6:	e513      	b.n	a7d0 <_dtoa_r+0x6e8>
    ada8:	f643 3348 	movw	r3, #15176	; 0x3b48
    adac:	f2c0 0302 	movt	r3, #2
    adb0:	f643 305c 	movw	r0, #15196	; 0x3b5c
    adb4:	f2c0 0002 	movt	r0, #2
    adb8:	4632      	mov	r2, r6
    adba:	f240 21ea 	movw	r1, #746	; 0x2ea
    adbe:	f003 f9ab 	bl	e118 <__assert_func>
    adc2:	9b00      	ldr	r3, [sp, #0]
    adc4:	9309      	str	r3, [sp, #36]	; 0x24
    adc6:	e577      	b.n	a8b8 <_dtoa_r+0x7d0>
    adc8:	f43f ac36 	beq.w	a638 <_dtoa_r+0x550>
    adcc:	f1c3 033c 	rsb	r3, r3, #60	; 0x3c
    add0:	e42d      	b.n	a62e <_dtoa_r+0x546>
    add2:	f643 3348 	movw	r3, #15176	; 0x3b48
    add6:	f2c0 0302 	movt	r3, #2
    adda:	f643 305c 	movw	r0, #15196	; 0x3b5c
    adde:	f2c0 0002 	movt	r0, #2
    ade2:	2200      	movs	r2, #0
    ade4:	f44f 71d5 	mov.w	r1, #426	; 0x1aa
    ade8:	f003 f996 	bl	e118 <__assert_func>
    adec:	2200      	movs	r2, #0
    adee:	f04f 3aff 	mov.w	sl, #4294967295	; 0xffffffff
    adf2:	9206      	str	r2, [sp, #24]
    adf4:	2201      	movs	r2, #1
    adf6:	f8cd a02c 	str.w	sl, [sp, #44]	; 0x2c
    adfa:	9208      	str	r2, [sp, #32]
    adfc:	f7ff bb90 	b.w	a520 <_dtoa_r+0x438>

0000ae00 <__sflush_r>:
__sflush_r():
    ae00:	e92d 43f8 	stmdb	sp!, {r3, r4, r5, r6, r7, r8, r9, lr}
    ae04:	460c      	mov	r4, r1
    ae06:	898b      	ldrh	r3, [r1, #12]
    ae08:	f9b1 200c 	ldrsh.w	r2, [r1, #12]
    ae0c:	4681      	mov	r9, r0
    ae0e:	0719      	lsls	r1, r3, #28
    ae10:	d432      	bmi.n	ae78 <__sflush_r+0x78>
    ae12:	6863      	ldr	r3, [r4, #4]
    ae14:	f442 6200 	orr.w	r2, r2, #2048	; 0x800
    ae18:	81a2      	strh	r2, [r4, #12]
    ae1a:	2b00      	cmp	r3, #0
    ae1c:	dd4f      	ble.n	aebe <__sflush_r+0xbe>
    ae1e:	6aa6      	ldr	r6, [r4, #40]	; 0x28
    ae20:	2e00      	cmp	r6, #0
    ae22:	d04f      	beq.n	aec4 <__sflush_r+0xc4>
    ae24:	2300      	movs	r3, #0
    ae26:	f8d9 8000 	ldr.w	r8, [r9]
    ae2a:	f412 5580 	ands.w	r5, r2, #4096	; 0x1000
    ae2e:	f8c9 3000 	str.w	r3, [r9]
    ae32:	b293      	uxth	r3, r2
    ae34:	d149      	bne.n	aeca <__sflush_r+0xca>
    ae36:	2301      	movs	r3, #1
    ae38:	69e1      	ldr	r1, [r4, #28]
    ae3a:	462a      	mov	r2, r5
    ae3c:	4648      	mov	r0, r9
    ae3e:	47b0      	blx	r6
    ae40:	1c43      	adds	r3, r0, #1
    ae42:	d075      	beq.n	af30 <__sflush_r+0x130>
    ae44:	89a3      	ldrh	r3, [r4, #12]
    ae46:	6aa6      	ldr	r6, [r4, #40]	; 0x28
    ae48:	075f      	lsls	r7, r3, #29
    ae4a:	d505      	bpl.n	ae58 <__sflush_r+0x58>
    ae4c:	6b23      	ldr	r3, [r4, #48]	; 0x30
    ae4e:	6862      	ldr	r2, [r4, #4]
    ae50:	1a80      	subs	r0, r0, r2
    ae52:	b10b      	cbz	r3, ae58 <__sflush_r+0x58>
    ae54:	6be3      	ldr	r3, [r4, #60]	; 0x3c
    ae56:	1ac0      	subs	r0, r0, r3
    ae58:	4602      	mov	r2, r0
    ae5a:	69e1      	ldr	r1, [r4, #28]
    ae5c:	2300      	movs	r3, #0
    ae5e:	4648      	mov	r0, r9
    ae60:	47b0      	blx	r6
    ae62:	1c45      	adds	r5, r0, #1
    ae64:	d133      	bne.n	aece <__sflush_r+0xce>
    ae66:	f8d9 2000 	ldr.w	r2, [r9]
    ae6a:	2a1d      	cmp	r2, #29
    ae6c:	d94b      	bls.n	af06 <__sflush_r+0x106>
    ae6e:	89a3      	ldrh	r3, [r4, #12]
    ae70:	f043 0340 	orr.w	r3, r3, #64	; 0x40
    ae74:	81a3      	strh	r3, [r4, #12]
    ae76:	e026      	b.n	aec6 <__sflush_r+0xc6>
    ae78:	6926      	ldr	r6, [r4, #16]
    ae7a:	b31e      	cbz	r6, aec4 <__sflush_r+0xc4>
    ae7c:	6825      	ldr	r5, [r4, #0]
    ae7e:	0799      	lsls	r1, r3, #30
    ae80:	6026      	str	r6, [r4, #0]
    ae82:	bf18      	it	ne
    ae84:	2300      	movne	r3, #0
    ae86:	eba5 0506 	sub.w	r5, r5, r6
    ae8a:	d100      	bne.n	ae8e <__sflush_r+0x8e>
    ae8c:	6963      	ldr	r3, [r4, #20]
    ae8e:	2d00      	cmp	r5, #0
    ae90:	60a3      	str	r3, [r4, #8]
    ae92:	dc04      	bgt.n	ae9e <__sflush_r+0x9e>
    ae94:	e016      	b.n	aec4 <__sflush_r+0xc4>
    ae96:	1a2d      	subs	r5, r5, r0
    ae98:	4406      	add	r6, r0
    ae9a:	2d00      	cmp	r5, #0
    ae9c:	dd12      	ble.n	aec4 <__sflush_r+0xc4>
    ae9e:	69e1      	ldr	r1, [r4, #28]
    aea0:	462b      	mov	r3, r5
    aea2:	6a67      	ldr	r7, [r4, #36]	; 0x24
    aea4:	4632      	mov	r2, r6
    aea6:	4648      	mov	r0, r9
    aea8:	47b8      	blx	r7
    aeaa:	2800      	cmp	r0, #0
    aeac:	dcf3      	bgt.n	ae96 <__sflush_r+0x96>
    aeae:	89a3      	ldrh	r3, [r4, #12]
    aeb0:	f04f 30ff 	mov.w	r0, #4294967295	; 0xffffffff
    aeb4:	f043 0340 	orr.w	r3, r3, #64	; 0x40
    aeb8:	81a3      	strh	r3, [r4, #12]
    aeba:	e8bd 83f8 	ldmia.w	sp!, {r3, r4, r5, r6, r7, r8, r9, pc}
    aebe:	6be3      	ldr	r3, [r4, #60]	; 0x3c
    aec0:	2b00      	cmp	r3, #0
    aec2:	dcac      	bgt.n	ae1e <__sflush_r+0x1e>
    aec4:	2000      	movs	r0, #0
    aec6:	e8bd 83f8 	ldmia.w	sp!, {r3, r4, r5, r6, r7, r8, r9, pc}
    aeca:	6d20      	ldr	r0, [r4, #80]	; 0x50
    aecc:	e7bc      	b.n	ae48 <__sflush_r+0x48>
    aece:	f9b4 300c 	ldrsh.w	r3, [r4, #12]
    aed2:	6922      	ldr	r2, [r4, #16]
    aed4:	f423 6300 	bic.w	r3, r3, #2048	; 0x800
    aed8:	6022      	str	r2, [r4, #0]
    aeda:	81a3      	strh	r3, [r4, #12]
    aedc:	2200      	movs	r2, #0
    aede:	6062      	str	r2, [r4, #4]
    aee0:	04da      	lsls	r2, r3, #19
    aee2:	d500      	bpl.n	aee6 <__sflush_r+0xe6>
    aee4:	6520      	str	r0, [r4, #80]	; 0x50
    aee6:	6b21      	ldr	r1, [r4, #48]	; 0x30
    aee8:	f8c9 8000 	str.w	r8, [r9]
    aeec:	2900      	cmp	r1, #0
    aeee:	d0e9      	beq.n	aec4 <__sflush_r+0xc4>
    aef0:	f104 0340 	add.w	r3, r4, #64	; 0x40
    aef4:	4299      	cmp	r1, r3
    aef6:	d002      	beq.n	aefe <__sflush_r+0xfe>
    aef8:	4648      	mov	r0, r9
    aefa:	f000 fa63 	bl	b3c4 <_free_r>
    aefe:	2000      	movs	r0, #0
    af00:	6320      	str	r0, [r4, #48]	; 0x30
    af02:	e8bd 83f8 	ldmia.w	sp!, {r3, r4, r5, r6, r7, r8, r9, pc}
    af06:	2301      	movs	r3, #1
    af08:	f2c2 0340 	movt	r3, #8256	; 0x2040
    af0c:	40d3      	lsrs	r3, r2
    af0e:	43db      	mvns	r3, r3
    af10:	f013 0301 	ands.w	r3, r3, #1
    af14:	d1ab      	bne.n	ae6e <__sflush_r+0x6e>
    af16:	6063      	str	r3, [r4, #4]
    af18:	f9b4 300c 	ldrsh.w	r3, [r4, #12]
    af1c:	6921      	ldr	r1, [r4, #16]
    af1e:	f423 6300 	bic.w	r3, r3, #2048	; 0x800
    af22:	6021      	str	r1, [r4, #0]
    af24:	81a3      	strh	r3, [r4, #12]
    af26:	04db      	lsls	r3, r3, #19
    af28:	d5dd      	bpl.n	aee6 <__sflush_r+0xe6>
    af2a:	2a00      	cmp	r2, #0
    af2c:	d1db      	bne.n	aee6 <__sflush_r+0xe6>
    af2e:	e7d9      	b.n	aee4 <__sflush_r+0xe4>
    af30:	f8d9 3000 	ldr.w	r3, [r9]
    af34:	2b00      	cmp	r3, #0
    af36:	d085      	beq.n	ae44 <__sflush_r+0x44>
    af38:	2b1d      	cmp	r3, #29
    af3a:	bf18      	it	ne
    af3c:	2b16      	cmpne	r3, #22
    af3e:	d196      	bne.n	ae6e <__sflush_r+0x6e>
    af40:	4628      	mov	r0, r5
    af42:	f8c9 8000 	str.w	r8, [r9]
    af46:	e7be      	b.n	aec6 <__sflush_r+0xc6>

0000af48 <_fflush_r>:
_fflush_r():
    af48:	b538      	push	{r3, r4, r5, lr}
    af4a:	460c      	mov	r4, r1
    af4c:	4605      	mov	r5, r0
    af4e:	b108      	cbz	r0, af54 <_fflush_r+0xc>
    af50:	6b83      	ldr	r3, [r0, #56]	; 0x38
    af52:	b1a3      	cbz	r3, af7e <_fflush_r+0x36>
    af54:	f9b4 000c 	ldrsh.w	r0, [r4, #12]
    af58:	b1b8      	cbz	r0, af8a <_fflush_r+0x42>
    af5a:	6e63      	ldr	r3, [r4, #100]	; 0x64
    af5c:	07db      	lsls	r3, r3, #31
    af5e:	d401      	bmi.n	af64 <_fflush_r+0x1c>
    af60:	0581      	lsls	r1, r0, #22
    af62:	d515      	bpl.n	af90 <_fflush_r+0x48>
    af64:	4628      	mov	r0, r5
    af66:	4621      	mov	r1, r4
    af68:	f7ff ff4a 	bl	ae00 <__sflush_r>
    af6c:	6e63      	ldr	r3, [r4, #100]	; 0x64
    af6e:	4605      	mov	r5, r0
    af70:	07da      	lsls	r2, r3, #31
    af72:	d402      	bmi.n	af7a <_fflush_r+0x32>
    af74:	89a3      	ldrh	r3, [r4, #12]
    af76:	059b      	lsls	r3, r3, #22
    af78:	d50e      	bpl.n	af98 <_fflush_r+0x50>
    af7a:	4628      	mov	r0, r5
    af7c:	bd38      	pop	{r3, r4, r5, pc}
    af7e:	f000 f893 	bl	b0a8 <__sinit>
    af82:	f9b4 000c 	ldrsh.w	r0, [r4, #12]
    af86:	2800      	cmp	r0, #0
    af88:	d1e7      	bne.n	af5a <_fflush_r+0x12>
    af8a:	4605      	mov	r5, r0
    af8c:	4628      	mov	r0, r5
    af8e:	bd38      	pop	{r3, r4, r5, pc}
    af90:	6da0      	ldr	r0, [r4, #88]	; 0x58
    af92:	f000 fb77 	bl	b684 <__retarget_lock_acquire_recursive>
    af96:	e7e5      	b.n	af64 <_fflush_r+0x1c>
    af98:	6da0      	ldr	r0, [r4, #88]	; 0x58
    af9a:	f000 fb7b 	bl	b694 <__retarget_lock_release_recursive>
    af9e:	4628      	mov	r0, r5
    afa0:	bd38      	pop	{r3, r4, r5, pc}
    afa2:	bf00      	nop

0000afa4 <fflush>:
fflush():
    afa4:	b538      	push	{r3, r4, r5, lr}
    afa6:	b360      	cbz	r0, b002 <fflush+0x5e>
    afa8:	f245 43e8 	movw	r3, #21736	; 0x54e8
    afac:	f2c0 0303 	movt	r3, #3
    afb0:	4604      	mov	r4, r0
    afb2:	681d      	ldr	r5, [r3, #0]
    afb4:	b10d      	cbz	r5, afba <fflush+0x16>
    afb6:	6bab      	ldr	r3, [r5, #56]	; 0x38
    afb8:	b1bb      	cbz	r3, afea <fflush+0x46>
    afba:	f9b4 000c 	ldrsh.w	r0, [r4, #12]
    afbe:	b188      	cbz	r0, afe4 <fflush+0x40>
    afc0:	6e63      	ldr	r3, [r4, #100]	; 0x64
    afc2:	07db      	lsls	r3, r3, #31
    afc4:	d401      	bmi.n	afca <fflush+0x26>
    afc6:	0581      	lsls	r1, r0, #22
    afc8:	d513      	bpl.n	aff2 <fflush+0x4e>
    afca:	4628      	mov	r0, r5
    afcc:	4621      	mov	r1, r4
    afce:	f7ff ff17 	bl	ae00 <__sflush_r>
    afd2:	6e63      	ldr	r3, [r4, #100]	; 0x64
    afd4:	4605      	mov	r5, r0
    afd6:	07da      	lsls	r2, r3, #31
    afd8:	d402      	bmi.n	afe0 <fflush+0x3c>
    afda:	89a3      	ldrh	r3, [r4, #12]
    afdc:	059b      	lsls	r3, r3, #22
    afde:	d50c      	bpl.n	affa <fflush+0x56>
    afe0:	4628      	mov	r0, r5
    afe2:	bd38      	pop	{r3, r4, r5, pc}
    afe4:	4605      	mov	r5, r0
    afe6:	4628      	mov	r0, r5
    afe8:	bd38      	pop	{r3, r4, r5, pc}
    afea:	4628      	mov	r0, r5
    afec:	f000 f85c 	bl	b0a8 <__sinit>
    aff0:	e7e3      	b.n	afba <fflush+0x16>
    aff2:	6da0      	ldr	r0, [r4, #88]	; 0x58
    aff4:	f000 fb46 	bl	b684 <__retarget_lock_acquire_recursive>
    aff8:	e7e7      	b.n	afca <fflush+0x26>
    affa:	6da0      	ldr	r0, [r4, #88]	; 0x58
    affc:	f000 fb4a 	bl	b694 <__retarget_lock_release_recursive>
    b000:	e7ee      	b.n	afe0 <fflush+0x3c>
    b002:	f643 33dc 	movw	r3, #15324	; 0x3bdc
    b006:	f2c0 0302 	movt	r3, #2
    b00a:	f64a 7149 	movw	r1, #44873	; 0xaf49
    b00e:	f2c0 0100 	movt	r1, #0
    b012:	6818      	ldr	r0, [r3, #0]
    b014:	e8bd 4038 	ldmia.w	sp!, {r3, r4, r5, lr}
    b018:	f000 bb00 	b.w	b61c <_fwalk_reent>

0000b01c <_cleanup_r>:
_cleanup_r():
    b01c:	f24e 2111 	movw	r1, #57873	; 0xe211
    b020:	f2c0 0100 	movt	r1, #0
    b024:	f000 bafa 	b.w	b61c <_fwalk_reent>

0000b028 <__fp_lock>:
__fp_lock():
    b028:	b508      	push	{r3, lr}
    b02a:	6e43      	ldr	r3, [r0, #100]	; 0x64
    b02c:	07da      	lsls	r2, r3, #31
    b02e:	d402      	bmi.n	b036 <__fp_lock+0xe>
    b030:	8983      	ldrh	r3, [r0, #12]
    b032:	059b      	lsls	r3, r3, #22
    b034:	d501      	bpl.n	b03a <__fp_lock+0x12>
    b036:	2000      	movs	r0, #0
    b038:	bd08      	pop	{r3, pc}
    b03a:	6d80      	ldr	r0, [r0, #88]	; 0x58
    b03c:	f000 fb22 	bl	b684 <__retarget_lock_acquire_recursive>
    b040:	2000      	movs	r0, #0
    b042:	bd08      	pop	{r3, pc}

0000b044 <__fp_unlock>:
__fp_unlock():
    b044:	b508      	push	{r3, lr}
    b046:	6e43      	ldr	r3, [r0, #100]	; 0x64
    b048:	07da      	lsls	r2, r3, #31
    b04a:	d402      	bmi.n	b052 <__fp_unlock+0xe>
    b04c:	8983      	ldrh	r3, [r0, #12]
    b04e:	059b      	lsls	r3, r3, #22
    b050:	d501      	bpl.n	b056 <__fp_unlock+0x12>
    b052:	2000      	movs	r0, #0
    b054:	bd08      	pop	{r3, pc}
    b056:	6d80      	ldr	r0, [r0, #88]	; 0x58
    b058:	f000 fb1c 	bl	b694 <__retarget_lock_release_recursive>
    b05c:	2000      	movs	r0, #0
    b05e:	bd08      	pop	{r3, pc}

0000b060 <__sfmoreglue>:
__sfmoreglue():
    b060:	b570      	push	{r4, r5, r6, lr}
    b062:	2268      	movs	r2, #104	; 0x68
    b064:	1e4e      	subs	r6, r1, #1
    b066:	460d      	mov	r5, r1
    b068:	fb02 f606 	mul.w	r6, r2, r6
    b06c:	f106 0174 	add.w	r1, r6, #116	; 0x74
    b070:	f000 fbb4 	bl	b7dc <_malloc_r>
    b074:	4604      	mov	r4, r0
    b076:	b140      	cbz	r0, b08a <__sfmoreglue+0x2a>
    b078:	2100      	movs	r1, #0
    b07a:	300c      	adds	r0, #12
    b07c:	f106 0268 	add.w	r2, r6, #104	; 0x68
    b080:	e9c4 1500 	strd	r1, r5, [r4]
    b084:	60a0      	str	r0, [r4, #8]
    b086:	f001 f96b 	bl	c360 <memset>
    b08a:	4620      	mov	r0, r4
    b08c:	bd70      	pop	{r4, r5, r6, pc}
    b08e:	bf00      	nop

0000b090 <_cleanup>:
_cleanup():
    b090:	f643 33dc 	movw	r3, #15324	; 0x3bdc
    b094:	f2c0 0302 	movt	r3, #2
    b098:	f24e 2111 	movw	r1, #57873	; 0xe211
    b09c:	f2c0 0100 	movt	r1, #0
    b0a0:	6818      	ldr	r0, [r3, #0]
    b0a2:	f000 babb 	b.w	b61c <_fwalk_reent>
    b0a6:	bf00      	nop

0000b0a8 <__sinit>:
__sinit():
    b0a8:	e92d 47f0 	stmdb	sp!, {r4, r5, r6, r7, r8, r9, sl, lr}
    b0ac:	4606      	mov	r6, r0
    b0ae:	f645 706c 	movw	r0, #24428	; 0x5f6c
    b0b2:	f2c0 0003 	movt	r0, #3
    b0b6:	f000 fae5 	bl	b684 <__retarget_lock_acquire_recursive>
    b0ba:	6bb4      	ldr	r4, [r6, #56]	; 0x38
    b0bc:	2c00      	cmp	r4, #0
    b0be:	d179      	bne.n	b1b4 <__sinit+0x10c>
    b0c0:	6875      	ldr	r5, [r6, #4]
    b0c2:	4621      	mov	r1, r4
    b0c4:	f8c6 42e0 	str.w	r4, [r6, #736]	; 0x2e0
    b0c8:	2208      	movs	r2, #8
    b0ca:	2303      	movs	r3, #3
    b0cc:	f105 005c 	add.w	r0, r5, #92	; 0x5c
    b0d0:	f8c6 32e4 	str.w	r3, [r6, #740]	; 0x2e4
    b0d4:	f24b 031d 	movw	r3, #45085	; 0xb01d
    b0d8:	f2c0 0300 	movt	r3, #0
    b0dc:	63f3      	str	r3, [r6, #60]	; 0x3c
    b0de:	f506 733b 	add.w	r3, r6, #748	; 0x2ec
    b0e2:	f8c6 32e8 	str.w	r3, [r6, #744]	; 0x2e8
    b0e6:	2304      	movs	r3, #4
    b0e8:	666c      	str	r4, [r5, #100]	; 0x64
    b0ea:	60eb      	str	r3, [r5, #12]
    b0ec:	f64c 7a61 	movw	sl, #53089	; 0xcf61
    b0f0:	f2c0 0a00 	movt	sl, #0
    b0f4:	e9c5 4400 	strd	r4, r4, [r5]
    b0f8:	60ac      	str	r4, [r5, #8]
    b0fa:	f64c 7989 	movw	r9, #53129	; 0xcf89
    b0fe:	f2c0 0900 	movt	r9, #0
    b102:	e9c5 4404 	strd	r4, r4, [r5, #16]
    b106:	61ac      	str	r4, [r5, #24]
    b108:	f64c 78c9 	movw	r8, #53193	; 0xcfc9
    b10c:	f2c0 0800 	movt	r8, #0
    b110:	f001 f926 	bl	c360 <memset>
    b114:	f64c 77ed 	movw	r7, #53229	; 0xcfed
    b118:	f2c0 0700 	movt	r7, #0
    b11c:	f105 0058 	add.w	r0, r5, #88	; 0x58
    b120:	e9c5 5a07 	strd	r5, sl, [r5, #28]
    b124:	f8c5 9024 	str.w	r9, [r5, #36]	; 0x24
    b128:	f8c5 8028 	str.w	r8, [r5, #40]	; 0x28
    b12c:	62ef      	str	r7, [r5, #44]	; 0x2c
    b12e:	f000 faa1 	bl	b674 <__retarget_lock_init_recursive>
    b132:	68b5      	ldr	r5, [r6, #8]
    b134:	4621      	mov	r1, r4
    b136:	2208      	movs	r2, #8
    b138:	f105 005c 	add.w	r0, r5, #92	; 0x5c
    b13c:	2309      	movs	r3, #9
    b13e:	f2c0 0301 	movt	r3, #1
    b142:	666c      	str	r4, [r5, #100]	; 0x64
    b144:	60eb      	str	r3, [r5, #12]
    b146:	e9c5 4400 	strd	r4, r4, [r5]
    b14a:	60ac      	str	r4, [r5, #8]
    b14c:	e9c5 4404 	strd	r4, r4, [r5, #16]
    b150:	61ac      	str	r4, [r5, #24]
    b152:	f001 f905 	bl	c360 <memset>
    b156:	f105 0058 	add.w	r0, r5, #88	; 0x58
    b15a:	e9c5 5a07 	strd	r5, sl, [r5, #28]
    b15e:	e9c5 9809 	strd	r9, r8, [r5, #36]	; 0x24
    b162:	62ef      	str	r7, [r5, #44]	; 0x2c
    b164:	f000 fa86 	bl	b674 <__retarget_lock_init_recursive>
    b168:	68f5      	ldr	r5, [r6, #12]
    b16a:	4621      	mov	r1, r4
    b16c:	2208      	movs	r2, #8
    b16e:	f105 005c 	add.w	r0, r5, #92	; 0x5c
    b172:	2312      	movs	r3, #18
    b174:	f2c0 0302 	movt	r3, #2
    b178:	666c      	str	r4, [r5, #100]	; 0x64
    b17a:	60eb      	str	r3, [r5, #12]
    b17c:	e9c5 4400 	strd	r4, r4, [r5]
    b180:	60ac      	str	r4, [r5, #8]
    b182:	e9c5 4404 	strd	r4, r4, [r5, #16]
    b186:	61ac      	str	r4, [r5, #24]
    b188:	f001 f8ea 	bl	c360 <memset>
    b18c:	f105 0058 	add.w	r0, r5, #88	; 0x58
    b190:	e9c5 5a07 	strd	r5, sl, [r5, #28]
    b194:	f8c5 9024 	str.w	r9, [r5, #36]	; 0x24
    b198:	e9c5 870a 	strd	r8, r7, [r5, #40]	; 0x28
    b19c:	f000 fa6a 	bl	b674 <__retarget_lock_init_recursive>
    b1a0:	2301      	movs	r3, #1
    b1a2:	f645 706c 	movw	r0, #24428	; 0x5f6c
    b1a6:	f2c0 0003 	movt	r0, #3
    b1aa:	63b3      	str	r3, [r6, #56]	; 0x38
    b1ac:	e8bd 47f0 	ldmia.w	sp!, {r4, r5, r6, r7, r8, r9, sl, lr}
    b1b0:	f000 ba70 	b.w	b694 <__retarget_lock_release_recursive>
    b1b4:	f645 706c 	movw	r0, #24428	; 0x5f6c
    b1b8:	f2c0 0003 	movt	r0, #3
    b1bc:	e8bd 47f0 	ldmia.w	sp!, {r4, r5, r6, r7, r8, r9, sl, lr}
    b1c0:	f000 ba68 	b.w	b694 <__retarget_lock_release_recursive>

0000b1c4 <__sfp>:
__sfp():
    b1c4:	e92d 41f0 	stmdb	sp!, {r4, r5, r6, r7, r8, lr}
    b1c8:	4607      	mov	r7, r0
    b1ca:	f645 7068 	movw	r0, #24424	; 0x5f68
    b1ce:	f2c0 0003 	movt	r0, #3
    b1d2:	f000 fa57 	bl	b684 <__retarget_lock_acquire_recursive>
    b1d6:	f643 33dc 	movw	r3, #15324	; 0x3bdc
    b1da:	f2c0 0302 	movt	r3, #2
    b1de:	681e      	ldr	r6, [r3, #0]
    b1e0:	6bb3      	ldr	r3, [r6, #56]	; 0x38
    b1e2:	b3b3      	cbz	r3, b252 <__sfp+0x8e>
    b1e4:	f506 7638 	add.w	r6, r6, #736	; 0x2e0
    b1e8:	f04f 0804 	mov.w	r8, #4
    b1ec:	e9d6 3401 	ldrd	r3, r4, [r6, #4]
    b1f0:	3b01      	subs	r3, #1
    b1f2:	d503      	bpl.n	b1fc <__sfp+0x38>
    b1f4:	e029      	b.n	b24a <__sfp+0x86>
    b1f6:	3468      	adds	r4, #104	; 0x68
    b1f8:	1c5a      	adds	r2, r3, #1
    b1fa:	d026      	beq.n	b24a <__sfp+0x86>
    b1fc:	f9b4 500c 	ldrsh.w	r5, [r4, #12]
    b200:	3b01      	subs	r3, #1
    b202:	2d00      	cmp	r5, #0
    b204:	d1f7      	bne.n	b1f6 <__sfp+0x32>
    b206:	f104 0058 	add.w	r0, r4, #88	; 0x58
    b20a:	2301      	movs	r3, #1
    b20c:	f6cf 73ff 	movt	r3, #65535	; 0xffff
    b210:	6665      	str	r5, [r4, #100]	; 0x64
    b212:	60e3      	str	r3, [r4, #12]
    b214:	f000 fa2e 	bl	b674 <__retarget_lock_init_recursive>
    b218:	f645 7068 	movw	r0, #24424	; 0x5f68
    b21c:	f2c0 0003 	movt	r0, #3
    b220:	f000 fa38 	bl	b694 <__retarget_lock_release_recursive>
    b224:	2208      	movs	r2, #8
    b226:	4629      	mov	r1, r5
    b228:	f104 005c 	add.w	r0, r4, #92	; 0x5c
    b22c:	6025      	str	r5, [r4, #0]
    b22e:	e9c4 5501 	strd	r5, r5, [r4, #4]
    b232:	e9c4 5504 	strd	r5, r5, [r4, #16]
    b236:	61a5      	str	r5, [r4, #24]
    b238:	f001 f892 	bl	c360 <memset>
    b23c:	e9c4 550c 	strd	r5, r5, [r4, #48]	; 0x30
    b240:	e9c4 5511 	strd	r5, r5, [r4, #68]	; 0x44
    b244:	4620      	mov	r0, r4
    b246:	e8bd 81f0 	ldmia.w	sp!, {r4, r5, r6, r7, r8, pc}
    b24a:	6835      	ldr	r5, [r6, #0]
    b24c:	b12d      	cbz	r5, b25a <__sfp+0x96>
    b24e:	462e      	mov	r6, r5
    b250:	e7cc      	b.n	b1ec <__sfp+0x28>
    b252:	4630      	mov	r0, r6
    b254:	f7ff ff28 	bl	b0a8 <__sinit>
    b258:	e7c4      	b.n	b1e4 <__sfp+0x20>
    b25a:	f44f 71d6 	mov.w	r1, #428	; 0x1ac
    b25e:	4638      	mov	r0, r7
    b260:	f000 fabc 	bl	b7dc <_malloc_r>
    b264:	4604      	mov	r4, r0
    b266:	b168      	cbz	r0, b284 <__sfp+0xc0>
    b268:	6005      	str	r5, [r0, #0]
    b26a:	4629      	mov	r1, r5
    b26c:	f8c0 8004 	str.w	r8, [r0, #4]
    b270:	4625      	mov	r5, r4
    b272:	300c      	adds	r0, #12
    b274:	f44f 72d0 	mov.w	r2, #416	; 0x1a0
    b278:	60a0      	str	r0, [r4, #8]
    b27a:	f001 f871 	bl	c360 <memset>
    b27e:	6034      	str	r4, [r6, #0]
    b280:	462e      	mov	r6, r5
    b282:	e7b3      	b.n	b1ec <__sfp+0x28>
    b284:	6030      	str	r0, [r6, #0]
    b286:	f645 7068 	movw	r0, #24424	; 0x5f68
    b28a:	f2c0 0003 	movt	r0, #3
    b28e:	f000 fa01 	bl	b694 <__retarget_lock_release_recursive>
    b292:	230c      	movs	r3, #12
    b294:	603b      	str	r3, [r7, #0]
    b296:	e7d5      	b.n	b244 <__sfp+0x80>

0000b298 <__sfp_lock_acquire>:
__sfp_lock_acquire():
    b298:	f645 7068 	movw	r0, #24424	; 0x5f68
    b29c:	f2c0 0003 	movt	r0, #3
    b2a0:	f000 b9f0 	b.w	b684 <__retarget_lock_acquire_recursive>

0000b2a4 <__sfp_lock_release>:
__sfp_lock_release():
    b2a4:	f645 7068 	movw	r0, #24424	; 0x5f68
    b2a8:	f2c0 0003 	movt	r0, #3
    b2ac:	f000 b9f2 	b.w	b694 <__retarget_lock_release_recursive>

0000b2b0 <__sinit_lock_acquire>:
__sinit_lock_acquire():
    b2b0:	f645 706c 	movw	r0, #24428	; 0x5f6c
    b2b4:	f2c0 0003 	movt	r0, #3
    b2b8:	f000 b9e4 	b.w	b684 <__retarget_lock_acquire_recursive>

0000b2bc <__sinit_lock_release>:
__sinit_lock_release():
    b2bc:	f645 706c 	movw	r0, #24428	; 0x5f6c
    b2c0:	f2c0 0003 	movt	r0, #3
    b2c4:	f000 b9e6 	b.w	b694 <__retarget_lock_release_recursive>

0000b2c8 <__fp_lock_all>:
__fp_lock_all():
    b2c8:	b508      	push	{r3, lr}
    b2ca:	f645 7068 	movw	r0, #24424	; 0x5f68
    b2ce:	f2c0 0003 	movt	r0, #3
    b2d2:	f000 f9d7 	bl	b684 <__retarget_lock_acquire_recursive>
    b2d6:	f245 43e8 	movw	r3, #21736	; 0x54e8
    b2da:	f2c0 0303 	movt	r3, #3
    b2de:	f24b 0129 	movw	r1, #45097	; 0xb029
    b2e2:	f2c0 0100 	movt	r1, #0
    b2e6:	6818      	ldr	r0, [r3, #0]
    b2e8:	e8bd 4008 	ldmia.w	sp!, {r3, lr}
    b2ec:	f000 b978 	b.w	b5e0 <_fwalk>

0000b2f0 <__fp_unlock_all>:
__fp_unlock_all():
    b2f0:	b508      	push	{r3, lr}
    b2f2:	f245 43e8 	movw	r3, #21736	; 0x54e8
    b2f6:	f2c0 0303 	movt	r3, #3
    b2fa:	f24b 0145 	movw	r1, #45125	; 0xb045
    b2fe:	f2c0 0100 	movt	r1, #0
    b302:	6818      	ldr	r0, [r3, #0]
    b304:	f000 f96c 	bl	b5e0 <_fwalk>
    b308:	f645 7068 	movw	r0, #24424	; 0x5f68
    b30c:	f2c0 0003 	movt	r0, #3
    b310:	e8bd 4008 	ldmia.w	sp!, {r3, lr}
    b314:	f000 b9be 	b.w	b694 <__retarget_lock_release_recursive>

0000b318 <_malloc_trim_r>:
_malloc_trim_r():
    b318:	b5f8      	push	{r3, r4, r5, r6, r7, lr}
    b31a:	f645 1718 	movw	r7, #22808	; 0x5918
    b31e:	f2c0 0703 	movt	r7, #3
    b322:	460c      	mov	r4, r1
    b324:	4606      	mov	r6, r0
    b326:	f001 f86d 	bl	c404 <__malloc_lock>
    b32a:	f5c4 637e 	rsb	r3, r4, #4064	; 0xfe0
    b32e:	68ba      	ldr	r2, [r7, #8]
    b330:	330f      	adds	r3, #15
    b332:	6855      	ldr	r5, [r2, #4]
    b334:	f025 0503 	bic.w	r5, r5, #3
    b338:	442b      	add	r3, r5
    b33a:	f423 637f 	bic.w	r3, r3, #4080	; 0xff0
    b33e:	f023 030f 	bic.w	r3, r3, #15
    b342:	f5a3 5480 	sub.w	r4, r3, #4096	; 0x1000
    b346:	f5b4 5f80 	cmp.w	r4, #4096	; 0x1000
    b34a:	db07      	blt.n	b35c <_malloc_trim_r+0x44>
    b34c:	2100      	movs	r1, #0
    b34e:	4630      	mov	r0, r6
    b350:	f001 fdf2 	bl	cf38 <_sbrk_r>
    b354:	68bb      	ldr	r3, [r7, #8]
    b356:	442b      	add	r3, r5
    b358:	4298      	cmp	r0, r3
    b35a:	d004      	beq.n	b366 <_malloc_trim_r+0x4e>
    b35c:	4630      	mov	r0, r6
    b35e:	f001 f857 	bl	c410 <__malloc_unlock>
    b362:	2000      	movs	r0, #0
    b364:	bdf8      	pop	{r3, r4, r5, r6, r7, pc}
    b366:	4261      	negs	r1, r4
    b368:	4630      	mov	r0, r6
    b36a:	f001 fde5 	bl	cf38 <_sbrk_r>
    b36e:	3001      	adds	r0, #1
    b370:	d010      	beq.n	b394 <_malloc_trim_r+0x7c>
    b372:	68bb      	ldr	r3, [r7, #8]
    b374:	f645 7274 	movw	r2, #24436	; 0x5f74
    b378:	f2c0 0203 	movt	r2, #3
    b37c:	1b2d      	subs	r5, r5, r4
    b37e:	f045 0501 	orr.w	r5, r5, #1
    b382:	4630      	mov	r0, r6
    b384:	605d      	str	r5, [r3, #4]
    b386:	6813      	ldr	r3, [r2, #0]
    b388:	1b1b      	subs	r3, r3, r4
    b38a:	6013      	str	r3, [r2, #0]
    b38c:	f001 f840 	bl	c410 <__malloc_unlock>
    b390:	2001      	movs	r0, #1
    b392:	bdf8      	pop	{r3, r4, r5, r6, r7, pc}
    b394:	2100      	movs	r1, #0
    b396:	4630      	mov	r0, r6
    b398:	f001 fdce 	bl	cf38 <_sbrk_r>
    b39c:	68ba      	ldr	r2, [r7, #8]
    b39e:	1a83      	subs	r3, r0, r2
    b3a0:	2b0f      	cmp	r3, #15
    b3a2:	dddb      	ble.n	b35c <_malloc_trim_r+0x44>
    b3a4:	f043 0301 	orr.w	r3, r3, #1
    b3a8:	6053      	str	r3, [r2, #4]
    b3aa:	f645 5320 	movw	r3, #23840	; 0x5d20
    b3ae:	f2c0 0303 	movt	r3, #3
    b3b2:	f645 7174 	movw	r1, #24436	; 0x5f74
    b3b6:	f2c0 0103 	movt	r1, #3
    b3ba:	681b      	ldr	r3, [r3, #0]
    b3bc:	1ac0      	subs	r0, r0, r3
    b3be:	6008      	str	r0, [r1, #0]
    b3c0:	e7cc      	b.n	b35c <_malloc_trim_r+0x44>
    b3c2:	bf00      	nop

0000b3c4 <_free_r>:
_free_r():
    b3c4:	2900      	cmp	r1, #0
    b3c6:	d065      	beq.n	b494 <_free_r+0xd0>
    b3c8:	b5f8      	push	{r3, r4, r5, r6, r7, lr}
    b3ca:	460c      	mov	r4, r1
    b3cc:	4606      	mov	r6, r0
    b3ce:	f001 f819 	bl	c404 <__malloc_lock>
    b3d2:	f1a4 0508 	sub.w	r5, r4, #8
    b3d6:	f854 2c04 	ldr.w	r2, [r4, #-4]
    b3da:	f645 1c18 	movw	ip, #22808	; 0x5918
    b3de:	f2c0 0c03 	movt	ip, #3
    b3e2:	f022 0101 	bic.w	r1, r2, #1
    b3e6:	eb05 0e01 	add.w	lr, r5, r1
    b3ea:	f8dc 0008 	ldr.w	r0, [ip, #8]
    b3ee:	f8de 3004 	ldr.w	r3, [lr, #4]
    b3f2:	4570      	cmp	r0, lr
    b3f4:	f023 0303 	bic.w	r3, r3, #3
    b3f8:	f000 808c 	beq.w	b514 <_free_r+0x150>
    b3fc:	f8ce 3004 	str.w	r3, [lr, #4]
    b400:	07d7      	lsls	r7, r2, #31
    b402:	d432      	bmi.n	b46a <_free_r+0xa6>
    b404:	f854 2c08 	ldr.w	r2, [r4, #-8]
    b408:	f10c 0008 	add.w	r0, ip, #8
    b40c:	1aad      	subs	r5, r5, r2
    b40e:	4411      	add	r1, r2
    b410:	68aa      	ldr	r2, [r5, #8]
    b412:	4282      	cmp	r2, r0
    b414:	d06b      	beq.n	b4ee <_free_r+0x12a>
    b416:	eb0e 0403 	add.w	r4, lr, r3
    b41a:	6867      	ldr	r7, [r4, #4]
    b41c:	68ec      	ldr	r4, [r5, #12]
    b41e:	60d4      	str	r4, [r2, #12]
    b420:	60a2      	str	r2, [r4, #8]
    b422:	07fc      	lsls	r4, r7, #31
    b424:	f140 80a1 	bpl.w	b56a <_free_r+0x1a6>
    b428:	f041 0301 	orr.w	r3, r1, #1
    b42c:	606b      	str	r3, [r5, #4]
    b42e:	f8ce 1000 	str.w	r1, [lr]
    b432:	f5b1 7f00 	cmp.w	r1, #512	; 0x200
    b436:	d237      	bcs.n	b4a8 <_free_r+0xe4>
    b438:	094a      	lsrs	r2, r1, #5
    b43a:	08cb      	lsrs	r3, r1, #3
    b43c:	2101      	movs	r1, #1
    b43e:	3301      	adds	r3, #1
    b440:	4091      	lsls	r1, r2
    b442:	f8dc 2004 	ldr.w	r2, [ip, #4]
    b446:	4311      	orrs	r1, r2
    b448:	f8cc 1004 	str.w	r1, [ip, #4]
    b44c:	f85c 1033 	ldr.w	r1, [ip, r3, lsl #3]
    b450:	eb0c 02c3 	add.w	r2, ip, r3, lsl #3
    b454:	3a08      	subs	r2, #8
    b456:	e9c5 1202 	strd	r1, r2, [r5, #8]
    b45a:	f84c 5033 	str.w	r5, [ip, r3, lsl #3]
    b45e:	60cd      	str	r5, [r1, #12]
    b460:	4630      	mov	r0, r6
    b462:	e8bd 40f8 	ldmia.w	sp!, {r3, r4, r5, r6, r7, lr}
    b466:	f000 bfd3 	b.w	c410 <__malloc_unlock>
    b46a:	eb0e 0203 	add.w	r2, lr, r3
    b46e:	6852      	ldr	r2, [r2, #4]
    b470:	07d0      	lsls	r0, r2, #31
    b472:	d410      	bmi.n	b496 <_free_r+0xd2>
    b474:	4419      	add	r1, r3
    b476:	f10c 0008 	add.w	r0, ip, #8
    b47a:	f8de 3008 	ldr.w	r3, [lr, #8]
    b47e:	4283      	cmp	r3, r0
    b480:	d07b      	beq.n	b57a <_free_r+0x1b6>
    b482:	f8de 200c 	ldr.w	r2, [lr, #12]
    b486:	60da      	str	r2, [r3, #12]
    b488:	6093      	str	r3, [r2, #8]
    b48a:	f041 0301 	orr.w	r3, r1, #1
    b48e:	606b      	str	r3, [r5, #4]
    b490:	5069      	str	r1, [r5, r1]
    b492:	e7ce      	b.n	b432 <_free_r+0x6e>
    b494:	4770      	bx	lr
    b496:	f041 0301 	orr.w	r3, r1, #1
    b49a:	f5b1 7f00 	cmp.w	r1, #512	; 0x200
    b49e:	f844 3c04 	str.w	r3, [r4, #-4]
    b4a2:	f8ce 1000 	str.w	r1, [lr]
    b4a6:	d3c7      	bcc.n	b438 <_free_r+0x74>
    b4a8:	0a4b      	lsrs	r3, r1, #9
    b4aa:	f5b1 6f20 	cmp.w	r1, #2560	; 0xa00
    b4ae:	d251      	bcs.n	b554 <_free_r+0x190>
    b4b0:	098b      	lsrs	r3, r1, #6
    b4b2:	f103 0039 	add.w	r0, r3, #57	; 0x39
    b4b6:	f103 0238 	add.w	r2, r3, #56	; 0x38
    b4ba:	00c3      	lsls	r3, r0, #3
    b4bc:	eb0c 0003 	add.w	r0, ip, r3
    b4c0:	f85c 3003 	ldr.w	r3, [ip, r3]
    b4c4:	3808      	subs	r0, #8
    b4c6:	4298      	cmp	r0, r3
    b4c8:	d060      	beq.n	b58c <_free_r+0x1c8>
    b4ca:	685a      	ldr	r2, [r3, #4]
    b4cc:	f022 0203 	bic.w	r2, r2, #3
    b4d0:	428a      	cmp	r2, r1
    b4d2:	d902      	bls.n	b4da <_free_r+0x116>
    b4d4:	689b      	ldr	r3, [r3, #8]
    b4d6:	4298      	cmp	r0, r3
    b4d8:	d1f7      	bne.n	b4ca <_free_r+0x106>
    b4da:	68d8      	ldr	r0, [r3, #12]
    b4dc:	e9c5 3002 	strd	r3, r0, [r5, #8]
    b4e0:	6085      	str	r5, [r0, #8]
    b4e2:	4630      	mov	r0, r6
    b4e4:	60dd      	str	r5, [r3, #12]
    b4e6:	e8bd 40f8 	ldmia.w	sp!, {r3, r4, r5, r6, r7, lr}
    b4ea:	f000 bf91 	b.w	c410 <__malloc_unlock>
    b4ee:	eb0e 0203 	add.w	r2, lr, r3
    b4f2:	6852      	ldr	r2, [r2, #4]
    b4f4:	07d2      	lsls	r2, r2, #31
    b4f6:	d46c      	bmi.n	b5d2 <_free_r+0x20e>
    b4f8:	440b      	add	r3, r1
    b4fa:	4630      	mov	r0, r6
    b4fc:	e9de 1202 	ldrd	r1, r2, [lr, #8]
    b500:	60ca      	str	r2, [r1, #12]
    b502:	6091      	str	r1, [r2, #8]
    b504:	f043 0201 	orr.w	r2, r3, #1
    b508:	606a      	str	r2, [r5, #4]
    b50a:	50eb      	str	r3, [r5, r3]
    b50c:	e8bd 40f8 	ldmia.w	sp!, {r3, r4, r5, r6, r7, lr}
    b510:	f000 bf7e 	b.w	c410 <__malloc_unlock>
    b514:	440b      	add	r3, r1
    b516:	07d2      	lsls	r2, r2, #31
    b518:	d407      	bmi.n	b52a <_free_r+0x166>
    b51a:	f854 2c08 	ldr.w	r2, [r4, #-8]
    b51e:	1aad      	subs	r5, r5, r2
    b520:	4413      	add	r3, r2
    b522:	e9d5 1202 	ldrd	r1, r2, [r5, #8]
    b526:	60ca      	str	r2, [r1, #12]
    b528:	6091      	str	r1, [r2, #8]
    b52a:	f043 0201 	orr.w	r2, r3, #1
    b52e:	606a      	str	r2, [r5, #4]
    b530:	f645 5224 	movw	r2, #23844	; 0x5d24
    b534:	f2c0 0203 	movt	r2, #3
    b538:	f8cc 5008 	str.w	r5, [ip, #8]
    b53c:	6812      	ldr	r2, [r2, #0]
    b53e:	429a      	cmp	r2, r3
    b540:	d88e      	bhi.n	b460 <_free_r+0x9c>
    b542:	f645 73a4 	movw	r3, #24484	; 0x5fa4
    b546:	f2c0 0303 	movt	r3, #3
    b54a:	4630      	mov	r0, r6
    b54c:	6819      	ldr	r1, [r3, #0]
    b54e:	f7ff fee3 	bl	b318 <_malloc_trim_r>
    b552:	e785      	b.n	b460 <_free_r+0x9c>
    b554:	2b14      	cmp	r3, #20
    b556:	d90a      	bls.n	b56e <_free_r+0x1aa>
    b558:	2b54      	cmp	r3, #84	; 0x54
    b55a:	d821      	bhi.n	b5a0 <_free_r+0x1dc>
    b55c:	0b0b      	lsrs	r3, r1, #12
    b55e:	f103 006f 	add.w	r0, r3, #111	; 0x6f
    b562:	f103 026e 	add.w	r2, r3, #110	; 0x6e
    b566:	00c3      	lsls	r3, r0, #3
    b568:	e7a8      	b.n	b4bc <_free_r+0xf8>
    b56a:	4419      	add	r1, r3
    b56c:	e785      	b.n	b47a <_free_r+0xb6>
    b56e:	f103 005c 	add.w	r0, r3, #92	; 0x5c
    b572:	f103 025b 	add.w	r2, r3, #91	; 0x5b
    b576:	00c3      	lsls	r3, r0, #3
    b578:	e7a0      	b.n	b4bc <_free_r+0xf8>
    b57a:	e9cc 5504 	strd	r5, r5, [ip, #16]
    b57e:	f041 0301 	orr.w	r3, r1, #1
    b582:	e9c5 0002 	strd	r0, r0, [r5, #8]
    b586:	606b      	str	r3, [r5, #4]
    b588:	5069      	str	r1, [r5, r1]
    b58a:	e769      	b.n	b460 <_free_r+0x9c>
    b58c:	2101      	movs	r1, #1
    b58e:	1092      	asrs	r2, r2, #2
    b590:	fa01 f202 	lsl.w	r2, r1, r2
    b594:	f8dc 1004 	ldr.w	r1, [ip, #4]
    b598:	430a      	orrs	r2, r1
    b59a:	f8cc 2004 	str.w	r2, [ip, #4]
    b59e:	e79d      	b.n	b4dc <_free_r+0x118>
    b5a0:	f5b3 7faa 	cmp.w	r3, #340	; 0x154
    b5a4:	d806      	bhi.n	b5b4 <_free_r+0x1f0>
    b5a6:	0bcb      	lsrs	r3, r1, #15
    b5a8:	f103 0078 	add.w	r0, r3, #120	; 0x78
    b5ac:	f103 0277 	add.w	r2, r3, #119	; 0x77
    b5b0:	00c3      	lsls	r3, r0, #3
    b5b2:	e783      	b.n	b4bc <_free_r+0xf8>
    b5b4:	f240 5254 	movw	r2, #1364	; 0x554
    b5b8:	4293      	cmp	r3, r2
    b5ba:	d806      	bhi.n	b5ca <_free_r+0x206>
    b5bc:	0c8b      	lsrs	r3, r1, #18
    b5be:	f103 007d 	add.w	r0, r3, #125	; 0x7d
    b5c2:	f103 027c 	add.w	r2, r3, #124	; 0x7c
    b5c6:	00c3      	lsls	r3, r0, #3
    b5c8:	e778      	b.n	b4bc <_free_r+0xf8>
    b5ca:	f44f 737e 	mov.w	r3, #1016	; 0x3f8
    b5ce:	227e      	movs	r2, #126	; 0x7e
    b5d0:	e774      	b.n	b4bc <_free_r+0xf8>
    b5d2:	f041 0301 	orr.w	r3, r1, #1
    b5d6:	606b      	str	r3, [r5, #4]
    b5d8:	f8ce 1000 	str.w	r1, [lr]
    b5dc:	e740      	b.n	b460 <_free_r+0x9c>
    b5de:	bf00      	nop

0000b5e0 <_fwalk>:
_fwalk():
    b5e0:	e92d 41f0 	stmdb	sp!, {r4, r5, r6, r7, r8, lr}
    b5e4:	4688      	mov	r8, r1
    b5e6:	f500 7738 	add.w	r7, r0, #736	; 0x2e0
    b5ea:	2600      	movs	r6, #0
    b5ec:	e9d7 5401 	ldrd	r5, r4, [r7, #4]
    b5f0:	3d01      	subs	r5, #1
    b5f2:	d40d      	bmi.n	b610 <_fwalk+0x30>
    b5f4:	89a3      	ldrh	r3, [r4, #12]
    b5f6:	3d01      	subs	r5, #1
    b5f8:	2b01      	cmp	r3, #1
    b5fa:	d906      	bls.n	b60a <_fwalk+0x2a>
    b5fc:	f9b4 300e 	ldrsh.w	r3, [r4, #14]
    b600:	4620      	mov	r0, r4
    b602:	3301      	adds	r3, #1
    b604:	d001      	beq.n	b60a <_fwalk+0x2a>
    b606:	47c0      	blx	r8
    b608:	4306      	orrs	r6, r0
    b60a:	3468      	adds	r4, #104	; 0x68
    b60c:	1c6b      	adds	r3, r5, #1
    b60e:	d1f1      	bne.n	b5f4 <_fwalk+0x14>
    b610:	683f      	ldr	r7, [r7, #0]
    b612:	2f00      	cmp	r7, #0
    b614:	d1ea      	bne.n	b5ec <_fwalk+0xc>
    b616:	4630      	mov	r0, r6
    b618:	e8bd 81f0 	ldmia.w	sp!, {r4, r5, r6, r7, r8, pc}

0000b61c <_fwalk_reent>:
_fwalk_reent():
    b61c:	e92d 43f8 	stmdb	sp!, {r3, r4, r5, r6, r7, r8, r9, lr}
    b620:	4681      	mov	r9, r0
    b622:	4688      	mov	r8, r1
    b624:	f500 7738 	add.w	r7, r0, #736	; 0x2e0
    b628:	2600      	movs	r6, #0
    b62a:	e9d7 5401 	ldrd	r5, r4, [r7, #4]
    b62e:	3d01      	subs	r5, #1
    b630:	d40e      	bmi.n	b650 <_fwalk_reent+0x34>
    b632:	89a3      	ldrh	r3, [r4, #12]
    b634:	3d01      	subs	r5, #1
    b636:	2b01      	cmp	r3, #1
    b638:	d907      	bls.n	b64a <_fwalk_reent+0x2e>
    b63a:	f9b4 300e 	ldrsh.w	r3, [r4, #14]
    b63e:	4621      	mov	r1, r4
    b640:	4648      	mov	r0, r9
    b642:	3301      	adds	r3, #1
    b644:	d001      	beq.n	b64a <_fwalk_reent+0x2e>
    b646:	47c0      	blx	r8
    b648:	4306      	orrs	r6, r0
    b64a:	3468      	adds	r4, #104	; 0x68
    b64c:	1c6b      	adds	r3, r5, #1
    b64e:	d1f0      	bne.n	b632 <_fwalk_reent+0x16>
    b650:	683f      	ldr	r7, [r7, #0]
    b652:	2f00      	cmp	r7, #0
    b654:	d1e9      	bne.n	b62a <_fwalk_reent+0xe>
    b656:	4630      	mov	r0, r6
    b658:	e8bd 83f8 	ldmia.w	sp!, {r3, r4, r5, r6, r7, r8, r9, pc}

0000b65c <__localeconv_l>:
__localeconv_l():
    b65c:	30f0      	adds	r0, #240	; 0xf0
    b65e:	4770      	bx	lr

0000b660 <_localeconv_r>:
_localeconv_r():
    b660:	4800      	ldr	r0, [pc, #0]	; (b664 <_localeconv_r+0x4>)
    b662:	4770      	bx	lr
    b664:	00035e18 	andeq	r5, r3, r8, lsl lr

0000b668 <localeconv>:
localeconv():
    b668:	4800      	ldr	r0, [pc, #0]	; (b66c <localeconv+0x4>)
    b66a:	4770      	bx	lr
    b66c:	00035e18 	andeq	r5, r3, r8, lsl lr

0000b670 <__retarget_lock_init>:
__retarget_lock_init():
    b670:	4770      	bx	lr
    b672:	bf00      	nop

0000b674 <__retarget_lock_init_recursive>:
__retarget_lock_init_recursive():
    b674:	4770      	bx	lr
    b676:	bf00      	nop

0000b678 <__retarget_lock_close>:
__retarget_lock_close():
    b678:	4770      	bx	lr
    b67a:	bf00      	nop

0000b67c <__retarget_lock_close_recursive>:
__retarget_lock_close_recursive():
    b67c:	4770      	bx	lr
    b67e:	bf00      	nop

0000b680 <__retarget_lock_acquire>:
__retarget_lock_acquire():
    b680:	4770      	bx	lr
    b682:	bf00      	nop

0000b684 <__retarget_lock_acquire_recursive>:
__retarget_lock_acquire_recursive():
    b684:	4770      	bx	lr
    b686:	bf00      	nop

0000b688 <__retarget_lock_try_acquire>:
__retarget_lock_try_acquire():
    b688:	2001      	movs	r0, #1
    b68a:	4770      	bx	lr

0000b68c <__retarget_lock_try_acquire_recursive>:
__retarget_lock_try_acquire_recursive():
    b68c:	2001      	movs	r0, #1
    b68e:	4770      	bx	lr

0000b690 <__retarget_lock_release>:
__retarget_lock_release():
    b690:	4770      	bx	lr
    b692:	bf00      	nop

0000b694 <__retarget_lock_release_recursive>:
__retarget_lock_release_recursive():
    b694:	4770      	bx	lr
    b696:	bf00      	nop

0000b698 <__smakebuf_r>:
__smakebuf_r():
    b698:	898b      	ldrh	r3, [r1, #12]
    b69a:	e92d 41f0 	stmdb	sp!, {r4, r5, r6, r7, r8, lr}
    b69e:	460c      	mov	r4, r1
    b6a0:	b096      	sub	sp, #88	; 0x58
    b6a2:	0799      	lsls	r1, r3, #30
    b6a4:	d508      	bpl.n	b6b8 <__smakebuf_r+0x20>
    b6a6:	f104 0343 	add.w	r3, r4, #67	; 0x43
    b6aa:	2201      	movs	r2, #1
    b6ac:	6023      	str	r3, [r4, #0]
    b6ae:	e9c4 3204 	strd	r3, r2, [r4, #16]
    b6b2:	b016      	add	sp, #88	; 0x58
    b6b4:	e8bd 81f0 	ldmia.w	sp!, {r4, r5, r6, r7, r8, pc}
    b6b8:	f9b4 100e 	ldrsh.w	r1, [r4, #14]
    b6bc:	4606      	mov	r6, r0
    b6be:	2900      	cmp	r1, #0
    b6c0:	db2a      	blt.n	b718 <__smakebuf_r+0x80>
    b6c2:	466a      	mov	r2, sp
    b6c4:	f002 fefe 	bl	e4c4 <_fstat_r>
    b6c8:	2800      	cmp	r0, #0
    b6ca:	db24      	blt.n	b716 <__smakebuf_r+0x7e>
    b6cc:	9d01      	ldr	r5, [sp, #4]
    b6ce:	f44f 6880 	mov.w	r8, #1024	; 0x400
    b6d2:	f44f 6700 	mov.w	r7, #2048	; 0x800
    b6d6:	f405 4570 	and.w	r5, r5, #61440	; 0xf000
    b6da:	f5a5 5500 	sub.w	r5, r5, #8192	; 0x2000
    b6de:	fab5 f585 	clz	r5, r5
    b6e2:	096d      	lsrs	r5, r5, #5
    b6e4:	4641      	mov	r1, r8
    b6e6:	4630      	mov	r0, r6
    b6e8:	f000 f878 	bl	b7dc <_malloc_r>
    b6ec:	f9b4 300c 	ldrsh.w	r3, [r4, #12]
    b6f0:	b308      	cbz	r0, b736 <__smakebuf_r+0x9e>
    b6f2:	f043 0380 	orr.w	r3, r3, #128	; 0x80
    b6f6:	f24b 021d 	movw	r2, #45085	; 0xb01d
    b6fa:	f2c0 0200 	movt	r2, #0
    b6fe:	63f2      	str	r2, [r6, #60]	; 0x3c
    b700:	f8c4 8014 	str.w	r8, [r4, #20]
    b704:	81a3      	strh	r3, [r4, #12]
    b706:	6020      	str	r0, [r4, #0]
    b708:	6120      	str	r0, [r4, #16]
    b70a:	bb35      	cbnz	r5, b75a <__smakebuf_r+0xc2>
    b70c:	433b      	orrs	r3, r7
    b70e:	81a3      	strh	r3, [r4, #12]
    b710:	b016      	add	sp, #88	; 0x58
    b712:	e8bd 81f0 	ldmia.w	sp!, {r4, r5, r6, r7, r8, pc}
    b716:	89a3      	ldrh	r3, [r4, #12]
    b718:	f013 0580 	ands.w	r5, r3, #128	; 0x80
    b71c:	d019      	beq.n	b752 <__smakebuf_r+0xba>
    b71e:	f04f 0840 	mov.w	r8, #64	; 0x40
    b722:	2500      	movs	r5, #0
    b724:	4641      	mov	r1, r8
    b726:	4630      	mov	r0, r6
    b728:	f000 f858 	bl	b7dc <_malloc_r>
    b72c:	462f      	mov	r7, r5
    b72e:	f9b4 300c 	ldrsh.w	r3, [r4, #12]
    b732:	2800      	cmp	r0, #0
    b734:	d1dd      	bne.n	b6f2 <__smakebuf_r+0x5a>
    b736:	059a      	lsls	r2, r3, #22
    b738:	d4bb      	bmi.n	b6b2 <__smakebuf_r+0x1a>
    b73a:	f023 0303 	bic.w	r3, r3, #3
    b73e:	f104 0243 	add.w	r2, r4, #67	; 0x43
    b742:	f043 0302 	orr.w	r3, r3, #2
    b746:	2101      	movs	r1, #1
    b748:	81a3      	strh	r3, [r4, #12]
    b74a:	6022      	str	r2, [r4, #0]
    b74c:	e9c4 2104 	strd	r2, r1, [r4, #16]
    b750:	e7af      	b.n	b6b2 <__smakebuf_r+0x1a>
    b752:	f44f 6880 	mov.w	r8, #1024	; 0x400
    b756:	462f      	mov	r7, r5
    b758:	e7c4      	b.n	b6e4 <__smakebuf_r+0x4c>
    b75a:	f9b4 100e 	ldrsh.w	r1, [r4, #14]
    b75e:	4630      	mov	r0, r6
    b760:	f003 f842 	bl	e7e8 <_isatty_r>
    b764:	b910      	cbnz	r0, b76c <__smakebuf_r+0xd4>
    b766:	f9b4 300c 	ldrsh.w	r3, [r4, #12]
    b76a:	e7cf      	b.n	b70c <__smakebuf_r+0x74>
    b76c:	89a3      	ldrh	r3, [r4, #12]
    b76e:	f023 0303 	bic.w	r3, r3, #3
    b772:	f043 0301 	orr.w	r3, r3, #1
    b776:	b21b      	sxth	r3, r3
    b778:	e7c8      	b.n	b70c <__smakebuf_r+0x74>
    b77a:	bf00      	nop

0000b77c <__swhatbuf_r>:
__swhatbuf_r():
    b77c:	b570      	push	{r4, r5, r6, lr}
    b77e:	460c      	mov	r4, r1
    b780:	f9b1 100e 	ldrsh.w	r1, [r1, #14]
    b784:	b096      	sub	sp, #88	; 0x58
    b786:	4615      	mov	r5, r2
    b788:	461e      	mov	r6, r3
    b78a:	2900      	cmp	r1, #0
    b78c:	db14      	blt.n	b7b8 <__swhatbuf_r+0x3c>
    b78e:	466a      	mov	r2, sp
    b790:	f002 fe98 	bl	e4c4 <_fstat_r>
    b794:	2800      	cmp	r0, #0
    b796:	db0f      	blt.n	b7b8 <__swhatbuf_r+0x3c>
    b798:	9a01      	ldr	r2, [sp, #4]
    b79a:	f44f 6000 	mov.w	r0, #2048	; 0x800
    b79e:	f44f 6380 	mov.w	r3, #1024	; 0x400
    b7a2:	f402 4270 	and.w	r2, r2, #61440	; 0xf000
    b7a6:	f5a2 5200 	sub.w	r2, r2, #8192	; 0x2000
    b7aa:	fab2 f282 	clz	r2, r2
    b7ae:	0952      	lsrs	r2, r2, #5
    b7b0:	6032      	str	r2, [r6, #0]
    b7b2:	602b      	str	r3, [r5, #0]
    b7b4:	b016      	add	sp, #88	; 0x58
    b7b6:	bd70      	pop	{r4, r5, r6, pc}
    b7b8:	f9b4 100c 	ldrsh.w	r1, [r4, #12]
    b7bc:	2300      	movs	r3, #0
    b7be:	6033      	str	r3, [r6, #0]
    b7c0:	f011 0080 	ands.w	r0, r1, #128	; 0x80
    b7c4:	d004      	beq.n	b7d0 <__swhatbuf_r+0x54>
    b7c6:	2240      	movs	r2, #64	; 0x40
    b7c8:	4618      	mov	r0, r3
    b7ca:	602a      	str	r2, [r5, #0]
    b7cc:	b016      	add	sp, #88	; 0x58
    b7ce:	bd70      	pop	{r4, r5, r6, pc}
    b7d0:	f44f 6380 	mov.w	r3, #1024	; 0x400
    b7d4:	602b      	str	r3, [r5, #0]
    b7d6:	b016      	add	sp, #88	; 0x58
    b7d8:	bd70      	pop	{r4, r5, r6, pc}
    b7da:	bf00      	nop

0000b7dc <_malloc_r>:
_malloc_r():
    b7dc:	e92d 4ff0 	stmdb	sp!, {r4, r5, r6, r7, r8, r9, sl, fp, lr}
    b7e0:	f101 030b 	add.w	r3, r1, #11
    b7e4:	4605      	mov	r5, r0
    b7e6:	b083      	sub	sp, #12
    b7e8:	2b16      	cmp	r3, #22
    b7ea:	d827      	bhi.n	b83c <_malloc_r+0x60>
    b7ec:	2910      	cmp	r1, #16
    b7ee:	f200 811f 	bhi.w	ba30 <_malloc_r+0x254>
    b7f2:	f000 fe07 	bl	c404 <__malloc_lock>
    b7f6:	2410      	movs	r4, #16
    b7f8:	2218      	movs	r2, #24
    b7fa:	2002      	movs	r0, #2
    b7fc:	f645 1618 	movw	r6, #22808	; 0x5918
    b800:	f2c0 0603 	movt	r6, #3
    b804:	4432      	add	r2, r6
    b806:	f1a2 0108 	sub.w	r1, r2, #8
    b80a:	6853      	ldr	r3, [r2, #4]
    b80c:	428b      	cmp	r3, r1
    b80e:	f000 8116 	beq.w	ba3e <_malloc_r+0x262>
    b812:	685a      	ldr	r2, [r3, #4]
    b814:	4628      	mov	r0, r5
    b816:	e9d3 6102 	ldrd	r6, r1, [r3, #8]
    b81a:	f022 0203 	bic.w	r2, r2, #3
    b81e:	441a      	add	r2, r3
    b820:	f103 0408 	add.w	r4, r3, #8
    b824:	6853      	ldr	r3, [r2, #4]
    b826:	60f1      	str	r1, [r6, #12]
    b828:	f043 0301 	orr.w	r3, r3, #1
    b82c:	608e      	str	r6, [r1, #8]
    b82e:	6053      	str	r3, [r2, #4]
    b830:	f000 fdee 	bl	c410 <__malloc_unlock>
    b834:	4620      	mov	r0, r4
    b836:	b003      	add	sp, #12
    b838:	e8bd 8ff0 	ldmia.w	sp!, {r4, r5, r6, r7, r8, r9, sl, fp, pc}
    b83c:	f023 0407 	bic.w	r4, r3, #7
    b840:	42a1      	cmp	r1, r4
    b842:	bf98      	it	ls
    b844:	2100      	movls	r1, #0
    b846:	bf88      	it	hi
    b848:	2101      	movhi	r1, #1
    b84a:	ea51 73d3 	orrs.w	r3, r1, r3, lsr #31
    b84e:	f040 80ef 	bne.w	ba30 <_malloc_r+0x254>
    b852:	f000 fdd7 	bl	c404 <__malloc_lock>
    b856:	f5b4 7ffc 	cmp.w	r4, #504	; 0x1f8
    b85a:	f0c0 81c6 	bcc.w	bbea <_malloc_r+0x40e>
    b85e:	0a63      	lsrs	r3, r4, #9
    b860:	f000 8155 	beq.w	bb0e <_malloc_r+0x332>
    b864:	2b04      	cmp	r3, #4
    b866:	f200 819c 	bhi.w	bba2 <_malloc_r+0x3c6>
    b86a:	09a3      	lsrs	r3, r4, #6
    b86c:	f103 0039 	add.w	r0, r3, #57	; 0x39
    b870:	f103 0738 	add.w	r7, r3, #56	; 0x38
    b874:	00c3      	lsls	r3, r0, #3
    b876:	f645 1618 	movw	r6, #22808	; 0x5918
    b87a:	f2c0 0603 	movt	r6, #3
    b87e:	4433      	add	r3, r6
    b880:	f1a3 0c08 	sub.w	ip, r3, #8
    b884:	685b      	ldr	r3, [r3, #4]
    b886:	459c      	cmp	ip, r3
    b888:	d107      	bne.n	b89a <_malloc_r+0xbe>
    b88a:	e0de      	b.n	ba4a <_malloc_r+0x26e>
    b88c:	2900      	cmp	r1, #0
    b88e:	f280 815f 	bge.w	bb50 <_malloc_r+0x374>
    b892:	68db      	ldr	r3, [r3, #12]
    b894:	459c      	cmp	ip, r3
    b896:	f000 80d8 	beq.w	ba4a <_malloc_r+0x26e>
    b89a:	685a      	ldr	r2, [r3, #4]
    b89c:	f022 0203 	bic.w	r2, r2, #3
    b8a0:	1b11      	subs	r1, r2, r4
    b8a2:	290f      	cmp	r1, #15
    b8a4:	ddf2      	ble.n	b88c <_malloc_r+0xb0>
    b8a6:	6933      	ldr	r3, [r6, #16]
    b8a8:	4638      	mov	r0, r7
    b8aa:	f8df e4bc 	ldr.w	lr, [pc, #1212]	; bd68 <_malloc_r+0x58c>
    b8ae:	4573      	cmp	r3, lr
    b8b0:	f040 80d1 	bne.w	ba56 <_malloc_r+0x27a>
    b8b4:	1083      	asrs	r3, r0, #2
    b8b6:	2101      	movs	r1, #1
    b8b8:	6872      	ldr	r2, [r6, #4]
    b8ba:	4099      	lsls	r1, r3
    b8bc:	4291      	cmp	r1, r2
    b8be:	f240 80f2 	bls.w	baa6 <_malloc_r+0x2ca>
    b8c2:	68b7      	ldr	r7, [r6, #8]
    b8c4:	687b      	ldr	r3, [r7, #4]
    b8c6:	f023 0803 	bic.w	r8, r3, #3
    b8ca:	4544      	cmp	r4, r8
    b8cc:	eba8 0304 	sub.w	r3, r8, r4
    b8d0:	bf98      	it	ls
    b8d2:	2200      	movls	r2, #0
    b8d4:	bf88      	it	hi
    b8d6:	2201      	movhi	r2, #1
    b8d8:	2b0f      	cmp	r3, #15
    b8da:	bfc8      	it	gt
    b8dc:	2100      	movgt	r1, #0
    b8de:	bfd8      	it	le
    b8e0:	2101      	movle	r1, #1
    b8e2:	430a      	orrs	r2, r1
    b8e4:	f000 8123 	beq.w	bb2e <_malloc_r+0x352>
    b8e8:	f645 73a4 	movw	r3, #24484	; 0x5fa4
    b8ec:	f2c0 0303 	movt	r3, #3
    b8f0:	f645 5a20 	movw	sl, #23840	; 0x5d20
    b8f4:	f2c0 0a03 	movt	sl, #3
    b8f8:	eb07 0b08 	add.w	fp, r7, r8
    b8fc:	681a      	ldr	r2, [r3, #0]
    b8fe:	f8da 3000 	ldr.w	r3, [sl]
    b902:	4422      	add	r2, r4
    b904:	3301      	adds	r3, #1
    b906:	bf08      	it	eq
    b908:	3210      	addeq	r2, #16
    b90a:	d006      	beq.n	b91a <_malloc_r+0x13e>
    b90c:	f502 5280 	add.w	r2, r2, #4096	; 0x1000
    b910:	320f      	adds	r2, #15
    b912:	f422 627f 	bic.w	r2, r2, #4080	; 0xff0
    b916:	f022 020f 	bic.w	r2, r2, #15
    b91a:	4611      	mov	r1, r2
    b91c:	4628      	mov	r0, r5
    b91e:	9200      	str	r2, [sp, #0]
    b920:	f001 fb0a 	bl	cf38 <_sbrk_r>
    b924:	9a00      	ldr	r2, [sp, #0]
    b926:	4681      	mov	r9, r0
    b928:	f1b0 3fff 	cmp.w	r0, #4294967295	; 0xffffffff
    b92c:	f000 81ac 	beq.w	bc88 <_malloc_r+0x4ac>
    b930:	42b7      	cmp	r7, r6
    b932:	bf18      	it	ne
    b934:	4583      	cmpne	fp, r0
    b936:	f200 81a7 	bhi.w	bc88 <_malloc_r+0x4ac>
    b93a:	f645 7374 	movw	r3, #24436	; 0x5f74
    b93e:	f2c0 0303 	movt	r3, #3
    b942:	4583      	cmp	fp, r0
    b944:	6819      	ldr	r1, [r3, #0]
    b946:	4411      	add	r1, r2
    b948:	6019      	str	r1, [r3, #0]
    b94a:	f000 818f 	beq.w	bc6c <_malloc_r+0x490>
    b94e:	f8da 0000 	ldr.w	r0, [sl]
    b952:	3001      	adds	r0, #1
    b954:	f000 8195 	beq.w	bc82 <_malloc_r+0x4a6>
    b958:	eba9 0b0b 	sub.w	fp, r9, fp
    b95c:	4459      	add	r1, fp
    b95e:	6019      	str	r1, [r3, #0]
    b960:	f019 0b07 	ands.w	fp, r9, #7
    b964:	9301      	str	r3, [sp, #4]
    b966:	f000 8199 	beq.w	bc9c <_malloc_r+0x4c0>
    b96a:	f1cb 0108 	rsb	r1, fp, #8
    b96e:	4628      	mov	r0, r5
    b970:	4489      	add	r9, r1
    b972:	f5cb 5180 	rsb	r1, fp, #4096	; 0x1000
    b976:	444a      	add	r2, r9
    b978:	3108      	adds	r1, #8
    b97a:	1a89      	subs	r1, r1, r2
    b97c:	9200      	str	r2, [sp, #0]
    b97e:	f3c1 0a0b 	ubfx	sl, r1, #0, #12
    b982:	4651      	mov	r1, sl
    b984:	f001 fad8 	bl	cf38 <_sbrk_r>
    b988:	1c42      	adds	r2, r0, #1
    b98a:	e9dd 2300 	ldrd	r2, r3, [sp]
    b98e:	f000 81c3 	beq.w	bd18 <_malloc_r+0x53c>
    b992:	eba0 0209 	sub.w	r2, r0, r9
    b996:	4452      	add	r2, sl
    b998:	6818      	ldr	r0, [r3, #0]
    b99a:	f042 0201 	orr.w	r2, r2, #1
    b99e:	f8c6 9008 	str.w	r9, [r6, #8]
    b9a2:	42b7      	cmp	r7, r6
    b9a4:	eb0a 0100 	add.w	r1, sl, r0
    b9a8:	f8c9 2004 	str.w	r2, [r9, #4]
    b9ac:	6019      	str	r1, [r3, #0]
    b9ae:	f000 8199 	beq.w	bce4 <_malloc_r+0x508>
    b9b2:	f1b8 0f0f 	cmp.w	r8, #15
    b9b6:	f240 8197 	bls.w	bce8 <_malloc_r+0x50c>
    b9ba:	687a      	ldr	r2, [r7, #4]
    b9bc:	f1a8 000c 	sub.w	r0, r8, #12
    b9c0:	f020 0007 	bic.w	r0, r0, #7
    b9c4:	f04f 0c05 	mov.w	ip, #5
    b9c8:	f002 0201 	and.w	r2, r2, #1
    b9cc:	280f      	cmp	r0, #15
    b9ce:	ea42 0200 	orr.w	r2, r2, r0
    b9d2:	607a      	str	r2, [r7, #4]
    b9d4:	eb07 0200 	add.w	r2, r7, r0
    b9d8:	e9c2 cc01 	strd	ip, ip, [r2, #4]
    b9dc:	f200 81a4 	bhi.w	bd28 <_malloc_r+0x54c>
    b9e0:	f8d9 2004 	ldr.w	r2, [r9, #4]
    b9e4:	464f      	mov	r7, r9
    b9e6:	f645 739c 	movw	r3, #24476	; 0x5f9c
    b9ea:	f2c0 0303 	movt	r3, #3
    b9ee:	6818      	ldr	r0, [r3, #0]
    b9f0:	4288      	cmp	r0, r1
    b9f2:	d200      	bcs.n	b9f6 <_malloc_r+0x21a>
    b9f4:	6019      	str	r1, [r3, #0]
    b9f6:	f645 73a0 	movw	r3, #24480	; 0x5fa0
    b9fa:	f2c0 0303 	movt	r3, #3
    b9fe:	6818      	ldr	r0, [r3, #0]
    ba00:	4288      	cmp	r0, r1
    ba02:	d200      	bcs.n	ba06 <_malloc_r+0x22a>
    ba04:	6019      	str	r1, [r3, #0]
    ba06:	f022 0203 	bic.w	r2, r2, #3
    ba0a:	1b13      	subs	r3, r2, r4
    ba0c:	4294      	cmp	r4, r2
    ba0e:	bf98      	it	ls
    ba10:	2200      	movls	r2, #0
    ba12:	bf88      	it	hi
    ba14:	2201      	movhi	r2, #1
    ba16:	2b0f      	cmp	r3, #15
    ba18:	bfc8      	it	gt
    ba1a:	2100      	movgt	r1, #0
    ba1c:	bfd8      	it	le
    ba1e:	2101      	movle	r1, #1
    ba20:	430a      	orrs	r2, r1
    ba22:	f000 8084 	beq.w	bb2e <_malloc_r+0x352>
    ba26:	4628      	mov	r0, r5
    ba28:	2400      	movs	r4, #0
    ba2a:	f000 fcf1 	bl	c410 <__malloc_unlock>
    ba2e:	e002      	b.n	ba36 <_malloc_r+0x25a>
    ba30:	2400      	movs	r4, #0
    ba32:	230c      	movs	r3, #12
    ba34:	602b      	str	r3, [r5, #0]
    ba36:	4620      	mov	r0, r4
    ba38:	b003      	add	sp, #12
    ba3a:	e8bd 8ff0 	ldmia.w	sp!, {r4, r5, r6, r7, r8, r9, sl, fp, pc}
    ba3e:	68d3      	ldr	r3, [r2, #12]
    ba40:	429a      	cmp	r2, r3
    ba42:	bf08      	it	eq
    ba44:	3002      	addeq	r0, #2
    ba46:	f47f aee4 	bne.w	b812 <_malloc_r+0x36>
    ba4a:	6933      	ldr	r3, [r6, #16]
    ba4c:	f8df e318 	ldr.w	lr, [pc, #792]	; bd68 <_malloc_r+0x58c>
    ba50:	4573      	cmp	r3, lr
    ba52:	f43f af2f 	beq.w	b8b4 <_malloc_r+0xd8>
    ba56:	6859      	ldr	r1, [r3, #4]
    ba58:	f021 0103 	bic.w	r1, r1, #3
    ba5c:	1b0a      	subs	r2, r1, r4
    ba5e:	2a0f      	cmp	r2, #15
    ba60:	f300 80c7 	bgt.w	bbf2 <_malloc_r+0x416>
    ba64:	2a00      	cmp	r2, #0
    ba66:	e9c6 ee04 	strd	lr, lr, [r6, #16]
    ba6a:	da55      	bge.n	bb18 <_malloc_r+0x33c>
    ba6c:	f5b1 7f00 	cmp.w	r1, #512	; 0x200
    ba70:	d273      	bcs.n	bb5a <_malloc_r+0x37e>
    ba72:	ea4f 0cd1 	mov.w	ip, r1, lsr #3
    ba76:	2201      	movs	r2, #1
    ba78:	f10c 0c01 	add.w	ip, ip, #1
    ba7c:	0949      	lsrs	r1, r1, #5
    ba7e:	408a      	lsls	r2, r1
    ba80:	6871      	ldr	r1, [r6, #4]
    ba82:	f856 703c 	ldr.w	r7, [r6, ip, lsl #3]
    ba86:	430a      	orrs	r2, r1
    ba88:	eb06 01cc 	add.w	r1, r6, ip, lsl #3
    ba8c:	6072      	str	r2, [r6, #4]
    ba8e:	3908      	subs	r1, #8
    ba90:	609f      	str	r7, [r3, #8]
    ba92:	60d9      	str	r1, [r3, #12]
    ba94:	f846 303c 	str.w	r3, [r6, ip, lsl #3]
    ba98:	60fb      	str	r3, [r7, #12]
    ba9a:	1083      	asrs	r3, r0, #2
    ba9c:	2101      	movs	r1, #1
    ba9e:	4099      	lsls	r1, r3
    baa0:	4291      	cmp	r1, r2
    baa2:	f63f af0e 	bhi.w	b8c2 <_malloc_r+0xe6>
    baa6:	4211      	tst	r1, r2
    baa8:	d105      	bne.n	bab6 <_malloc_r+0x2da>
    baaa:	f020 0003 	bic.w	r0, r0, #3
    baae:	0049      	lsls	r1, r1, #1
    bab0:	3004      	adds	r0, #4
    bab2:	4211      	tst	r1, r2
    bab4:	d0fb      	beq.n	baae <_malloc_r+0x2d2>
    bab6:	eb06 09c0 	add.w	r9, r6, r0, lsl #3
    baba:	4680      	mov	r8, r0
    babc:	46cc      	mov	ip, r9
    babe:	f8dc 700c 	ldr.w	r7, [ip, #12]
    bac2:	45bc      	cmp	ip, r7
    bac4:	d105      	bne.n	bad2 <_malloc_r+0x2f6>
    bac6:	e078      	b.n	bbba <_malloc_r+0x3de>
    bac8:	2b00      	cmp	r3, #0
    baca:	da7f      	bge.n	bbcc <_malloc_r+0x3f0>
    bacc:	68ff      	ldr	r7, [r7, #12]
    bace:	45bc      	cmp	ip, r7
    bad0:	d073      	beq.n	bbba <_malloc_r+0x3de>
    bad2:	687a      	ldr	r2, [r7, #4]
    bad4:	f022 0203 	bic.w	r2, r2, #3
    bad8:	1b13      	subs	r3, r2, r4
    bada:	2b0f      	cmp	r3, #15
    badc:	ddf4      	ble.n	bac8 <_malloc_r+0x2ec>
    bade:	4628      	mov	r0, r5
    bae0:	1939      	adds	r1, r7, r4
    bae2:	e9d7 c502 	ldrd	ip, r5, [r7, #8]
    bae6:	f044 0401 	orr.w	r4, r4, #1
    baea:	607c      	str	r4, [r7, #4]
    baec:	f043 0401 	orr.w	r4, r3, #1
    baf0:	f8cc 500c 	str.w	r5, [ip, #12]
    baf4:	f8c5 c008 	str.w	ip, [r5, #8]
    baf8:	e9c6 1104 	strd	r1, r1, [r6, #16]
    bafc:	604c      	str	r4, [r1, #4]
    bafe:	f107 0408 	add.w	r4, r7, #8
    bb02:	e9c1 ee02 	strd	lr, lr, [r1, #8]
    bb06:	50bb      	str	r3, [r7, r2]
    bb08:	f000 fc82 	bl	c410 <__malloc_unlock>
    bb0c:	e793      	b.n	ba36 <_malloc_r+0x25a>
    bb0e:	f44f 7300 	mov.w	r3, #512	; 0x200
    bb12:	2040      	movs	r0, #64	; 0x40
    bb14:	273f      	movs	r7, #63	; 0x3f
    bb16:	e6ae      	b.n	b876 <_malloc_r+0x9a>
    bb18:	4419      	add	r1, r3
    bb1a:	f103 0408 	add.w	r4, r3, #8
    bb1e:	4628      	mov	r0, r5
    bb20:	684b      	ldr	r3, [r1, #4]
    bb22:	f043 0301 	orr.w	r3, r3, #1
    bb26:	604b      	str	r3, [r1, #4]
    bb28:	f000 fc72 	bl	c410 <__malloc_unlock>
    bb2c:	e783      	b.n	ba36 <_malloc_r+0x25a>
    bb2e:	193a      	adds	r2, r7, r4
    bb30:	f043 0301 	orr.w	r3, r3, #1
    bb34:	4628      	mov	r0, r5
    bb36:	f044 0401 	orr.w	r4, r4, #1
    bb3a:	607c      	str	r4, [r7, #4]
    bb3c:	f107 0408 	add.w	r4, r7, #8
    bb40:	60b2      	str	r2, [r6, #8]
    bb42:	6053      	str	r3, [r2, #4]
    bb44:	f000 fc64 	bl	c410 <__malloc_unlock>
    bb48:	4620      	mov	r0, r4
    bb4a:	b003      	add	sp, #12
    bb4c:	e8bd 8ff0 	ldmia.w	sp!, {r4, r5, r6, r7, r8, r9, sl, fp, pc}
    bb50:	e9d3 6102 	ldrd	r6, r1, [r3, #8]
    bb54:	441a      	add	r2, r3
    bb56:	4628      	mov	r0, r5
    bb58:	e662      	b.n	b820 <_malloc_r+0x44>
    bb5a:	0a4a      	lsrs	r2, r1, #9
    bb5c:	f5b1 6f20 	cmp.w	r1, #2560	; 0xa00
    bb60:	d359      	bcc.n	bc16 <_malloc_r+0x43a>
    bb62:	2a14      	cmp	r2, #20
    bb64:	f200 80ac 	bhi.w	bcc0 <_malloc_r+0x4e4>
    bb68:	f102 075c 	add.w	r7, r2, #92	; 0x5c
    bb6c:	325b      	adds	r2, #91	; 0x5b
    bb6e:	00ff      	lsls	r7, r7, #3
    bb70:	eb06 0c07 	add.w	ip, r6, r7
    bb74:	59f7      	ldr	r7, [r6, r7]
    bb76:	f1ac 0c08 	sub.w	ip, ip, #8
    bb7a:	45bc      	cmp	ip, r7
    bb7c:	f000 8087 	beq.w	bc8e <_malloc_r+0x4b2>
    bb80:	687a      	ldr	r2, [r7, #4]
    bb82:	f022 0203 	bic.w	r2, r2, #3
    bb86:	428a      	cmp	r2, r1
    bb88:	d902      	bls.n	bb90 <_malloc_r+0x3b4>
    bb8a:	68bf      	ldr	r7, [r7, #8]
    bb8c:	45bc      	cmp	ip, r7
    bb8e:	d1f7      	bne.n	bb80 <_malloc_r+0x3a4>
    bb90:	f8d7 c00c 	ldr.w	ip, [r7, #12]
    bb94:	6872      	ldr	r2, [r6, #4]
    bb96:	e9c3 7c02 	strd	r7, ip, [r3, #8]
    bb9a:	f8cc 3008 	str.w	r3, [ip, #8]
    bb9e:	60fb      	str	r3, [r7, #12]
    bba0:	e77b      	b.n	ba9a <_malloc_r+0x2be>
    bba2:	2b14      	cmp	r3, #20
    bba4:	d93d      	bls.n	bc22 <_malloc_r+0x446>
    bba6:	2b54      	cmp	r3, #84	; 0x54
    bba8:	f200 8092 	bhi.w	bcd0 <_malloc_r+0x4f4>
    bbac:	0b23      	lsrs	r3, r4, #12
    bbae:	f103 006f 	add.w	r0, r3, #111	; 0x6f
    bbb2:	f103 076e 	add.w	r7, r3, #110	; 0x6e
    bbb6:	00c3      	lsls	r3, r0, #3
    bbb8:	e65d      	b.n	b876 <_malloc_r+0x9a>
    bbba:	f108 0801 	add.w	r8, r8, #1
    bbbe:	f10c 0c08 	add.w	ip, ip, #8
    bbc2:	f018 0f03 	tst.w	r8, #3
    bbc6:	f47f af7a 	bne.w	babe <_malloc_r+0x2e2>
    bbca:	e036      	b.n	bc3a <_malloc_r+0x45e>
    bbcc:	463c      	mov	r4, r7
    bbce:	443a      	add	r2, r7
    bbd0:	68f9      	ldr	r1, [r7, #12]
    bbd2:	4628      	mov	r0, r5
    bbd4:	f854 5f08 	ldr.w	r5, [r4, #8]!
    bbd8:	6853      	ldr	r3, [r2, #4]
    bbda:	f043 0301 	orr.w	r3, r3, #1
    bbde:	6053      	str	r3, [r2, #4]
    bbe0:	60e9      	str	r1, [r5, #12]
    bbe2:	608d      	str	r5, [r1, #8]
    bbe4:	f000 fc14 	bl	c410 <__malloc_unlock>
    bbe8:	e725      	b.n	ba36 <_malloc_r+0x25a>
    bbea:	08e0      	lsrs	r0, r4, #3
    bbec:	f104 0208 	add.w	r2, r4, #8
    bbf0:	e604      	b.n	b7fc <_malloc_r+0x20>
    bbf2:	4628      	mov	r0, r5
    bbf4:	191d      	adds	r5, r3, r4
    bbf6:	f044 0401 	orr.w	r4, r4, #1
    bbfa:	605c      	str	r4, [r3, #4]
    bbfc:	e9c6 5504 	strd	r5, r5, [r6, #16]
    bc00:	f042 0401 	orr.w	r4, r2, #1
    bc04:	e9c5 ee02 	strd	lr, lr, [r5, #8]
    bc08:	606c      	str	r4, [r5, #4]
    bc0a:	f103 0408 	add.w	r4, r3, #8
    bc0e:	505a      	str	r2, [r3, r1]
    bc10:	f000 fbfe 	bl	c410 <__malloc_unlock>
    bc14:	e70f      	b.n	ba36 <_malloc_r+0x25a>
    bc16:	098a      	lsrs	r2, r1, #6
    bc18:	f102 0739 	add.w	r7, r2, #57	; 0x39
    bc1c:	3238      	adds	r2, #56	; 0x38
    bc1e:	00ff      	lsls	r7, r7, #3
    bc20:	e7a6      	b.n	bb70 <_malloc_r+0x394>
    bc22:	f103 005c 	add.w	r0, r3, #92	; 0x5c
    bc26:	f103 075b 	add.w	r7, r3, #91	; 0x5b
    bc2a:	00c3      	lsls	r3, r0, #3
    bc2c:	e623      	b.n	b876 <_malloc_r+0x9a>
    bc2e:	f859 3908 	ldr.w	r3, [r9], #-8
    bc32:	3801      	subs	r0, #1
    bc34:	454b      	cmp	r3, r9
    bc36:	f040 8095 	bne.w	bd64 <_malloc_r+0x588>
    bc3a:	0787      	lsls	r7, r0, #30
    bc3c:	d1f7      	bne.n	bc2e <_malloc_r+0x452>
    bc3e:	6873      	ldr	r3, [r6, #4]
    bc40:	ea23 0301 	bic.w	r3, r3, r1
    bc44:	6073      	str	r3, [r6, #4]
    bc46:	0049      	lsls	r1, r1, #1
    bc48:	f04f 0201 	mov.w	r2, #1
    bc4c:	bf08      	it	eq
    bc4e:	2200      	moveq	r2, #0
    bc50:	4299      	cmp	r1, r3
    bc52:	f002 0201 	and.w	r2, r2, #1
    bc56:	bf88      	it	hi
    bc58:	2200      	movhi	r2, #0
    bc5a:	b91a      	cbnz	r2, bc64 <_malloc_r+0x488>
    bc5c:	e631      	b.n	b8c2 <_malloc_r+0xe6>
    bc5e:	0049      	lsls	r1, r1, #1
    bc60:	f108 0804 	add.w	r8, r8, #4
    bc64:	4219      	tst	r1, r3
    bc66:	d0fa      	beq.n	bc5e <_malloc_r+0x482>
    bc68:	4640      	mov	r0, r8
    bc6a:	e724      	b.n	bab6 <_malloc_r+0x2da>
    bc6c:	f3cb 000b 	ubfx	r0, fp, #0, #12
    bc70:	2800      	cmp	r0, #0
    bc72:	f47f ae6c 	bne.w	b94e <_malloc_r+0x172>
    bc76:	68b7      	ldr	r7, [r6, #8]
    bc78:	4442      	add	r2, r8
    bc7a:	f042 0201 	orr.w	r2, r2, #1
    bc7e:	607a      	str	r2, [r7, #4]
    bc80:	e6b1      	b.n	b9e6 <_malloc_r+0x20a>
    bc82:	f8ca 9000 	str.w	r9, [sl]
    bc86:	e66b      	b.n	b960 <_malloc_r+0x184>
    bc88:	68b7      	ldr	r7, [r6, #8]
    bc8a:	687a      	ldr	r2, [r7, #4]
    bc8c:	e6bb      	b.n	ba06 <_malloc_r+0x22a>
    bc8e:	1092      	asrs	r2, r2, #2
    bc90:	2101      	movs	r1, #1
    bc92:	4091      	lsls	r1, r2
    bc94:	6872      	ldr	r2, [r6, #4]
    bc96:	430a      	orrs	r2, r1
    bc98:	6072      	str	r2, [r6, #4]
    bc9a:	e77c      	b.n	bb96 <_malloc_r+0x3ba>
    bc9c:	eb09 0102 	add.w	r1, r9, r2
    bca0:	4628      	mov	r0, r5
    bca2:	4249      	negs	r1, r1
    bca4:	9200      	str	r2, [sp, #0]
    bca6:	f3c1 0a0b 	ubfx	sl, r1, #0, #12
    bcaa:	4651      	mov	r1, sl
    bcac:	f001 f944 	bl	cf38 <_sbrk_r>
    bcb0:	1c43      	adds	r3, r0, #1
    bcb2:	bf08      	it	eq
    bcb4:	46da      	moveq	sl, fp
    bcb6:	e9dd 2300 	ldrd	r2, r3, [sp]
    bcba:	f47f ae6a 	bne.w	b992 <_malloc_r+0x1b6>
    bcbe:	e66b      	b.n	b998 <_malloc_r+0x1bc>
    bcc0:	2a54      	cmp	r2, #84	; 0x54
    bcc2:	d815      	bhi.n	bcf0 <_malloc_r+0x514>
    bcc4:	0b0a      	lsrs	r2, r1, #12
    bcc6:	f102 076f 	add.w	r7, r2, #111	; 0x6f
    bcca:	326e      	adds	r2, #110	; 0x6e
    bccc:	00ff      	lsls	r7, r7, #3
    bcce:	e74f      	b.n	bb70 <_malloc_r+0x394>
    bcd0:	f5b3 7faa 	cmp.w	r3, #340	; 0x154
    bcd4:	d815      	bhi.n	bd02 <_malloc_r+0x526>
    bcd6:	0be3      	lsrs	r3, r4, #15
    bcd8:	f103 0078 	add.w	r0, r3, #120	; 0x78
    bcdc:	f103 0777 	add.w	r7, r3, #119	; 0x77
    bce0:	00c3      	lsls	r3, r0, #3
    bce2:	e5c8      	b.n	b876 <_malloc_r+0x9a>
    bce4:	464f      	mov	r7, r9
    bce6:	e67e      	b.n	b9e6 <_malloc_r+0x20a>
    bce8:	2301      	movs	r3, #1
    bcea:	f8c9 3004 	str.w	r3, [r9, #4]
    bcee:	e69a      	b.n	ba26 <_malloc_r+0x24a>
    bcf0:	f5b2 7faa 	cmp.w	r2, #340	; 0x154
    bcf4:	d823      	bhi.n	bd3e <_malloc_r+0x562>
    bcf6:	0bca      	lsrs	r2, r1, #15
    bcf8:	f102 0778 	add.w	r7, r2, #120	; 0x78
    bcfc:	3277      	adds	r2, #119	; 0x77
    bcfe:	00ff      	lsls	r7, r7, #3
    bd00:	e736      	b.n	bb70 <_malloc_r+0x394>
    bd02:	f240 5254 	movw	r2, #1364	; 0x554
    bd06:	4293      	cmp	r3, r2
    bd08:	d823      	bhi.n	bd52 <_malloc_r+0x576>
    bd0a:	0ca3      	lsrs	r3, r4, #18
    bd0c:	f103 007d 	add.w	r0, r3, #125	; 0x7d
    bd10:	f103 077c 	add.w	r7, r3, #124	; 0x7c
    bd14:	00c3      	lsls	r3, r0, #3
    bd16:	e5ae      	b.n	b876 <_malloc_r+0x9a>
    bd18:	f1ab 0b08 	sub.w	fp, fp, #8
    bd1c:	f04f 0a00 	mov.w	sl, #0
    bd20:	445a      	add	r2, fp
    bd22:	eba2 0209 	sub.w	r2, r2, r9
    bd26:	e637      	b.n	b998 <_malloc_r+0x1bc>
    bd28:	f107 0108 	add.w	r1, r7, #8
    bd2c:	4628      	mov	r0, r5
    bd2e:	9300      	str	r3, [sp, #0]
    bd30:	f7ff fb48 	bl	b3c4 <_free_r>
    bd34:	68b7      	ldr	r7, [r6, #8]
    bd36:	9b00      	ldr	r3, [sp, #0]
    bd38:	687a      	ldr	r2, [r7, #4]
    bd3a:	6819      	ldr	r1, [r3, #0]
    bd3c:	e653      	b.n	b9e6 <_malloc_r+0x20a>
    bd3e:	f240 5754 	movw	r7, #1364	; 0x554
    bd42:	42ba      	cmp	r2, r7
    bd44:	d80a      	bhi.n	bd5c <_malloc_r+0x580>
    bd46:	0c8a      	lsrs	r2, r1, #18
    bd48:	f102 077d 	add.w	r7, r2, #125	; 0x7d
    bd4c:	327c      	adds	r2, #124	; 0x7c
    bd4e:	00ff      	lsls	r7, r7, #3
    bd50:	e70e      	b.n	bb70 <_malloc_r+0x394>
    bd52:	f44f 737e 	mov.w	r3, #1016	; 0x3f8
    bd56:	207f      	movs	r0, #127	; 0x7f
    bd58:	277e      	movs	r7, #126	; 0x7e
    bd5a:	e58c      	b.n	b876 <_malloc_r+0x9a>
    bd5c:	f44f 777e 	mov.w	r7, #1016	; 0x3f8
    bd60:	227e      	movs	r2, #126	; 0x7e
    bd62:	e705      	b.n	bb70 <_malloc_r+0x394>
    bd64:	6873      	ldr	r3, [r6, #4]
    bd66:	e76e      	b.n	bc46 <_malloc_r+0x46a>
    bd68:	00035920 	andeq	r5, r3, r0, lsr #18
    bd6c:	00000000 	andeq	r0, r0, r0

0000bd70 <memchr>:
memchr():
    bd70:	2a07      	cmp	r2, #7
    bd72:	d80a      	bhi.n	bd8a <memchr+0x1a>
    bd74:	f001 01ff 	and.w	r1, r1, #255	; 0xff
    bd78:	3a01      	subs	r2, #1
    bd7a:	d36a      	bcc.n	be52 <memchr+0xe2>
    bd7c:	f810 3b01 	ldrb.w	r3, [r0], #1
    bd80:	428b      	cmp	r3, r1
    bd82:	d1f9      	bne.n	bd78 <memchr+0x8>
    bd84:	f1a0 0001 	sub.w	r0, r0, #1
    bd88:	4770      	bx	lr
    bd8a:	eee0 1b10 	vdup.8	q0, r1
    bd8e:	f240 2301 	movw	r3, #513	; 0x201
    bd92:	f6c0 0304 	movt	r3, #2052	; 0x804
    bd96:	ea4f 1c03 	mov.w	ip, r3, lsl #4
    bd9a:	ec4c 3b16 	vmov	d6, r3, ip
    bd9e:	ec4c 3b17 	vmov	d7, r3, ip
    bda2:	f020 011f 	bic.w	r1, r0, #31
    bda6:	f010 0c1f 	ands.w	ip, r0, #31
    bdaa:	d01c      	beq.n	bde6 <memchr+0x76>
    bdac:	f921 223d 	vld1.8	{d2-d5}, [r1 :256]!
    bdb0:	f1ac 0320 	sub.w	r3, ip, #32
    bdb4:	18d2      	adds	r2, r2, r3
    bdb6:	ff02 2850 	vceq.i8	q1, q1, q0
    bdba:	ff04 4850 	vceq.i8	q2, q2, q0
    bdbe:	ef02 2156 	vand	q1, q1, q3
    bdc2:	ef04 4156 	vand	q2, q2, q3
    bdc6:	ef02 2b13 	vpadd.i8	d2, d2, d3
    bdca:	ef04 4b15 	vpadd.i8	d4, d4, d5
    bdce:	ef02 2b14 	vpadd.i8	d2, d2, d4
    bdd2:	ef02 2b12 	vpadd.i8	d2, d2, d2
    bdd6:	ee12 0b10 	vmov.32	r0, d2[0]
    bdda:	fa20 f00c 	lsr.w	r0, r0, ip
    bdde:	fa00 f00c 	lsl.w	r0, r0, ip
    bde2:	d927      	bls.n	be34 <memchr+0xc4>
    bde4:	bb68      	cbnz	r0, be42 <memchr+0xd2>
    bde6:	ed2d 8b04 	vpush	{d8-d9}
    bdea:	bf00      	nop
    bdec:	f3af 8000 	nop.w
    bdf0:	f921 223d 	vld1.8	{d2-d5}, [r1 :256]!
    bdf4:	3a20      	subs	r2, #32
    bdf6:	ff02 2850 	vceq.i8	q1, q1, q0
    bdfa:	ff04 4850 	vceq.i8	q2, q2, q0
    bdfe:	d907      	bls.n	be10 <memchr+0xa0>
    be00:	ef22 8154 	vorr	q4, q1, q2
    be04:	ef28 8119 	vorr	d8, d8, d9
    be08:	ec53 0b18 	vmov	r0, r3, d8
    be0c:	4318      	orrs	r0, r3
    be0e:	d0ef      	beq.n	bdf0 <memchr+0x80>
    be10:	ecbd 8b04 	vpop	{d8-d9}
    be14:	ef02 2156 	vand	q1, q1, q3
    be18:	ef04 4156 	vand	q2, q2, q3
    be1c:	ef02 2b13 	vpadd.i8	d2, d2, d3
    be20:	ef04 4b15 	vpadd.i8	d4, d4, d5
    be24:	ef02 2b14 	vpadd.i8	d2, d2, d4
    be28:	ef02 2b12 	vpadd.i8	d2, d2, d2
    be2c:	ee12 0b10 	vmov.32	r0, d2[0]
    be30:	b178      	cbz	r0, be52 <memchr+0xe2>
    be32:	d806      	bhi.n	be42 <memchr+0xd2>
    be34:	f1c2 0200 	rsb	r2, r2, #0
    be38:	fa00 f002 	lsl.w	r0, r0, r2
    be3c:	40d0      	lsrs	r0, r2
    be3e:	bf08      	it	eq
    be40:	2100      	moveq	r1, #0
    be42:	fa90 f0a0 	rbit	r0, r0
    be46:	f1a1 0120 	sub.w	r1, r1, #32
    be4a:	fab0 f080 	clz	r0, r0
    be4e:	4408      	add	r0, r1
    be50:	4770      	bx	lr
    be52:	f04f 0000 	mov.w	r0, #0
    be56:	4770      	bx	lr
	...

0000be80 <memcpy>:
memcpy():
    be80:	e1a0c000 	mov	ip, r0
    be84:	e3520040 	cmp	r2, #64	; 0x40
    be88:	aa000019 	bge	bef4 <memcpy+0x74>
    be8c:	e2023038 	and	r3, r2, #56	; 0x38
    be90:	e2633034 	rsb	r3, r3, #52	; 0x34
    be94:	e08ff003 	add	pc, pc, r3
    be98:	f421070d 	vld1.8	{d0}, [r1]!
    be9c:	f40c070d 	vst1.8	{d0}, [ip]!
    bea0:	f421070d 	vld1.8	{d0}, [r1]!
    bea4:	f40c070d 	vst1.8	{d0}, [ip]!
    bea8:	f421070d 	vld1.8	{d0}, [r1]!
    beac:	f40c070d 	vst1.8	{d0}, [ip]!
    beb0:	f421070d 	vld1.8	{d0}, [r1]!
    beb4:	f40c070d 	vst1.8	{d0}, [ip]!
    beb8:	f421070d 	vld1.8	{d0}, [r1]!
    bebc:	f40c070d 	vst1.8	{d0}, [ip]!
    bec0:	f421070d 	vld1.8	{d0}, [r1]!
    bec4:	f40c070d 	vst1.8	{d0}, [ip]!
    bec8:	f421070d 	vld1.8	{d0}, [r1]!
    becc:	f40c070d 	vst1.8	{d0}, [ip]!
    bed0:	e3120004 	tst	r2, #4
    bed4:	14913004 	ldrne	r3, [r1], #4
    bed8:	148c3004 	strne	r3, [ip], #4
    bedc:	e1b02f82 	lsls	r2, r2, #31
    bee0:	20d130b2 	ldrhcs	r3, [r1], #2
    bee4:	15d11000 	ldrbne	r1, [r1]
    bee8:	20cc30b2 	strhcs	r3, [ip], #2
    beec:	15cc1000 	strbne	r1, [ip]
    bef0:	e12fff1e 	bx	lr
    bef4:	e52da004 	push	{sl}		; (str sl, [sp, #-4]!)
    bef8:	e201a007 	and	sl, r1, #7
    befc:	e20c3007 	and	r3, ip, #7
    bf00:	e153000a 	cmp	r3, sl
    bf04:	1a0000f1 	bne	c2d0 <memcpy+0x450>
    bf08:	eeb00a40 	vmov.f32	s0, s0
    bf0c:	e1b0ae8c 	lsls	sl, ip, #29
    bf10:	0a000008 	beq	bf38 <memcpy+0xb8>
    bf14:	e27aa000 	rsbs	sl, sl, #0
    bf18:	e0422eaa 	sub	r2, r2, sl, lsr #29
    bf1c:	44913004 	ldrmi	r3, [r1], #4
    bf20:	448c3004 	strmi	r3, [ip], #4
    bf24:	e1b0a10a 	lsls	sl, sl, #2
    bf28:	20d130b2 	ldrhcs	r3, [r1], #2
    bf2c:	14d1a001 	ldrbne	sl, [r1], #1
    bf30:	20cc30b2 	strhcs	r3, [ip], #2
    bf34:	14cca001 	strbne	sl, [ip], #1
    bf38:	e252a040 	subs	sl, r2, #64	; 0x40
    bf3c:	ba000017 	blt	bfa0 <memcpy+0x120>
    bf40:	e35a0c02 	cmp	sl, #512	; 0x200
    bf44:	aa000032 	bge	c014 <memcpy+0x194>
    bf48:	ed910b00 	vldr	d0, [r1]
    bf4c:	e25aa040 	subs	sl, sl, #64	; 0x40
    bf50:	ed911b02 	vldr	d1, [r1, #8]
    bf54:	ed8c0b00 	vstr	d0, [ip]
    bf58:	ed910b04 	vldr	d0, [r1, #16]
    bf5c:	ed8c1b02 	vstr	d1, [ip, #8]
    bf60:	ed911b06 	vldr	d1, [r1, #24]
    bf64:	ed8c0b04 	vstr	d0, [ip, #16]
    bf68:	ed910b08 	vldr	d0, [r1, #32]
    bf6c:	ed8c1b06 	vstr	d1, [ip, #24]
    bf70:	ed911b0a 	vldr	d1, [r1, #40]	; 0x28
    bf74:	ed8c0b08 	vstr	d0, [ip, #32]
    bf78:	ed910b0c 	vldr	d0, [r1, #48]	; 0x30
    bf7c:	ed8c1b0a 	vstr	d1, [ip, #40]	; 0x28
    bf80:	ed911b0e 	vldr	d1, [r1, #56]	; 0x38
    bf84:	ed8c0b0c 	vstr	d0, [ip, #48]	; 0x30
    bf88:	e2811040 	add	r1, r1, #64	; 0x40
    bf8c:	ed8c1b0e 	vstr	d1, [ip, #56]	; 0x38
    bf90:	e28cc040 	add	ip, ip, #64	; 0x40
    bf94:	aaffffeb 	bge	bf48 <memcpy+0xc8>
    bf98:	e31a003f 	tst	sl, #63	; 0x3f
    bf9c:	0a00001a 	beq	c00c <memcpy+0x18c>
    bfa0:	e20a3038 	and	r3, sl, #56	; 0x38
    bfa4:	e08cc003 	add	ip, ip, r3
    bfa8:	e0811003 	add	r1, r1, r3
    bfac:	e2633034 	rsb	r3, r3, #52	; 0x34
    bfb0:	e08ff003 	add	pc, pc, r3
    bfb4:	ed110b0e 	vldr	d0, [r1, #-56]	; 0xffffffc8
    bfb8:	ed0c0b0e 	vstr	d0, [ip, #-56]	; 0xffffffc8
    bfbc:	ed110b0c 	vldr	d0, [r1, #-48]	; 0xffffffd0
    bfc0:	ed0c0b0c 	vstr	d0, [ip, #-48]	; 0xffffffd0
    bfc4:	ed110b0a 	vldr	d0, [r1, #-40]	; 0xffffffd8
    bfc8:	ed0c0b0a 	vstr	d0, [ip, #-40]	; 0xffffffd8
    bfcc:	ed110b08 	vldr	d0, [r1, #-32]	; 0xffffffe0
    bfd0:	ed0c0b08 	vstr	d0, [ip, #-32]	; 0xffffffe0
    bfd4:	ed110b06 	vldr	d0, [r1, #-24]	; 0xffffffe8
    bfd8:	ed0c0b06 	vstr	d0, [ip, #-24]	; 0xffffffe8
    bfdc:	ed110b04 	vldr	d0, [r1, #-16]
    bfe0:	ed0c0b04 	vstr	d0, [ip, #-16]
    bfe4:	ed110b02 	vldr	d0, [r1, #-8]
    bfe8:	ed0c0b02 	vstr	d0, [ip, #-8]
    bfec:	e31a0004 	tst	sl, #4
    bff0:	14913004 	ldrne	r3, [r1], #4
    bff4:	148c3004 	strne	r3, [ip], #4
    bff8:	e1b0af8a 	lsls	sl, sl, #31
    bffc:	20d130b2 	ldrhcs	r3, [r1], #2
    c000:	15d1a000 	ldrbne	sl, [r1]
    c004:	20cc30b2 	strhcs	r3, [ip], #2
    c008:	15cca000 	strbne	sl, [ip]
    c00c:	e49da004 	pop	{sl}		; (ldr sl, [sp], #4)
    c010:	e12fff1e 	bx	lr
    c014:	ed913b00 	vldr	d3, [r1]
    c018:	ed914b10 	vldr	d4, [r1, #64]	; 0x40
    c01c:	ed915b20 	vldr	d5, [r1, #128]	; 0x80
    c020:	ed916b30 	vldr	d6, [r1, #192]	; 0xc0
    c024:	ed917b40 	vldr	d7, [r1, #256]	; 0x100
    c028:	ed910b02 	vldr	d0, [r1, #8]
    c02c:	ed911b04 	vldr	d1, [r1, #16]
    c030:	ed912b06 	vldr	d2, [r1, #24]
    c034:	e2811020 	add	r1, r1, #32
    c038:	e25aad0a 	subs	sl, sl, #640	; 0x280
    c03c:	ba000055 	blt	c198 <memcpy+0x318>
    c040:	ed8c3b00 	vstr	d3, [ip]
    c044:	ed913b00 	vldr	d3, [r1]
    c048:	ed8c0b02 	vstr	d0, [ip, #8]
    c04c:	ed910b02 	vldr	d0, [r1, #8]
    c050:	ed8c1b04 	vstr	d1, [ip, #16]
    c054:	ed911b04 	vldr	d1, [r1, #16]
    c058:	ed8c2b06 	vstr	d2, [ip, #24]
    c05c:	ed912b06 	vldr	d2, [r1, #24]
    c060:	ed8c3b08 	vstr	d3, [ip, #32]
    c064:	ed913b48 	vldr	d3, [r1, #288]	; 0x120
    c068:	ed8c0b0a 	vstr	d0, [ip, #40]	; 0x28
    c06c:	ed910b0a 	vldr	d0, [r1, #40]	; 0x28
    c070:	ed8c1b0c 	vstr	d1, [ip, #48]	; 0x30
    c074:	ed911b0c 	vldr	d1, [r1, #48]	; 0x30
    c078:	ed8c2b0e 	vstr	d2, [ip, #56]	; 0x38
    c07c:	ed912b0e 	vldr	d2, [r1, #56]	; 0x38
    c080:	ed8c4b10 	vstr	d4, [ip, #64]	; 0x40
    c084:	ed914b10 	vldr	d4, [r1, #64]	; 0x40
    c088:	ed8c0b12 	vstr	d0, [ip, #72]	; 0x48
    c08c:	ed910b12 	vldr	d0, [r1, #72]	; 0x48
    c090:	ed8c1b14 	vstr	d1, [ip, #80]	; 0x50
    c094:	ed911b14 	vldr	d1, [r1, #80]	; 0x50
    c098:	ed8c2b16 	vstr	d2, [ip, #88]	; 0x58
    c09c:	ed912b16 	vldr	d2, [r1, #88]	; 0x58
    c0a0:	ed8c4b18 	vstr	d4, [ip, #96]	; 0x60
    c0a4:	ed914b58 	vldr	d4, [r1, #352]	; 0x160
    c0a8:	ed8c0b1a 	vstr	d0, [ip, #104]	; 0x68
    c0ac:	ed910b1a 	vldr	d0, [r1, #104]	; 0x68
    c0b0:	ed8c1b1c 	vstr	d1, [ip, #112]	; 0x70
    c0b4:	ed911b1c 	vldr	d1, [r1, #112]	; 0x70
    c0b8:	ed8c2b1e 	vstr	d2, [ip, #120]	; 0x78
    c0bc:	ed912b1e 	vldr	d2, [r1, #120]	; 0x78
    c0c0:	ed8c5b20 	vstr	d5, [ip, #128]	; 0x80
    c0c4:	ed915b20 	vldr	d5, [r1, #128]	; 0x80
    c0c8:	ed8c0b22 	vstr	d0, [ip, #136]	; 0x88
    c0cc:	ed910b22 	vldr	d0, [r1, #136]	; 0x88
    c0d0:	ed8c1b24 	vstr	d1, [ip, #144]	; 0x90
    c0d4:	ed911b24 	vldr	d1, [r1, #144]	; 0x90
    c0d8:	ed8c2b26 	vstr	d2, [ip, #152]	; 0x98
    c0dc:	ed912b26 	vldr	d2, [r1, #152]	; 0x98
    c0e0:	ed8c5b28 	vstr	d5, [ip, #160]	; 0xa0
    c0e4:	ed915b68 	vldr	d5, [r1, #416]	; 0x1a0
    c0e8:	ed8c0b2a 	vstr	d0, [ip, #168]	; 0xa8
    c0ec:	ed910b2a 	vldr	d0, [r1, #168]	; 0xa8
    c0f0:	ed8c1b2c 	vstr	d1, [ip, #176]	; 0xb0
    c0f4:	ed911b2c 	vldr	d1, [r1, #176]	; 0xb0
    c0f8:	ed8c2b2e 	vstr	d2, [ip, #184]	; 0xb8
    c0fc:	ed912b2e 	vldr	d2, [r1, #184]	; 0xb8
    c100:	e28cc0c0 	add	ip, ip, #192	; 0xc0
    c104:	e28110c0 	add	r1, r1, #192	; 0xc0
    c108:	ed8c6b00 	vstr	d6, [ip]
    c10c:	ed916b00 	vldr	d6, [r1]
    c110:	ed8c0b02 	vstr	d0, [ip, #8]
    c114:	ed910b02 	vldr	d0, [r1, #8]
    c118:	ed8c1b04 	vstr	d1, [ip, #16]
    c11c:	ed911b04 	vldr	d1, [r1, #16]
    c120:	ed8c2b06 	vstr	d2, [ip, #24]
    c124:	ed912b06 	vldr	d2, [r1, #24]
    c128:	ed8c6b08 	vstr	d6, [ip, #32]
    c12c:	ed916b48 	vldr	d6, [r1, #288]	; 0x120
    c130:	ed8c0b0a 	vstr	d0, [ip, #40]	; 0x28
    c134:	ed910b0a 	vldr	d0, [r1, #40]	; 0x28
    c138:	ed8c1b0c 	vstr	d1, [ip, #48]	; 0x30
    c13c:	ed911b0c 	vldr	d1, [r1, #48]	; 0x30
    c140:	ed8c2b0e 	vstr	d2, [ip, #56]	; 0x38
    c144:	ed912b0e 	vldr	d2, [r1, #56]	; 0x38
    c148:	ed8c7b10 	vstr	d7, [ip, #64]	; 0x40
    c14c:	ed917b10 	vldr	d7, [r1, #64]	; 0x40
    c150:	ed8c0b12 	vstr	d0, [ip, #72]	; 0x48
    c154:	ed910b12 	vldr	d0, [r1, #72]	; 0x48
    c158:	ed8c1b14 	vstr	d1, [ip, #80]	; 0x50
    c15c:	ed911b14 	vldr	d1, [r1, #80]	; 0x50
    c160:	ed8c2b16 	vstr	d2, [ip, #88]	; 0x58
    c164:	ed912b16 	vldr	d2, [r1, #88]	; 0x58
    c168:	ed8c7b18 	vstr	d7, [ip, #96]	; 0x60
    c16c:	ed917b58 	vldr	d7, [r1, #352]	; 0x160
    c170:	ed8c0b1a 	vstr	d0, [ip, #104]	; 0x68
    c174:	ed910b1a 	vldr	d0, [r1, #104]	; 0x68
    c178:	ed8c1b1c 	vstr	d1, [ip, #112]	; 0x70
    c17c:	ed911b1c 	vldr	d1, [r1, #112]	; 0x70
    c180:	ed8c2b1e 	vstr	d2, [ip, #120]	; 0x78
    c184:	ed912b1e 	vldr	d2, [r1, #120]	; 0x78
    c188:	e28cc080 	add	ip, ip, #128	; 0x80
    c18c:	e2811080 	add	r1, r1, #128	; 0x80
    c190:	e25aad05 	subs	sl, sl, #320	; 0x140
    c194:	aaffffa9 	bge	c040 <memcpy+0x1c0>
    c198:	ed8c3b00 	vstr	d3, [ip]
    c19c:	ed913b00 	vldr	d3, [r1]
    c1a0:	ed8c0b02 	vstr	d0, [ip, #8]
    c1a4:	ed910b02 	vldr	d0, [r1, #8]
    c1a8:	ed8c1b04 	vstr	d1, [ip, #16]
    c1ac:	ed911b04 	vldr	d1, [r1, #16]
    c1b0:	ed8c2b06 	vstr	d2, [ip, #24]
    c1b4:	ed912b06 	vldr	d2, [r1, #24]
    c1b8:	ed8c3b08 	vstr	d3, [ip, #32]
    c1bc:	ed8c0b0a 	vstr	d0, [ip, #40]	; 0x28
    c1c0:	ed910b0a 	vldr	d0, [r1, #40]	; 0x28
    c1c4:	ed8c1b0c 	vstr	d1, [ip, #48]	; 0x30
    c1c8:	ed911b0c 	vldr	d1, [r1, #48]	; 0x30
    c1cc:	ed8c2b0e 	vstr	d2, [ip, #56]	; 0x38
    c1d0:	ed912b0e 	vldr	d2, [r1, #56]	; 0x38
    c1d4:	ed8c4b10 	vstr	d4, [ip, #64]	; 0x40
    c1d8:	ed914b10 	vldr	d4, [r1, #64]	; 0x40
    c1dc:	ed8c0b12 	vstr	d0, [ip, #72]	; 0x48
    c1e0:	ed910b12 	vldr	d0, [r1, #72]	; 0x48
    c1e4:	ed8c1b14 	vstr	d1, [ip, #80]	; 0x50
    c1e8:	ed911b14 	vldr	d1, [r1, #80]	; 0x50
    c1ec:	ed8c2b16 	vstr	d2, [ip, #88]	; 0x58
    c1f0:	ed912b16 	vldr	d2, [r1, #88]	; 0x58
    c1f4:	ed8c4b18 	vstr	d4, [ip, #96]	; 0x60
    c1f8:	ed8c0b1a 	vstr	d0, [ip, #104]	; 0x68
    c1fc:	ed910b1a 	vldr	d0, [r1, #104]	; 0x68
    c200:	ed8c1b1c 	vstr	d1, [ip, #112]	; 0x70
    c204:	ed911b1c 	vldr	d1, [r1, #112]	; 0x70
    c208:	ed8c2b1e 	vstr	d2, [ip, #120]	; 0x78
    c20c:	ed912b1e 	vldr	d2, [r1, #120]	; 0x78
    c210:	ed8c5b20 	vstr	d5, [ip, #128]	; 0x80
    c214:	ed915b20 	vldr	d5, [r1, #128]	; 0x80
    c218:	ed8c0b22 	vstr	d0, [ip, #136]	; 0x88
    c21c:	ed910b22 	vldr	d0, [r1, #136]	; 0x88
    c220:	ed8c1b24 	vstr	d1, [ip, #144]	; 0x90
    c224:	ed911b24 	vldr	d1, [r1, #144]	; 0x90
    c228:	ed8c2b26 	vstr	d2, [ip, #152]	; 0x98
    c22c:	ed912b26 	vldr	d2, [r1, #152]	; 0x98
    c230:	ed8c5b28 	vstr	d5, [ip, #160]	; 0xa0
    c234:	ed8c0b2a 	vstr	d0, [ip, #168]	; 0xa8
    c238:	ed910b2a 	vldr	d0, [r1, #168]	; 0xa8
    c23c:	ed8c1b2c 	vstr	d1, [ip, #176]	; 0xb0
    c240:	ed911b2c 	vldr	d1, [r1, #176]	; 0xb0
    c244:	ed8c2b2e 	vstr	d2, [ip, #184]	; 0xb8
    c248:	ed912b2e 	vldr	d2, [r1, #184]	; 0xb8
    c24c:	e28110c0 	add	r1, r1, #192	; 0xc0
    c250:	e28cc0c0 	add	ip, ip, #192	; 0xc0
    c254:	ed8c6b00 	vstr	d6, [ip]
    c258:	ed916b00 	vldr	d6, [r1]
    c25c:	ed8c0b02 	vstr	d0, [ip, #8]
    c260:	ed910b02 	vldr	d0, [r1, #8]
    c264:	ed8c1b04 	vstr	d1, [ip, #16]
    c268:	ed911b04 	vldr	d1, [r1, #16]
    c26c:	ed8c2b06 	vstr	d2, [ip, #24]
    c270:	ed912b06 	vldr	d2, [r1, #24]
    c274:	ed8c6b08 	vstr	d6, [ip, #32]
    c278:	ed8c0b0a 	vstr	d0, [ip, #40]	; 0x28
    c27c:	ed910b0a 	vldr	d0, [r1, #40]	; 0x28
    c280:	ed8c1b0c 	vstr	d1, [ip, #48]	; 0x30
    c284:	ed911b0c 	vldr	d1, [r1, #48]	; 0x30
    c288:	ed8c2b0e 	vstr	d2, [ip, #56]	; 0x38
    c28c:	ed912b0e 	vldr	d2, [r1, #56]	; 0x38
    c290:	ed8c7b10 	vstr	d7, [ip, #64]	; 0x40
    c294:	ed917b10 	vldr	d7, [r1, #64]	; 0x40
    c298:	ed8c0b12 	vstr	d0, [ip, #72]	; 0x48
    c29c:	ed910b12 	vldr	d0, [r1, #72]	; 0x48
    c2a0:	ed8c1b14 	vstr	d1, [ip, #80]	; 0x50
    c2a4:	ed911b14 	vldr	d1, [r1, #80]	; 0x50
    c2a8:	ed8c2b16 	vstr	d2, [ip, #88]	; 0x58
    c2ac:	ed912b16 	vldr	d2, [r1, #88]	; 0x58
    c2b0:	ed8c7b18 	vstr	d7, [ip, #96]	; 0x60
    c2b4:	e2811060 	add	r1, r1, #96	; 0x60
    c2b8:	ed8c0b1a 	vstr	d0, [ip, #104]	; 0x68
    c2bc:	ed8c1b1c 	vstr	d1, [ip, #112]	; 0x70
    c2c0:	ed8c2b1e 	vstr	d2, [ip, #120]	; 0x78
    c2c4:	e28cc080 	add	ip, ip, #128	; 0x80
    c2c8:	e28aad05 	add	sl, sl, #320	; 0x140
    c2cc:	eaffff1d 	b	bf48 <memcpy+0xc8>
    c2d0:	f5d1f000 	pld	[r1]
    c2d4:	f5d1f040 	pld	[r1, #64]	; 0x40
    c2d8:	e1b0ae8c 	lsls	sl, ip, #29
    c2dc:	f5d1f080 	pld	[r1, #128]	; 0x80
    c2e0:	0a000008 	beq	c308 <memcpy+0x488>
    c2e4:	e27aa000 	rsbs	sl, sl, #0
    c2e8:	e0422eaa 	sub	r2, r2, sl, lsr #29
    c2ec:	44913004 	ldrmi	r3, [r1], #4
    c2f0:	448c3004 	strmi	r3, [ip], #4
    c2f4:	e1b0a10a 	lsls	sl, sl, #2
    c2f8:	14d13001 	ldrbne	r3, [r1], #1
    c2fc:	20d1a0b2 	ldrhcs	sl, [r1], #2
    c300:	14cc3001 	strbne	r3, [ip], #1
    c304:	20cca0b2 	strhcs	sl, [ip], #2
    c308:	f5d1f0c0 	pld	[r1, #192]	; 0xc0
    c30c:	e2522040 	subs	r2, r2, #64	; 0x40
    c310:	449da004 	popmi	{sl}		; (ldrmi sl, [sp], #4)
    c314:	4afffedc 	bmi	be8c <memcpy+0xc>
    c318:	f5d1f100 	pld	[r1, #256]	; 0x100
    c31c:	f421020d 	vld1.8	{d0-d3}, [r1]!
    c320:	f421420d 	vld1.8	{d4-d7}, [r1]!
    c324:	e2522040 	subs	r2, r2, #64	; 0x40
    c328:	4a000006 	bmi	c348 <memcpy+0x4c8>
    c32c:	f5d1f100 	pld	[r1, #256]	; 0x100
    c330:	f40c021d 	vst1.8	{d0-d3}, [ip :64]!
    c334:	f421020d 	vld1.8	{d0-d3}, [r1]!
    c338:	f40c421d 	vst1.8	{d4-d7}, [ip :64]!
    c33c:	f421420d 	vld1.8	{d4-d7}, [r1]!
    c340:	e2522040 	subs	r2, r2, #64	; 0x40
    c344:	5afffff8 	bpl	c32c <memcpy+0x4ac>
    c348:	f40c021d 	vst1.8	{d0-d3}, [ip :64]!
    c34c:	f40c421d 	vst1.8	{d4-d7}, [ip :64]!
    c350:	e212203f 	ands	r2, r2, #63	; 0x3f
